---
triple:          'x86_64-apple-darwin'
binary-path:     libpubnub-chat.dylib
relocations:
  - { offset: 0x1B9, size: 0x8, addend: 0x0, symName: __ZN6Pubnub4ChatC2ERKNS_6StringES3_S3_RKNS_10ChatConfigE, symObjAddr: 0x0, symBinAddr: 0x1EB0, symSize: 0x320 }
  - { offset: 0xC34, size: 0x8, addend: 0x0, symName: __ZNSt3__115allocate_sharedB8ne180100I11ChatServiceNS_9allocatorIS1_EEJNS_10shared_ptrI5MutexI6PubNubEEEEvEENS4_IT_EERKT0_DpOT1_, symObjAddr: 0x3E50, symBinAddr: 0x59C0, symSize: 0xD0 }
  - { offset: 0x1101, size: 0x8, addend: 0x0, symName: __ZNSt3__110shared_ptrI5MutexI6PubNubEED1B8ne180100Ev, symObjAddr: 0x320, symBinAddr: 0x21D0, symSize: 0x40 }
  - { offset: 0x1161, size: 0x8, addend: 0x0, symName: __ZN6Pubnub4ChatC1ERKNS_6StringES3_S3_RKNS_10ChatConfigE, symObjAddr: 0x560, symBinAddr: 0x2210, symSize: 0x10 }
  - { offset: 0x11D4, size: 0x8, addend: 0x0, symName: __ZN6Pubnub4Chat4initERKNS_6StringES3_S3_RKNS_10ChatConfigE, symObjAddr: 0x570, symBinAddr: 0x2220, symSize: 0x330 }
  - { offset: 0x13CD, size: 0x8, addend: 0x0, symName: __ZNSt16invalid_argumentC1B8ne180100EPKc, symObjAddr: 0x8A0, symBinAddr: 0x2550, symSize: 0x30 }
  - { offset: 0x13F3, size: 0x8, addend: 0x0, symName: __ZN6Pubnub4ChatD2Ev, symObjAddr: 0x3970, symBinAddr: 0x54E0, symSize: 0x1A0 }
  - { offset: 0x16F3, size: 0x8, addend: 0x0, symName: __ZNK6Pubnub4Chat8get_userERKNS_6StringE, symObjAddr: 0x8D0, symBinAddr: 0x2580, symSize: 0x20 }
  - { offset: 0x1719, size: 0x8, addend: 0x0, symName: __ZNK6Pubnub4Chat25create_user_for_init_chatERKNS_6StringERKNS_12ChatUserDataE, symObjAddr: 0x8F0, symBinAddr: 0x25A0, symSize: 0xB0 }
  - { offset: 0x17A1, size: 0x8, addend: 0x0, symName: __ZN7UserDAOD1Ev, symObjAddr: 0x21C0, symBinAddr: 0x3E70, symSize: 0x50 }
  - { offset: 0x17F1, size: 0x8, addend: 0x0, symName: __ZNK6Pubnub4Chat29store_user_activity_timestampEv, symObjAddr: 0x9B0, symBinAddr: 0x2660, symSize: 0x10 }
  - { offset: 0x1824, size: 0x8, addend: 0x0, symName: __ZNK6Pubnub4Chat26create_public_conversationERKNS_6StringERKNS_15ChatChannelDataE, symObjAddr: 0x9C0, symBinAddr: 0x2670, symSize: 0xA0 }
  - { offset: 0x188C, size: 0x8, addend: 0x0, symName: __ZN10ChannelDAOD2Ev, symObjAddr: 0x3B10, symBinAddr: 0x5680, symSize: 0x150 }
  - { offset: 0x1D41, size: 0x8, addend: 0x0, symName: __ZNK6Pubnub4Chat26create_direct_conversationERKNS_4UserERKNS_6StringERKNS_15ChatChannelDataES6_, symObjAddr: 0xA60, symBinAddr: 0x2710, symSize: 0x450 }
  - { offset: 0x212D, size: 0x8, addend: 0x0, symName: __ZN6Pubnub21CreatedChannelWrapperC2ENS_7ChannelENS_10MembershipENS_6VectorIS2_EE, symObjAddr: 0x3CB0, symBinAddr: 0x5820, symSize: 0x120 }
  - { offset: 0x220C, size: 0x8, addend: 0x0, symName: __ZNSt3__15tupleIJN6Pubnub7ChannelENS1_10MembershipENS_6vectorIS3_NS_9allocatorIS3_EEEEEED1Ev, symObjAddr: 0xEE0, symBinAddr: 0x2B90, symSize: 0x80 }
  - { offset: 0x2395, size: 0x8, addend: 0x0, symName: __ZN6Pubnub18ChatMembershipDataD1Ev, symObjAddr: 0xEB0, symBinAddr: 0x2B60, symSize: 0x30 }
  - { offset: 0x23BB, size: 0x8, addend: 0x0, symName: __ZNK6Pubnub4Chat26create_direct_conversationERKNS_4UserERKNS_6StringERKNS_15ChatChannelDataERKNS_18ChatMembershipDataE, symObjAddr: 0xF60, symBinAddr: 0x2C10, symSize: 0x390 }
  - { offset: 0x2799, size: 0x8, addend: 0x0, symName: __ZNK6Pubnub4Chat25create_group_conversationENS_6VectorINS_4UserEEERKNS_6StringERKNS_15ChatChannelDataES6_, symObjAddr: 0x12F0, symBinAddr: 0x2FA0, symSize: 0x4C0 }
  - { offset: 0x2CBF, size: 0x8, addend: 0x0, symName: __ZNSt3__16vectorIN6Pubnub4UserENS_9allocatorIS2_EEE16__init_with_sizeB8ne180100IPS2_S7_EEvT_T0_m, symObjAddr: 0x4340, symBinAddr: 0x5EB0, symSize: 0x100 }
  - { offset: 0x2EFD, size: 0x8, addend: 0x0, symName: __ZNSt3__16vectorIN6Pubnub4UserENS_9allocatorIS2_EEED1B8ne180100Ev, symObjAddr: 0x17B0, symBinAddr: 0x3460, symSize: 0x70 }
  - { offset: 0x2FEE, size: 0x8, addend: 0x0, symName: __ZNK6Pubnub4Chat25create_group_conversationENS_6VectorINS_4UserEEERKNS_6StringERKNS_15ChatChannelDataERKNS_18ChatMembershipDataE, symObjAddr: 0x1820, symBinAddr: 0x34D0, symSize: 0x440 }
  - { offset: 0x34DE, size: 0x8, addend: 0x0, symName: __ZNK6Pubnub4Chat11get_channelERKNS_6StringE, symObjAddr: 0x1C60, symBinAddr: 0x3910, symSize: 0x20 }
  - { offset: 0x35AC, size: 0x8, addend: 0x0, symName: __ZNK6Pubnub4Chat12get_channelsERKNS_6StringES3_iRKNS_4PageE, symObjAddr: 0x1C80, symBinAddr: 0x3930, symSize: 0x140 }
  - { offset: 0x3873, size: 0x8, addend: 0x0, symName: __ZN6Pubnub6VectorINS_7ChannelEE9push_backERKS1_, symObjAddr: 0x4540, symBinAddr: 0x60B0, symSize: 0xE0 }
  - { offset: 0x38BF, size: 0x8, addend: 0x0, symName: __ZNSt3__15tupleIJNS_6vectorIN6Pubnub7ChannelENS_9allocatorIS3_EEEENS2_4PageEiEED1Ev, symObjAddr: 0x1DC0, symBinAddr: 0x3A70, symSize: 0x80 }
  - { offset: 0x3A69, size: 0x8, addend: 0x0, symName: __ZNK6Pubnub4Chat14update_channelERKNS_6StringERKNS_15ChatChannelDataE, symObjAddr: 0x1E40, symBinAddr: 0x3AF0, symSize: 0xA0 }
  - { offset: 0x3AD1, size: 0x8, addend: 0x0, symName: __ZNK6Pubnub4Chat14delete_channelERKNS_6StringE, symObjAddr: 0x1EE0, symBinAddr: 0x3B90, symSize: 0x10 }
  - { offset: 0x3AF7, size: 0x8, addend: 0x0, symName: __ZNK6Pubnub4Chat22pin_message_to_channelERKNS_7MessageERKNS_7ChannelE, symObjAddr: 0x1EF0, symBinAddr: 0x3BA0, symSize: 0x40 }
  - { offset: 0x3B08, size: 0x8, addend: 0x0, symName: __ZNK6Pubnub4Chat26unpin_message_from_channelERKNS_7ChannelE, symObjAddr: 0x1F30, symBinAddr: 0x3BE0, symSize: 0x30 }
  - { offset: 0x3B25, size: 0x8, addend: 0x0, symName: __ZNK6Pubnub4Chat23get_channel_suggestionsENS_6StringEi, symObjAddr: 0x1F60, symBinAddr: 0x3C10, symSize: 0x120 }
  - { offset: 0x3D32, size: 0x8, addend: 0x0, symName: __ZNSt3__16vectorIN6Pubnub7ChannelENS_9allocatorIS2_EEED1B8ne180100Ev, symObjAddr: 0x2080, symBinAddr: 0x3D30, symSize: 0x70 }
  - { offset: 0x3E2E, size: 0x8, addend: 0x0, symName: __ZN6Pubnub4Chat12current_userEv, symObjAddr: 0x20F0, symBinAddr: 0x3DA0, symSize: 0x20 }
  - { offset: 0x3E54, size: 0x8, addend: 0x0, symName: __ZNK6Pubnub4Chat11create_userERKNS_6StringERKNS_12ChatUserDataE, symObjAddr: 0x2110, symBinAddr: 0x3DC0, symSize: 0xB0 }
  - { offset: 0x3F2E, size: 0x8, addend: 0x0, symName: __ZNK6Pubnub4Chat9get_usersERKNS_6StringES3_iRKNS_4PageE, symObjAddr: 0x2210, symBinAddr: 0x3EC0, symSize: 0x140 }
  - { offset: 0x41EA, size: 0x8, addend: 0x0, symName: __ZN6Pubnub6VectorINS_4UserEE9push_backERKS1_, symObjAddr: 0x4620, symBinAddr: 0x6190, symSize: 0xD0 }
  - { offset: 0x4236, size: 0x8, addend: 0x0, symName: __ZNSt3__15tupleIJNS_6vectorIN6Pubnub4UserENS_9allocatorIS3_EEEENS2_4PageEiEED1Ev, symObjAddr: 0x2350, symBinAddr: 0x4000, symSize: 0x80 }
  - { offset: 0x43D5, size: 0x8, addend: 0x0, symName: __ZNK6Pubnub4Chat11update_userERKNS_6StringERKNS_12ChatUserDataE, symObjAddr: 0x23D0, symBinAddr: 0x4080, symSize: 0xB0 }
  - { offset: 0x445B, size: 0x8, addend: 0x0, symName: __ZNK6Pubnub4Chat11delete_userERKNS_6StringE, symObjAddr: 0x2480, symBinAddr: 0x4130, symSize: 0x10 }
  - { offset: 0x448D, size: 0x8, addend: 0x0, symName: __ZNK6Pubnub4Chat20get_user_suggestionsENS_6StringEi, symObjAddr: 0x2490, symBinAddr: 0x4140, symSize: 0x130 }
  - { offset: 0x4707, size: 0x8, addend: 0x0, symName: __ZNK6Pubnub4Chat13where_presentERKNS_6StringE, symObjAddr: 0x25C0, symBinAddr: 0x4270, symSize: 0xE0 }
  - { offset: 0x4909, size: 0x8, addend: 0x0, symName: __ZN6Pubnub6VectorINS_6StringEE9push_backERKS1_, symObjAddr: 0x46F0, symBinAddr: 0x6260, symSize: 0xE0 }
  - { offset: 0x4955, size: 0x8, addend: 0x0, symName: __ZNSt3__16vectorIN6Pubnub6StringENS_9allocatorIS2_EEED1B8ne180100Ev, symObjAddr: 0x26A0, symBinAddr: 0x4350, symSize: 0x70 }
  - { offset: 0x4A46, size: 0x8, addend: 0x0, symName: __ZNK6Pubnub4Chat14who_is_presentERKNS_6StringE, symObjAddr: 0x2710, symBinAddr: 0x43C0, symSize: 0xE0 }
  - { offset: 0x4C48, size: 0x8, addend: 0x0, symName: __ZNK6Pubnub4Chat10is_presentERKNS_6StringES3_, symObjAddr: 0x27F0, symBinAddr: 0x44A0, symSize: 0x10 }
  - { offset: 0x4C74, size: 0x8, addend: 0x0, symName: __ZNK6Pubnub4Chat16set_restrictionsERKNS_6StringES3_RKNS_11RestrictionE, symObjAddr: 0x2800, symBinAddr: 0x44B0, symSize: 0x10 }
  - { offset: 0x4C9A, size: 0x8, addend: 0x0, symName: __ZNK6Pubnub4Chat15emit_chat_eventENS_22pubnub_chat_event_typeERKNS_6StringES4_NS_11EventMethodE, symObjAddr: 0x2810, symBinAddr: 0x44C0, symSize: 0x10 }
  - { offset: 0x4D62, size: 0x8, addend: 0x0, symName: __ZNK6Pubnub4Chat18get_events_historyERKNS_6StringES3_S3_i, symObjAddr: 0x2820, symBinAddr: 0x44D0, symSize: 0x110 }
  - { offset: 0x4FB8, size: 0x8, addend: 0x0, symName: __ZN6Pubnub6VectorINS_5EventEE7reserveEm, symObjAddr: 0x47D0, symBinAddr: 0x6340, symSize: 0xD0 }
  - { offset: 0x4FF8, size: 0x8, addend: 0x0, symName: __ZN6Pubnub6VectorINS_5EventEE9push_backERKS1_, symObjAddr: 0x48A0, symBinAddr: 0x6410, symSize: 0xA0 }
  - { offset: 0x503F, size: 0x8, addend: 0x0, symName: __ZNSt3__15tupleIJNS_6vectorIN6Pubnub5EventENS_9allocatorIS3_EEEEbEED1Ev, symObjAddr: 0x2930, symBinAddr: 0x45E0, symSize: 0x80 }
  - { offset: 0x521C, size: 0x8, addend: 0x0, symName: __ZNK6Pubnub4Chat17listen_for_eventsERKNS_6StringENS_22pubnub_chat_event_typeENSt3__18functionIFvRKNS_5EventEEEE, symObjAddr: 0x29B0, symBinAddr: 0x4660, symSize: 0x1A0 }
  - { offset: 0x54D0, size: 0x8, addend: 0x0, symName: __ZNK6Pubnub4Chat15forward_messageERKNS_7MessageERKNS_7ChannelE, symObjAddr: 0x2BD0, symBinAddr: 0x4800, symSize: 0x60 }
  - { offset: 0x5682, size: 0x8, addend: 0x0, symName: __ZNK6Pubnub4Chat26get_unread_messages_countsERKNS_6StringES3_iRKNS_4PageE, symObjAddr: 0x2C30, symBinAddr: 0x4860, symSize: 0x440 }
  - { offset: 0x5DBF, size: 0x8, addend: 0x0, symName: __ZNSt3__16vectorIN6Pubnub20UnreadMessageWrapperENS_9allocatorIS2_EEE21__push_back_slow_pathIRKS2_EEPS2_OT_, symObjAddr: 0x4940, symBinAddr: 0x64B0, symSize: 0x1B0 }
  - { offset: 0x6061, size: 0x8, addend: 0x0, symName: __ZN6Pubnub6VectorINS_20UnreadMessageWrapperEE9push_backERKS1_, symObjAddr: 0x4C90, symBinAddr: 0x6800, symSize: 0x150 }
  - { offset: 0x60D6, size: 0x8, addend: 0x0, symName: __ZNSt3__16vectorIN6Pubnub20UnreadMessageWrapperENS_9allocatorIS2_EEED1B8ne180100Ev, symObjAddr: 0x3070, symBinAddr: 0x4CA0, symSize: 0x80 }
  - { offset: 0x630E, size: 0x8, addend: 0x0, symName: __ZNK6Pubnub4Chat25mark_all_messages_as_readERKNS_6StringES3_iRKNS_4PageE, symObjAddr: 0x3170, symBinAddr: 0x4D20, symSize: 0x1A0 }
  - { offset: 0x6663, size: 0x8, addend: 0x0, symName: __ZN6Pubnub6VectorINS_10MembershipEE9push_backERKS1_, symObjAddr: 0x4260, symBinAddr: 0x5DD0, symSize: 0xE0 }
  - { offset: 0x66AF, size: 0x8, addend: 0x0, symName: __ZN6Pubnub25MarkMessagesAsReadWrapperD1Ev, symObjAddr: 0x3310, symBinAddr: 0x4EC0, symSize: 0x30 }
  - { offset: 0x6735, size: 0x8, addend: 0x0, symName: __ZNSt3__15tupleIJN6Pubnub4PageEiiNS_6vectorINS1_10MembershipENS_9allocatorIS4_EEEEEED1Ev, symObjAddr: 0x3340, symBinAddr: 0x4EF0, symSize: 0x70 }
  - { offset: 0x698E, size: 0x8, addend: 0x0, symName: __ZNK6Pubnub4Chat25get_current_user_mentionsERKNS_6StringES3_i, symObjAddr: 0x33B0, symBinAddr: 0x4F60, symSize: 0x230 }
  - { offset: 0x6CE1, size: 0x8, addend: 0x0, symName: __ZN6Pubnub15UserMentionDataaSERKS0_, symObjAddr: 0x4DE0, symBinAddr: 0x6950, symSize: 0x100 }
  - { offset: 0x6E5F, size: 0x8, addend: 0x0, symName: __ZNSt3__19allocatorIN6Pubnub15UserMentionDataEE7destroyB8ne180100EPS2_, symObjAddr: 0x3DD0, symBinAddr: 0x5940, symSize: 0x80 }
  - { offset: 0x6FD4, size: 0x8, addend: 0x0, symName: __ZNSt3__15tupleIJNS_6vectorIN6Pubnub15UserMentionDataENS_9allocatorIS3_EEEEbEED1Ev, symObjAddr: 0x35E0, symBinAddr: 0x5190, symSize: 0x70 }
  - { offset: 0x712A, size: 0x8, addend: 0x0, symName: __ZNK6Pubnub4Chat21create_thread_channelERKNS_7MessageE, symObjAddr: 0x3650, symBinAddr: 0x5200, symSize: 0x20 }
  - { offset: 0x7150, size: 0x8, addend: 0x0, symName: __ZNK6Pubnub4Chat18get_thread_channelERKNS_7MessageE, symObjAddr: 0x3670, symBinAddr: 0x5220, symSize: 0x20 }
  - { offset: 0x7176, size: 0x8, addend: 0x0, symName: __ZNK6Pubnub4Chat21remove_thread_channelERKNS_7MessageE, symObjAddr: 0x3690, symBinAddr: 0x5240, symSize: 0x10 }
  - { offset: 0x71B4, size: 0x8, addend: 0x0, symName: __ZNK6Pubnub4Chat14access_managerEv, symObjAddr: 0x36A0, symBinAddr: 0x5250, symSize: 0x80 }
  - { offset: 0x732C, size: 0x8, addend: 0x0, symName: __ZN6Pubnub4Chat24register_logger_callbackENSt3__18functionIFvNS_12pn_log_levelEPKcEEE, symObjAddr: 0x3760, symBinAddr: 0x52D0, symSize: 0xF0 }
  - { offset: 0x74B4, size: 0x8, addend: 0x0, symName: __ZNK6Pubnub4Chat30add_connection_status_listenerENSt3__18functionIFvNS_20pn_connection_statusENS_20ConnectionStatusDataEEEE, symObjAddr: 0x3850, symBinAddr: 0x53C0, symSize: 0xF0 }
  - { offset: 0x760C, size: 0x8, addend: 0x0, symName: __ZNK6Pubnub4Chat23reconnect_subscriptionsEv, symObjAddr: 0x3940, symBinAddr: 0x54B0, symSize: 0x10 }
  - { offset: 0x7633, size: 0x8, addend: 0x0, symName: __ZNK6Pubnub4Chat33remove_connection_status_listenerEv, symObjAddr: 0x3950, symBinAddr: 0x54C0, symSize: 0x10 }
  - { offset: 0x765A, size: 0x8, addend: 0x0, symName: __ZNK6Pubnub4Chat24disconnect_subscriptionsEv, symObjAddr: 0x3960, symBinAddr: 0x54D0, symSize: 0x10 }
  - { offset: 0x7723, size: 0x8, addend: 0x0, symName: __ZNSt3__16__treeINS_12__value_typeIN6Pubnub6StringE5TimerEENS_19__map_value_compareIS3_S5_NS2_14StringComparerELb1EEENS_9allocatorIS5_EEE7destroyEPNS_11__tree_nodeIS5_PvEE, symObjAddr: 0x3C60, symBinAddr: 0x57D0, symSize: 0x50 }
  - { offset: 0x795A, size: 0x8, addend: 0x0, symName: __ZNSt3__120__shared_ptr_emplaceI11ChatServiceNS_9allocatorIS1_EEEC2B8ne180100IJNS_10shared_ptrI5MutexI6PubNubEEEES3_Li0EEES3_DpOT_, symObjAddr: 0x3F60, symBinAddr: 0x5AD0, symSize: 0x90 }
  - { offset: 0x7AC8, size: 0x8, addend: 0x0, symName: __ZSt28__throw_bad_array_new_lengthB8ne180100v, symObjAddr: 0x3F20, symBinAddr: 0x5A90, symSize: 0x40 }
  - { offset: 0x7AFD, size: 0x8, addend: 0x0, symName: __ZNSt3__120__shared_ptr_emplaceI11ChatServiceNS_9allocatorIS1_EEEC2B8ne180100IJNS_10shared_ptrI5MutexI6PubNubEEEES3_Li0EEES3_DpOT_.cold.1, symObjAddr: 0x4EE0, symBinAddr: 0xDCF10, symSize: 0x2F }
  - { offset: 0x7BAB, size: 0x8, addend: 0x0, symName: __ZNSt3__120__shared_ptr_emplaceI11ChatServiceNS_9allocatorIS1_EEED1Ev, symObjAddr: 0x3FF0, symBinAddr: 0x5B60, symSize: 0x20 }
  - { offset: 0x7BD7, size: 0x8, addend: 0x0, symName: __ZNSt3__120__shared_ptr_emplaceI11ChatServiceNS_9allocatorIS1_EEED0Ev, symObjAddr: 0x4010, symBinAddr: 0x5B80, symSize: 0x30 }
  - { offset: 0x7C2A, size: 0x8, addend: 0x0, symName: __ZNSt3__120__shared_ptr_emplaceI11ChatServiceNS_9allocatorIS1_EEE16__on_zero_sharedEv, symObjAddr: 0x4040, symBinAddr: 0x5BB0, symSize: 0x10 }
  - { offset: 0x7CB4, size: 0x8, addend: 0x0, symName: __ZN11ChatServiceD2Ev, symObjAddr: 0x4060, symBinAddr: 0x5BD0, symSize: 0x200 }
  - { offset: 0x8054, size: 0x8, addend: 0x0, symName: __ZNSt3__120__shared_ptr_emplaceI11ChatServiceNS_9allocatorIS1_EEE21__on_zero_shared_weakEv, symObjAddr: 0x4050, symBinAddr: 0x5BC0, symSize: 0x10 }
  - { offset: 0x8168, size: 0x8, addend: 0x0, symName: __ZNKSt3__16vectorIN6Pubnub4UserENS_9allocatorIS2_EEE20__throw_length_errorB8ne180100Ev, symObjAddr: 0x44B0, symBinAddr: 0x6020, symSize: 0x10 }
  - { offset: 0x817D, size: 0x8, addend: 0x0, symName: __ZNSt3__120__throw_length_errorB8ne180100EPKc, symObjAddr: 0x44C0, symBinAddr: 0x6030, symSize: 0x50 }
  - { offset: 0x8187, size: 0x8, addend: 0x0, symName: __ZNSt3__128__exception_guard_exceptionsINS_6vectorIN6Pubnub4UserENS_9allocatorIS3_EEE16__destroy_vectorEED1B8ne180100Ev, symObjAddr: 0x4440, symBinAddr: 0x5FB0, symSize: 0x70 }
  - { offset: 0x8274, size: 0x8, addend: 0x0, symName: __ZNSt3__120__throw_length_errorB8ne180100EPKc, symObjAddr: 0x44C0, symBinAddr: 0x6030, symSize: 0x50 }
  - { offset: 0x8293, size: 0x8, addend: 0x0, symName: __ZNSt12length_errorC1B8ne180100EPKc, symObjAddr: 0x4510, symBinAddr: 0x6080, symSize: 0x30 }
  - { offset: 0x8337, size: 0x8, addend: 0x0, symName: __ZNSt3__16vectorIN6Pubnub20UnreadMessageWrapperENS_9allocatorIS2_EEE26__swap_out_circular_bufferERNS_14__split_bufferIS2_RS4_EE, symObjAddr: 0x4AF0, symBinAddr: 0x6660, symSize: 0x120 }
  - { offset: 0x84DC, size: 0x8, addend: 0x0, symName: __ZNKSt3__16vectorIN6Pubnub20UnreadMessageWrapperENS_9allocatorIS2_EEE20__throw_length_errorB8ne180100Ev, symObjAddr: 0x4C80, symBinAddr: 0x67F0, symSize: 0x10 }
  - { offset: 0x84F1, size: 0x8, addend: 0x0, symName: __ZN6Pubnub6VectorINS_20UnreadMessageWrapperEE9push_backERKS1_, symObjAddr: 0x4C90, symBinAddr: 0x6800, symSize: 0x150 }
  - { offset: 0x84FB, size: 0x8, addend: 0x0, symName: __ZNSt3__114__split_bufferIN6Pubnub20UnreadMessageWrapperERNS_9allocatorIS2_EEED1Ev, symObjAddr: 0x4C10, symBinAddr: 0x6780, symSize: 0x70 }
  - { offset: 0x86B9, size: 0x8, addend: 0x0, symName: __ZN6Pubnub7ChannelC2Ev, symObjAddr: 0x0, symBinAddr: 0x6A50, symSize: 0x50 }
  - { offset: 0x86FB, size: 0x8, addend: 0x0, symName: __ZN6Pubnub7ChannelC1Ev, symObjAddr: 0x50, symBinAddr: 0x6AA0, symSize: 0x50 }
  - { offset: 0x87CA, size: 0x8, addend: 0x0, symName: __ZN6Pubnub7ChannelC2ENS_6StringENSt3__110shared_ptrIK11ChatServiceEENS3_IK14ChannelServiceEENS3_IK15PresenceServiceEENS3_IK19RestrictionsServiceEENS3_IK14MessageServiceEENS3_IK17MembershipServiceEENS2_10unique_ptrI10ChannelDAONS2_14default_deleteISN_EEEE, symObjAddr: 0xA0, symBinAddr: 0x6AF0, symSize: 0xF0 }
  - { offset: 0x8ADA, size: 0x8, addend: 0x0, symName: __ZN6Pubnub7ChannelC1ENS_6StringENSt3__110shared_ptrIK11ChatServiceEENS3_IK14ChannelServiceEENS3_IK15PresenceServiceEENS3_IK19RestrictionsServiceEENS3_IK14MessageServiceEENS3_IK17MembershipServiceEENS2_10unique_ptrI10ChannelDAONS2_14default_deleteISN_EEEE, symObjAddr: 0x190, symBinAddr: 0x6BE0, symSize: 0xF0 }
  - { offset: 0x8E2F, size: 0x8, addend: 0x0, symName: __ZN6Pubnub7ChannelC2ERKS0_, symObjAddr: 0x280, symBinAddr: 0x6CD0, symSize: 0x170 }
  - { offset: 0x917D, size: 0x8, addend: 0x0, symName: __ZN6Pubnub15ChatChannelDataD1Ev, symObjAddr: 0x3F0, symBinAddr: 0x6E40, symSize: 0x50 }
  - { offset: 0x91A3, size: 0x8, addend: 0x0, symName: __ZN6Pubnub7ChannelC1ERKS0_, symObjAddr: 0x440, symBinAddr: 0x6E90, symSize: 0x10 }
  - { offset: 0x92A6, size: 0x8, addend: 0x0, symName: __ZN6Pubnub7ChannelaSERKS0_, symObjAddr: 0x450, symBinAddr: 0x6EA0, symSize: 0x280 }
  - { offset: 0x9C9B, size: 0x8, addend: 0x0, symName: __ZN6Pubnub7ChannelD2Ev, symObjAddr: 0x6D0, symBinAddr: 0x7120, symSize: 0x170 }
  - { offset: 0x9F51, size: 0x8, addend: 0x0, symName: __ZN6Pubnub7ChannelD1Ev, symObjAddr: 0x840, symBinAddr: 0x7290, symSize: 0x10 }
  - { offset: 0x9F76, size: 0x8, addend: 0x0, symName: __ZN6Pubnub7ChannelD0Ev, symObjAddr: 0x850, symBinAddr: 0x72A0, symSize: 0x20 }
  - { offset: 0x9FA9, size: 0x8, addend: 0x0, symName: __ZNK6Pubnub7Channel10channel_idEv, symObjAddr: 0x870, symBinAddr: 0x72C0, symSize: 0x20 }
  - { offset: 0x9FBA, size: 0x8, addend: 0x0, symName: __ZNK6Pubnub7Channel12channel_dataEv, symObjAddr: 0x890, symBinAddr: 0x72E0, symSize: 0x20 }
  - { offset: 0x9FE6, size: 0x8, addend: 0x0, symName: __ZNK6Pubnub7Channel6updateERKNS_15ChatChannelDataE, symObjAddr: 0x8B0, symBinAddr: 0x7300, symSize: 0xB0 }
  - { offset: 0xA0A8, size: 0x8, addend: 0x0, symName: __ZNK6Pubnub7Channel7connectENSt3__18functionIFvNS_7MessageEEEE, symObjAddr: 0x960, symBinAddr: 0x73B0, symSize: 0x1B0 }
  - { offset: 0xA376, size: 0x8, addend: 0x0, symName: __ZNK6Pubnub7Channel4joinENSt3__18functionIFvNS_7MessageEEEERKNS_6StringE, symObjAddr: 0xB90, symBinAddr: 0x7560, symSize: 0x230 }
  - { offset: 0xA650, size: 0x8, addend: 0x0, symName: __ZNK6Pubnub7Channel4joinENSt3__18functionIFvNS_7MessageEEEERKNS_18ChatMembershipDataE, symObjAddr: 0xDF0, symBinAddr: 0x7790, symSize: 0x1C0 }
  - { offset: 0xA8A6, size: 0x8, addend: 0x0, symName: __ZNK6Pubnub7Channel10disconnectEv, symObjAddr: 0xFB0, symBinAddr: 0x7950, symSize: 0x20 }
  - { offset: 0xA8E0, size: 0x8, addend: 0x0, symName: __ZNK6Pubnub7Channel5leaveEv, symObjAddr: 0xFD0, symBinAddr: 0x7970, symSize: 0x20 }
  - { offset: 0xA91A, size: 0x8, addend: 0x0, symName: __ZNK6Pubnub7Channel14delete_channelEv, symObjAddr: 0xFF0, symBinAddr: 0x7990, symSize: 0x20 }
  - { offset: 0xAA3C, size: 0x8, addend: 0x0, symName: __ZN6Pubnub7Channel9send_textERKNS_6StringENS_14SendTextParamsE, symObjAddr: 0x1010, symBinAddr: 0x79B0, symSize: 0x200 }
  - { offset: 0xAEB3, size: 0x8, addend: 0x0, symName: __ZN6Pubnub3MapIiNS_13MentionedUserENSt3__14lessIS1_EEEC2ERKS5_, symObjAddr: 0x3E10, symBinAddr: 0xA3F0, symSize: 0x140 }
  - { offset: 0xB06E, size: 0x8, addend: 0x0, symName: __ZN22SendTextParamsInternalC2EN6Pubnub14SendTextParamsE, symObjAddr: 0x3F50, symBinAddr: 0xA530, symSize: 0x370 }
  - { offset: 0xB487, size: 0x8, addend: 0x0, symName: __ZN22SendTextParamsInternalD2Ev, symObjAddr: 0x4460, symBinAddr: 0xA9F0, symSize: 0xB0 }
  - { offset: 0xB6D9, size: 0x8, addend: 0x0, symName: __ZN6Pubnub3MapIiNS_13MentionedUserENSt3__14lessIS1_EEE12into_std_mapEv, symObjAddr: 0x1260, symBinAddr: 0x7C00, symSize: 0x210 }
  - { offset: 0xBD57, size: 0x8, addend: 0x0, symName: __ZNSt3__16__treeINS_12__value_typeIiN6Pubnub13MentionedUserEEENS_19__map_value_compareIiS4_NS_4lessIiEELb1EEENS_9allocatorIS4_EEE7destroyEPNS_11__tree_nodeIS4_PvEE, symObjAddr: 0x43C0, symBinAddr: 0xA9A0, symSize: 0x50 }
  - { offset: 0xBE6E, size: 0x8, addend: 0x0, symName: __ZN6Pubnub14SendTextParamsD1Ev, symObjAddr: 0x1210, symBinAddr: 0x7BB0, symSize: 0x50 }
  - { offset: 0xC10F, size: 0x8, addend: 0x0, symName: __ZNSt3__16vectorIN6Pubnub13MentionedUserENS_9allocatorIS2_EEE16__init_with_sizeB8ne180100IPS2_S7_EEvT_T0_m, symObjAddr: 0x4620, symBinAddr: 0xAB30, symSize: 0x130 }
  - { offset: 0xC357, size: 0x8, addend: 0x0, symName: __ZNSt3__16__treeINS_12__value_typeIiN6Pubnub13MentionedUserEEENS_19__map_value_compareIiS4_NS_4lessIiEELb1EEENS_9allocatorIS4_EEE25__emplace_unique_key_argsIiJRKNS_21piecewise_construct_tENS_5tupleIJRKiEEENSG_IJEEEEEENS_4pairINS_15__tree_iteratorIS4_PNS_11__tree_nodeIS4_PvEElEEbEERKT_DpOT0_, symObjAddr: 0x47E0, symBinAddr: 0xACF0, symSize: 0x130 }
  - { offset: 0xC566, size: 0x8, addend: 0x0, symName: __ZNKSt3__16vectorIiNS_9allocatorIiEEE20__throw_length_errorB8ne180100Ev, symObjAddr: 0x4590, symBinAddr: 0xAB20, symSize: 0x10 }
  - { offset: 0xC585, size: 0x8, addend: 0x0, symName: __ZNSt3__16vectorIN6Pubnub13MentionedUserENS_9allocatorIS2_EEED1B8ne180100Ev, symObjAddr: 0x4510, symBinAddr: 0xAAA0, symSize: 0x80 }
  - { offset: 0xC718, size: 0x8, addend: 0x0, symName: __ZNK6Pubnub7Channel14who_is_presentEv, symObjAddr: 0x1470, symBinAddr: 0x7E10, symSize: 0xE0 }
  - { offset: 0xC9C2, size: 0x8, addend: 0x0, symName: __ZNK6Pubnub7Channel10is_presentERKNS_6StringE, symObjAddr: 0x15C0, symBinAddr: 0x7EF0, symSize: 0x20 }
  - { offset: 0xC9EE, size: 0x8, addend: 0x0, symName: __ZNK6Pubnub7Channel16set_restrictionsERKNS_6StringENS_11RestrictionE, symObjAddr: 0x15E0, symBinAddr: 0x7F10, symSize: 0x20 }
  - { offset: 0xCA3E, size: 0x8, addend: 0x0, symName: __ZNK6Pubnub7Channel21get_user_restrictionsERKNS_4UserE, symObjAddr: 0x1600, symBinAddr: 0x7F30, symSize: 0x100 }
  - { offset: 0xCBD1, size: 0x8, addend: 0x0, symName: __ZNK6Pubnub7Channel22get_users_restrictionsERKNS_6StringEiRKNS_4PageE, symObjAddr: 0x1700, symBinAddr: 0x8030, symSize: 0x1E0 }
  - { offset: 0xCF2D, size: 0x8, addend: 0x0, symName: __ZN6Pubnub6VectorINS_15UserRestrictionEE9push_backERKS1_, symObjAddr: 0x4B50, symBinAddr: 0xAF80, symSize: 0x140 }
  - { offset: 0xCFA2, size: 0x8, addend: 0x0, symName: __ZNSt3__15tupleIJNS_6vectorIN6Pubnub15UserRestrictionENS_9allocatorIS3_EEEENS2_4PageEiNS2_6StringEEED1Ev, symObjAddr: 0x18E0, symBinAddr: 0x8210, symSize: 0x80 }
  - { offset: 0xD1F2, size: 0x8, addend: 0x0, symName: __ZNK6Pubnub7Channel11get_historyERKNS_6StringES3_i, symObjAddr: 0x1960, symBinAddr: 0x8290, symSize: 0x140 }
  - { offset: 0xD408, size: 0x8, addend: 0x0, symName: __ZN6Pubnub6VectorINS_7MessageEE9push_backERKS1_, symObjAddr: 0x4C90, symBinAddr: 0xB0C0, symSize: 0xD0 }
  - { offset: 0xD454, size: 0x8, addend: 0x0, symName: __ZNSt3__16vectorIN6Pubnub7MessageENS_9allocatorIS2_EEED1B8ne180100Ev, symObjAddr: 0x1AA0, symBinAddr: 0x83D0, symSize: 0x70 }
  - { offset: 0xD54B, size: 0x8, addend: 0x0, symName: __ZNK6Pubnub7Channel11get_messageERKNS_6StringE, symObjAddr: 0x1B10, symBinAddr: 0x8440, symSize: 0x70 }
  - { offset: 0xD61B, size: 0x8, addend: 0x0, symName: __ZNK6Pubnub7Channel11get_membersERKNS_6StringES3_iRKNS_4PageE, symObjAddr: 0x1B80, symBinAddr: 0x84B0, symSize: 0x1E0 }
  - { offset: 0xD991, size: 0x8, addend: 0x0, symName: __ZNSt3__15tupleIJNS_6vectorIN6Pubnub10MembershipENS_9allocatorIS3_EEEENS2_4PageEiNS2_6StringEEED1Ev, symObjAddr: 0x1D60, symBinAddr: 0x8690, symSize: 0x80 }
  - { offset: 0xDB45, size: 0x8, addend: 0x0, symName: __ZNK6Pubnub7Channel6inviteERKNS_4UserE, symObjAddr: 0x1DE0, symBinAddr: 0x8710, symSize: 0x80 }
  - { offset: 0xDBE7, size: 0x8, addend: 0x0, symName: __ZNK6Pubnub7Channel15invite_multipleENS_6VectorINS_4UserEEE, symObjAddr: 0x1E60, symBinAddr: 0x8790, symSize: 0x1B0 }
  - { offset: 0xE0FE, size: 0x8, addend: 0x0, symName: __ZNSt3__16vectorIN6Pubnub10MembershipENS_9allocatorIS2_EEED1B8ne180100Ev, symObjAddr: 0x2010, symBinAddr: 0x8940, symSize: 0x70 }
  - { offset: 0xE1EF, size: 0x8, addend: 0x0, symName: __ZNK6Pubnub7Channel12start_typingEv, symObjAddr: 0x20F0, symBinAddr: 0x89B0, symSize: 0x20 }
  - { offset: 0xE229, size: 0x8, addend: 0x0, symName: __ZNK6Pubnub7Channel11stop_typingEv, symObjAddr: 0x2110, symBinAddr: 0x89D0, symSize: 0x20 }
  - { offset: 0xE335, size: 0x8, addend: 0x0, symName: __ZNK6Pubnub7Channel10get_typingENSt3__18functionIFvNS_6VectorINS_6StringEEEEEE, symObjAddr: 0x2130, symBinAddr: 0x89F0, symSize: 0x3D0 }
  - { offset: 0xE8AB, size: 0x8, addend: 0x0, symName: __ZNK6Pubnub7Channel11pin_messageERKNS_7MessageE, symObjAddr: 0x2500, symBinAddr: 0x8DC0, symSize: 0x30 }
  - { offset: 0xE8E5, size: 0x8, addend: 0x0, symName: __ZNK6Pubnub7Channel13unpin_messageEv, symObjAddr: 0x2530, symBinAddr: 0x8DF0, symSize: 0x30 }
  - { offset: 0xE91F, size: 0x8, addend: 0x0, symName: __ZNK6Pubnub7Channel18get_pinned_messageEv, symObjAddr: 0x2560, symBinAddr: 0x8E20, symSize: 0x30 }
  - { offset: 0xEA1F, size: 0x8, addend: 0x0, symName: __ZNK6Pubnub7Channel14stream_updatesENSt3__18functionIFvRKS0_EEE, symObjAddr: 0x2590, symBinAddr: 0x8E50, symSize: 0x2F0 }
  - { offset: 0xEFC9, size: 0x8, addend: 0x0, symName: __ZN6Pubnub7Channel17stream_updates_onENS_6VectorIS0_EENSt3__18functionIFvS2_EEE, symObjAddr: 0x2880, symBinAddr: 0x9140, symSize: 0x440 }
  - { offset: 0xF75B, size: 0x8, addend: 0x0, symName: __ZNSt3__16vectorIN6Pubnub7ChannelENS_9allocatorIS2_EEE16__init_with_sizeB8ne180100IPS2_S7_EEvT_T0_m, symObjAddr: 0x5890, symBinAddr: 0xBA60, symSize: 0x100 }
  - { offset: 0xFAEA, size: 0x8, addend: 0x0, symName: __ZNK6Pubnub7Channel15stream_presenceENSt3__18functionIFvNS_6VectorINS_6StringEEEEEE, symObjAddr: 0x2D70, symBinAddr: 0x9580, symSize: 0x380 }
  - { offset: 0x101E2, size: 0x8, addend: 0x0, symName: __ZNK6Pubnub7Channel20stream_read_receiptsENSt3__18functionIFvNS_3MapINS_6StringENS_6VectorIS4_EENS_14StringComparerEEEEEE, symObjAddr: 0x30F0, symBinAddr: 0x9900, symSize: 0x390 }
  - { offset: 0x1081C, size: 0x8, addend: 0x0, symName: __ZNK6Pubnub7Channel15forward_messageERKNS_7MessageE, symObjAddr: 0x3480, symBinAddr: 0x9C90, symSize: 0x20 }
  - { offset: 0x10842, size: 0x8, addend: 0x0, symName: __ZNK6Pubnub7Channel17emit_user_mentionERKNS_6StringES3_S3_, symObjAddr: 0x34A0, symBinAddr: 0x9CB0, symSize: 0xB0 }
  - { offset: 0x1087E, size: 0x8, addend: 0x0, symName: __ZNK6Pubnub7Channel20get_user_suggestionsENS_6StringEi, symObjAddr: 0x3550, symBinAddr: 0x9D60, symSize: 0x170 }
  - { offset: 0x10B4F, size: 0x8, addend: 0x0, symName: __ZNK6Pubnub7Channel28get_messsage_reports_historyERKNS_6StringES3_i, symObjAddr: 0x36C0, symBinAddr: 0x9ED0, symSize: 0x160 }
  - { offset: 0x10EBD, size: 0x8, addend: 0x0, symName: __ZNK6Pubnub7Channel20create_message_draftENS_18MessageDraftConfigE, symObjAddr: 0x38A0, symBinAddr: 0xA030, symSize: 0x40 }
  - { offset: 0x10FB6, size: 0x8, addend: 0x0, symName: __ZNK6Pubnub7Channel22stream_message_reportsENSt3__18functionIFvRKNS_5EventEEEE, symObjAddr: 0x38E0, symBinAddr: 0xA070, symSize: 0x380 }
  - { offset: 0x11809, size: 0x8, addend: 0x0, symName: __ZN6Pubnub15ChatMessageDataD1Ev, symObjAddr: 0x42C0, symBinAddr: 0xA8A0, symSize: 0x50 }
  - { offset: 0x11866, size: 0x8, addend: 0x0, symName: __ZN6Pubnub13QuotedMessageD1Ev, symObjAddr: 0x4310, symBinAddr: 0xA8F0, symSize: 0x40 }
  - { offset: 0x1188C, size: 0x8, addend: 0x0, symName: __ZNSt3__16vectorIN6Pubnub8TextLinkENS_9allocatorIS2_EEED1B8ne180100Ev, symObjAddr: 0x4350, symBinAddr: 0xA930, symSize: 0x70 }
  - { offset: 0x11B6F, size: 0x8, addend: 0x0, symName: __ZNKSt3__16vectorIN6Pubnub13MentionedUserENS_9allocatorIS2_EEE20__throw_length_errorB8ne180100Ev, symObjAddr: 0x47D0, symBinAddr: 0xACE0, symSize: 0x10 }
  - { offset: 0x11B84, size: 0x8, addend: 0x0, symName: __ZNSt3__16__treeINS_12__value_typeIiN6Pubnub13MentionedUserEEENS_19__map_value_compareIiS4_NS_4lessIiEELb1EEENS_9allocatorIS4_EEE25__emplace_unique_key_argsIiJRKNS_21piecewise_construct_tENS_5tupleIJRKiEEENSG_IJEEEEEENS_4pairINS_15__tree_iteratorIS4_PNS_11__tree_nodeIS4_PvEElEEbEERKT_DpOT0_, symObjAddr: 0x47E0, symBinAddr: 0xACF0, symSize: 0x130 }
  - { offset: 0x11B8E, size: 0x8, addend: 0x0, symName: __ZNSt3__128__exception_guard_exceptionsINS_6vectorIN6Pubnub13MentionedUserENS_9allocatorIS3_EEE16__destroy_vectorEED1B8ne180100Ev, symObjAddr: 0x4750, symBinAddr: 0xAC60, symSize: 0x80 }
  - { offset: 0x11D11, size: 0x8, addend: 0x0, symName: __ZNSt3__127__tree_balance_after_insertB8ne180100IPNS_16__tree_node_baseIPvEEEEvT_S5_, symObjAddr: 0x4910, symBinAddr: 0xAE20, symSize: 0x160 }
  - { offset: 0x11F7B, size: 0x8, addend: 0x0, symName: '__ZNSt3__110__function6__funcIZNK6Pubnub7Channel10get_typingENS_8functionIFvNS2_6VectorINS2_6StringEEEEEEE3$_0NS_9allocatorISA_EEFvRKNS_6vectorIS6_NSB_IS6_EEEEEED1Ev', symObjAddr: 0x4FC0, symBinAddr: 0xB190, symSize: 0x40 }
  - { offset: 0x1201E, size: 0x8, addend: 0x0, symName: '__ZNSt3__110__function6__funcIZNK6Pubnub7Channel10get_typingENS_8functionIFvNS2_6VectorINS2_6StringEEEEEEE3$_0NS_9allocatorISA_EEFvRKNS_6vectorIS6_NSB_IS6_EEEEEED1Ev', symObjAddr: 0x4FC0, symBinAddr: 0xB190, symSize: 0x40 }
  - { offset: 0x120F2, size: 0x8, addend: 0x0, symName: '__ZNSt3__110__function6__funcIZNK6Pubnub7Channel10get_typingENS_8functionIFvNS2_6VectorINS2_6StringEEEEEEE3$_0NS_9allocatorISA_EEFvRKNS_6vectorIS6_NSB_IS6_EEEEEED0Ev', symObjAddr: 0x5000, symBinAddr: 0xB1D0, symSize: 0x50 }
  - { offset: 0x12270, size: 0x8, addend: 0x0, symName: '__ZNKSt3__110__function6__funcIZNK6Pubnub7Channel10get_typingENS_8functionIFvNS2_6VectorINS2_6StringEEEEEEE3$_0NS_9allocatorISA_EEFvRKNS_6vectorIS6_NSB_IS6_EEEEEE7__cloneEv', symObjAddr: 0x5050, symBinAddr: 0xB220, symSize: 0x70 }
  - { offset: 0x1246B, size: 0x8, addend: 0x0, symName: '__ZNKSt3__110__function6__funcIZNK6Pubnub7Channel10get_typingENS_8functionIFvNS2_6VectorINS2_6StringEEEEEEE3$_0NS_9allocatorISA_EEFvRKNS_6vectorIS6_NSB_IS6_EEEEEE7__cloneEPNS0_6__baseISI_EE', symObjAddr: 0x50C0, symBinAddr: 0xB290, symSize: 0x70 }
  - { offset: 0x12547, size: 0x8, addend: 0x0, symName: '__ZNSt3__110__function6__funcIZNK6Pubnub7Channel10get_typingENS_8functionIFvNS2_6VectorINS2_6StringEEEEEEE3$_0NS_9allocatorISA_EEFvRKNS_6vectorIS6_NSB_IS6_EEEEEE7destroyEv', symObjAddr: 0x5130, symBinAddr: 0xB300, symSize: 0x40 }
  - { offset: 0x125F4, size: 0x8, addend: 0x0, symName: '__ZNSt3__110__function6__funcIZNK6Pubnub7Channel10get_typingENS_8functionIFvNS2_6VectorINS2_6StringEEEEEEE3$_0NS_9allocatorISA_EEFvRKNS_6vectorIS6_NSB_IS6_EEEEEE18destroy_deallocateEv', symObjAddr: 0x5170, symBinAddr: 0xB340, symSize: 0x40 }
  - { offset: 0x12772, size: 0x8, addend: 0x0, symName: '__ZNSt3__110__function6__funcIZNK6Pubnub7Channel10get_typingENS_8functionIFvNS2_6VectorINS2_6StringEEEEEEE3$_0NS_9allocatorISA_EEFvRKNS_6vectorIS6_NSB_IS6_EEEEEEclESH_', symObjAddr: 0x51B0, symBinAddr: 0xB380, symSize: 0x260 }
  - { offset: 0x12B68, size: 0x8, addend: 0x0, symName: __ZNSt3__16vectorIN6Pubnub6StringENS_9allocatorIS2_EEE16__init_with_sizeB8ne180100IPS2_S7_EEvT_T0_m, symObjAddr: 0x54B0, symBinAddr: 0xB680, symSize: 0x100 }
  - { offset: 0x12DA6, size: 0x8, addend: 0x0, symName: __ZNSt3__125__throw_bad_function_callB8ne180100Ev, symObjAddr: 0x5440, symBinAddr: 0xB610, symSize: 0x40 }
  - { offset: 0x12DED, size: 0x8, addend: 0x0, symName: '__ZNKSt3__110__function6__funcIZNK6Pubnub7Channel10get_typingENS_8functionIFvNS2_6VectorINS2_6StringEEEEEEE3$_0NS_9allocatorISA_EEFvRKNS_6vectorIS6_NSB_IS6_EEEEEE6targetERKSt9type_info', symObjAddr: 0x5410, symBinAddr: 0xB5E0, symSize: 0x20 }
  - { offset: 0x12E2A, size: 0x8, addend: 0x0, symName: '__ZNKSt3__110__function6__funcIZNK6Pubnub7Channel10get_typingENS_8functionIFvNS2_6VectorINS2_6StringEEEEEEE3$_0NS_9allocatorISA_EEFvRKNS_6vectorIS6_NSB_IS6_EEEEEE11target_typeEv', symObjAddr: 0x5430, symBinAddr: 0xB600, symSize: 0x10 }
  - { offset: 0x12E4D, size: 0x8, addend: 0x0, symName: __ZNSt3__117bad_function_callD1Ev, symObjAddr: 0x5480, symBinAddr: 0xB650, symSize: 0x10 }
  - { offset: 0x12E79, size: 0x8, addend: 0x0, symName: __ZNSt3__117bad_function_callD0Ev, symObjAddr: 0x5490, symBinAddr: 0xB660, symSize: 0x20 }
  - { offset: 0x12F2C, size: 0x8, addend: 0x0, symName: __ZNKSt3__16vectorIN6Pubnub6StringENS_9allocatorIS2_EEE20__throw_length_errorB8ne180100Ev, symObjAddr: 0x5620, symBinAddr: 0xB7F0, symSize: 0x10 }
  - { offset: 0x12F41, size: 0x8, addend: 0x0, symName: __ZNSt3__110__function6__funcINS_8functionIFvRKN6Pubnub7ChannelEEEENS_9allocatorIS8_EEFvS4_EED1Ev, symObjAddr: 0x5630, symBinAddr: 0xB800, symSize: 0x50 }
  - { offset: 0x12F4B, size: 0x8, addend: 0x0, symName: __ZNSt3__128__exception_guard_exceptionsINS_6vectorIN6Pubnub6StringENS_9allocatorIS3_EEE16__destroy_vectorEED1B8ne180100Ev, symObjAddr: 0x55B0, symBinAddr: 0xB780, symSize: 0x70 }
  - { offset: 0x1305C, size: 0x8, addend: 0x0, symName: __ZNSt3__110__function6__funcINS_8functionIFvRKN6Pubnub7ChannelEEEENS_9allocatorIS8_EEFvS4_EED1Ev, symObjAddr: 0x5630, symBinAddr: 0xB800, symSize: 0x50 }
  - { offset: 0x13116, size: 0x8, addend: 0x0, symName: __ZNSt3__110__function6__funcINS_8functionIFvRKN6Pubnub7ChannelEEEENS_9allocatorIS8_EEFvS4_EED0Ev, symObjAddr: 0x5680, symBinAddr: 0xB850, symSize: 0x50 }
  - { offset: 0x1326A, size: 0x8, addend: 0x0, symName: __ZNKSt3__110__function6__funcINS_8functionIFvRKN6Pubnub7ChannelEEEENS_9allocatorIS8_EEFvS4_EE7__cloneEv, symObjAddr: 0x56D0, symBinAddr: 0xB8A0, symSize: 0x80 }
  - { offset: 0x1344B, size: 0x8, addend: 0x0, symName: __ZNKSt3__110__function6__funcINS_8functionIFvRKN6Pubnub7ChannelEEEENS_9allocatorIS8_EEFvS4_EE7__cloneEPNS0_6__baseISB_EE, symObjAddr: 0x5750, symBinAddr: 0xB920, symSize: 0x70 }
  - { offset: 0x1350D, size: 0x8, addend: 0x0, symName: __ZNSt3__110__function6__funcINS_8functionIFvRKN6Pubnub7ChannelEEEENS_9allocatorIS8_EEFvS4_EE7destroyEv, symObjAddr: 0x57C0, symBinAddr: 0xB990, symSize: 0x40 }
  - { offset: 0x135A0, size: 0x8, addend: 0x0, symName: __ZNSt3__110__function6__funcINS_8functionIFvRKN6Pubnub7ChannelEEEENS_9allocatorIS8_EEFvS4_EE18destroy_deallocateEv, symObjAddr: 0x5800, symBinAddr: 0xB9D0, symSize: 0x40 }
  - { offset: 0x136DC, size: 0x8, addend: 0x0, symName: __ZNSt3__110__function6__funcINS_8functionIFvRKN6Pubnub7ChannelEEEENS_9allocatorIS8_EEFvS4_EEclEOS4_, symObjAddr: 0x5840, symBinAddr: 0xBA10, symSize: 0x20 }
  - { offset: 0x13772, size: 0x8, addend: 0x0, symName: __ZNKSt3__110__function6__funcINS_8functionIFvRKN6Pubnub7ChannelEEEENS_9allocatorIS8_EEFvS4_EE6targetERKSt9type_info, symObjAddr: 0x5860, symBinAddr: 0xBA30, symSize: 0x20 }
  - { offset: 0x137AF, size: 0x8, addend: 0x0, symName: __ZNKSt3__110__function6__funcINS_8functionIFvRKN6Pubnub7ChannelEEEENS_9allocatorIS8_EEFvS4_EE11target_typeEv, symObjAddr: 0x5880, symBinAddr: 0xBA50, symSize: 0x10 }
  - { offset: 0x13838, size: 0x8, addend: 0x0, symName: __ZNKSt3__16vectorIN6Pubnub7ChannelENS_9allocatorIS2_EEE20__throw_length_errorB8ne180100Ev, symObjAddr: 0x5A00, symBinAddr: 0xBBD0, symSize: 0x10 }
  - { offset: 0x1384D, size: 0x8, addend: 0x0, symName: '__ZNSt3__110__function6__funcIZN6Pubnub7Channel17stream_updates_onENS2_6VectorIS3_EENS_8functionIFvS5_EEEE3$_0NS_9allocatorIS9_EEFvNS_6vectorIS3_NSA_IS3_EEEEEED1Ev', symObjAddr: 0x5A10, symBinAddr: 0xBBE0, symSize: 0x40 }
  - { offset: 0x13857, size: 0x8, addend: 0x0, symName: __ZNSt3__128__exception_guard_exceptionsINS_6vectorIN6Pubnub7ChannelENS_9allocatorIS3_EEE16__destroy_vectorEED1B8ne180100Ev, symObjAddr: 0x5990, symBinAddr: 0xBB60, symSize: 0x70 }
  - { offset: 0x13973, size: 0x8, addend: 0x0, symName: '__ZNSt3__110__function6__funcIZN6Pubnub7Channel17stream_updates_onENS2_6VectorIS3_EENS_8functionIFvS5_EEEE3$_0NS_9allocatorIS9_EEFvNS_6vectorIS3_NSA_IS3_EEEEEED1Ev', symObjAddr: 0x5A10, symBinAddr: 0xBBE0, symSize: 0x40 }
  - { offset: 0x13A47, size: 0x8, addend: 0x0, symName: '__ZNSt3__110__function6__funcIZN6Pubnub7Channel17stream_updates_onENS2_6VectorIS3_EENS_8functionIFvS5_EEEE3$_0NS_9allocatorIS9_EEFvNS_6vectorIS3_NSA_IS3_EEEEEED0Ev', symObjAddr: 0x5A50, symBinAddr: 0xBC20, symSize: 0x50 }
  - { offset: 0x13BC5, size: 0x8, addend: 0x0, symName: '__ZNKSt3__110__function6__funcIZN6Pubnub7Channel17stream_updates_onENS2_6VectorIS3_EENS_8functionIFvS5_EEEE3$_0NS_9allocatorIS9_EEFvNS_6vectorIS3_NSA_IS3_EEEEEE7__cloneEv', symObjAddr: 0x5AA0, symBinAddr: 0xBC70, symSize: 0x70 }
  - { offset: 0x13DC0, size: 0x8, addend: 0x0, symName: '__ZNKSt3__110__function6__funcIZN6Pubnub7Channel17stream_updates_onENS2_6VectorIS3_EENS_8functionIFvS5_EEEE3$_0NS_9allocatorIS9_EEFvNS_6vectorIS3_NSA_IS3_EEEEEE7__cloneEPNS0_6__baseISF_EE', symObjAddr: 0x5B10, symBinAddr: 0xBCE0, symSize: 0x70 }
  - { offset: 0x13E9C, size: 0x8, addend: 0x0, symName: '__ZNSt3__110__function6__funcIZN6Pubnub7Channel17stream_updates_onENS2_6VectorIS3_EENS_8functionIFvS5_EEEE3$_0NS_9allocatorIS9_EEFvNS_6vectorIS3_NSA_IS3_EEEEEE7destroyEv', symObjAddr: 0x5B80, symBinAddr: 0xBD50, symSize: 0x40 }
  - { offset: 0x13F49, size: 0x8, addend: 0x0, symName: '__ZNSt3__110__function6__funcIZN6Pubnub7Channel17stream_updates_onENS2_6VectorIS3_EENS_8functionIFvS5_EEEE3$_0NS_9allocatorIS9_EEFvNS_6vectorIS3_NSA_IS3_EEEEEE18destroy_deallocateEv', symObjAddr: 0x5BC0, symBinAddr: 0xBD90, symSize: 0x40 }
  - { offset: 0x14109, size: 0x8, addend: 0x0, symName: '__ZNSt3__110__function6__funcIZN6Pubnub7Channel17stream_updates_onENS2_6VectorIS3_EENS_8functionIFvS5_EEEE3$_0NS_9allocatorIS9_EEFvNS_6vectorIS3_NSA_IS3_EEEEEEclEOSE_', symObjAddr: 0x5C00, symBinAddr: 0xBDD0, symSize: 0x240 }
  - { offset: 0x1450C, size: 0x8, addend: 0x0, symName: '__ZNKSt3__110__function6__funcIZN6Pubnub7Channel17stream_updates_onENS2_6VectorIS3_EENS_8functionIFvS5_EEEE3$_0NS_9allocatorIS9_EEFvNS_6vectorIS3_NSA_IS3_EEEEEE6targetERKSt9type_info', symObjAddr: 0x5E40, symBinAddr: 0xC010, symSize: 0x20 }
  - { offset: 0x14549, size: 0x8, addend: 0x0, symName: '__ZNKSt3__110__function6__funcIZN6Pubnub7Channel17stream_updates_onENS2_6VectorIS3_EENS_8functionIFvS5_EEEE3$_0NS_9allocatorIS9_EEFvNS_6vectorIS3_NSA_IS3_EEEEEE11target_typeEv', symObjAddr: 0x5E60, symBinAddr: 0xC030, symSize: 0x10 }
  - { offset: 0x1457E, size: 0x8, addend: 0x0, symName: '__ZNSt3__110__function6__funcIZNK6Pubnub7Channel15stream_presenceENS_8functionIFvNS2_6VectorINS2_6StringEEEEEEE3$_0NS_9allocatorISA_EEFvRKNS_6vectorIS6_NSB_IS6_EEEEEED1Ev', symObjAddr: 0x5E70, symBinAddr: 0xC040, symSize: 0x40 }
  - { offset: 0x14652, size: 0x8, addend: 0x0, symName: '__ZNSt3__110__function6__funcIZNK6Pubnub7Channel15stream_presenceENS_8functionIFvNS2_6VectorINS2_6StringEEEEEEE3$_0NS_9allocatorISA_EEFvRKNS_6vectorIS6_NSB_IS6_EEEEEED0Ev', symObjAddr: 0x5EB0, symBinAddr: 0xC080, symSize: 0x50 }
  - { offset: 0x147D0, size: 0x8, addend: 0x0, symName: '__ZNKSt3__110__function6__funcIZNK6Pubnub7Channel15stream_presenceENS_8functionIFvNS2_6VectorINS2_6StringEEEEEEE3$_0NS_9allocatorISA_EEFvRKNS_6vectorIS6_NSB_IS6_EEEEEE7__cloneEv', symObjAddr: 0x5F00, symBinAddr: 0xC0D0, symSize: 0x70 }
  - { offset: 0x149CB, size: 0x8, addend: 0x0, symName: '__ZNKSt3__110__function6__funcIZNK6Pubnub7Channel15stream_presenceENS_8functionIFvNS2_6VectorINS2_6StringEEEEEEE3$_0NS_9allocatorISA_EEFvRKNS_6vectorIS6_NSB_IS6_EEEEEE7__cloneEPNS0_6__baseISI_EE', symObjAddr: 0x5F70, symBinAddr: 0xC140, symSize: 0x70 }
  - { offset: 0x14AA7, size: 0x8, addend: 0x0, symName: '__ZNSt3__110__function6__funcIZNK6Pubnub7Channel15stream_presenceENS_8functionIFvNS2_6VectorINS2_6StringEEEEEEE3$_0NS_9allocatorISA_EEFvRKNS_6vectorIS6_NSB_IS6_EEEEEE7destroyEv', symObjAddr: 0x5FE0, symBinAddr: 0xC1B0, symSize: 0x40 }
  - { offset: 0x14B54, size: 0x8, addend: 0x0, symName: '__ZNSt3__110__function6__funcIZNK6Pubnub7Channel15stream_presenceENS_8functionIFvNS2_6VectorINS2_6StringEEEEEEE3$_0NS_9allocatorISA_EEFvRKNS_6vectorIS6_NSB_IS6_EEEEEE18destroy_deallocateEv', symObjAddr: 0x6020, symBinAddr: 0xC1F0, symSize: 0x40 }
  - { offset: 0x14CB4, size: 0x8, addend: 0x0, symName: '__ZNSt3__110__function6__funcIZNK6Pubnub7Channel15stream_presenceENS_8functionIFvNS2_6VectorINS2_6StringEEEEEEE3$_0NS_9allocatorISA_EEFvRKNS_6vectorIS6_NSB_IS6_EEEEEEclESH_', symObjAddr: 0x6060, symBinAddr: 0xC230, symSize: 0x260 }
  - { offset: 0x150AA, size: 0x8, addend: 0x0, symName: '__ZNKSt3__110__function6__funcIZNK6Pubnub7Channel15stream_presenceENS_8functionIFvNS2_6VectorINS2_6StringEEEEEEE3$_0NS_9allocatorISA_EEFvRKNS_6vectorIS6_NSB_IS6_EEEEEE6targetERKSt9type_info', symObjAddr: 0x62C0, symBinAddr: 0xC490, symSize: 0x20 }
  - { offset: 0x150E7, size: 0x8, addend: 0x0, symName: '__ZNKSt3__110__function6__funcIZNK6Pubnub7Channel15stream_presenceENS_8functionIFvNS2_6VectorINS2_6StringEEEEEEE3$_0NS_9allocatorISA_EEFvRKNS_6vectorIS6_NSB_IS6_EEEEEE11target_typeEv', symObjAddr: 0x62E0, symBinAddr: 0xC4B0, symSize: 0x10 }
  - { offset: 0x1511C, size: 0x8, addend: 0x0, symName: '__ZNSt3__110__function6__funcIZNK6Pubnub7Channel20stream_read_receiptsENS_8functionIFvNS2_3MapINS2_6StringENS2_6VectorIS6_EENS2_14StringComparerEEEEEEE3$_0NS_9allocatorISD_EEFvNS_3mapIS6_NS_6vectorIS6_NSE_IS6_EEEES9_NSE_INS_4pairIKS6_SJ_EEEEEEEED1Ev', symObjAddr: 0x62F0, symBinAddr: 0xC4C0, symSize: 0x40 }
  - { offset: 0x151F0, size: 0x8, addend: 0x0, symName: '__ZNSt3__110__function6__funcIZNK6Pubnub7Channel20stream_read_receiptsENS_8functionIFvNS2_3MapINS2_6StringENS2_6VectorIS6_EENS2_14StringComparerEEEEEEE3$_0NS_9allocatorISD_EEFvNS_3mapIS6_NS_6vectorIS6_NSE_IS6_EEEES9_NSE_INS_4pairIKS6_SJ_EEEEEEEED0Ev', symObjAddr: 0x6330, symBinAddr: 0xC500, symSize: 0x50 }
  - { offset: 0x1536E, size: 0x8, addend: 0x0, symName: '__ZNKSt3__110__function6__funcIZNK6Pubnub7Channel20stream_read_receiptsENS_8functionIFvNS2_3MapINS2_6StringENS2_6VectorIS6_EENS2_14StringComparerEEEEEEE3$_0NS_9allocatorISD_EEFvNS_3mapIS6_NS_6vectorIS6_NSE_IS6_EEEES9_NSE_INS_4pairIKS6_SJ_EEEEEEEE7__cloneEv', symObjAddr: 0x6380, symBinAddr: 0xC550, symSize: 0x70 }
  - { offset: 0x15569, size: 0x8, addend: 0x0, symName: '__ZNKSt3__110__function6__funcIZNK6Pubnub7Channel20stream_read_receiptsENS_8functionIFvNS2_3MapINS2_6StringENS2_6VectorIS6_EENS2_14StringComparerEEEEEEE3$_0NS_9allocatorISD_EEFvNS_3mapIS6_NS_6vectorIS6_NSE_IS6_EEEES9_NSE_INS_4pairIKS6_SJ_EEEEEEEE7__cloneEPNS0_6__baseISP_EE', symObjAddr: 0x63F0, symBinAddr: 0xC5C0, symSize: 0x70 }
  - { offset: 0x15645, size: 0x8, addend: 0x0, symName: '__ZNSt3__110__function6__funcIZNK6Pubnub7Channel20stream_read_receiptsENS_8functionIFvNS2_3MapINS2_6StringENS2_6VectorIS6_EENS2_14StringComparerEEEEEEE3$_0NS_9allocatorISD_EEFvNS_3mapIS6_NS_6vectorIS6_NSE_IS6_EEEES9_NSE_INS_4pairIKS6_SJ_EEEEEEEE7destroyEv', symObjAddr: 0x6460, symBinAddr: 0xC630, symSize: 0x40 }
  - { offset: 0x156F2, size: 0x8, addend: 0x0, symName: '__ZNSt3__110__function6__funcIZNK6Pubnub7Channel20stream_read_receiptsENS_8functionIFvNS2_3MapINS2_6StringENS2_6VectorIS6_EENS2_14StringComparerEEEEEEE3$_0NS_9allocatorISD_EEFvNS_3mapIS6_NS_6vectorIS6_NSE_IS6_EEEES9_NSE_INS_4pairIKS6_SJ_EEEEEEEE18destroy_deallocateEv', symObjAddr: 0x64A0, symBinAddr: 0xC670, symSize: 0x40 }
  - { offset: 0x159E4, size: 0x8, addend: 0x0, symName: '__ZNSt3__110__function6__funcIZNK6Pubnub7Channel20stream_read_receiptsENS_8functionIFvNS2_3MapINS2_6StringENS2_6VectorIS6_EENS2_14StringComparerEEEEEEE3$_0NS_9allocatorISD_EEFvNS_3mapIS6_NS_6vectorIS6_NSE_IS6_EEEES9_NSE_INS_4pairIKS6_SJ_EEEEEEEEclEOSO_', symObjAddr: 0x64E0, symBinAddr: 0xC6B0, symSize: 0x660 }
  - { offset: 0x16575, size: 0x8, addend: 0x0, symName: __ZNSt3__16__treeINS_12__value_typeIN6Pubnub6StringENS2_6VectorIS3_EEEENS_19__map_value_compareIS3_S6_NS2_14StringComparerELb1EEENS_9allocatorIS6_EEE25__emplace_unique_key_argsIS3_JRKNS_21piecewise_construct_tENS_5tupleIJRKS3_EEENSH_IJEEEEEENS_4pairINS_15__tree_iteratorIS6_PNS_11__tree_nodeIS6_PvEElEEbEERKT_DpOT0_, symObjAddr: 0x6B70, symBinAddr: 0xCD40, symSize: 0x110 }
  - { offset: 0x167EB, size: 0x8, addend: 0x0, symName: __ZNSt3__13mapIN6Pubnub6StringENS1_6VectorIS2_EENS1_14StringComparerENS_9allocatorINS_4pairIKS2_S4_EEEEE6insertB8ne180100INS_20__map_const_iteratorINS_21__tree_const_iteratorINS_12__value_typeIS2_S4_EEPNS_11__tree_nodeISG_PvEElEEEEEEvT_SN_, symObjAddr: 0x6D80, symBinAddr: 0xCF50, symSize: 0x110 }
  - { offset: 0x1691E, size: 0x8, addend: 0x0, symName: __ZNSt3__16__treeINS_12__value_typeIN6Pubnub6StringENS2_6VectorIS3_EEEENS_19__map_value_compareIS3_S6_NS2_14StringComparerELb1EEENS_9allocatorIS6_EEE7destroyEPNS_11__tree_nodeIS6_PvEE, symObjAddr: 0x7200, symBinAddr: 0xD3D0, symSize: 0x50 }
  - { offset: 0x16A42, size: 0x8, addend: 0x0, symName: __ZN6Pubnub6VectorINS0_INS_6StringEEEEC1ERKS3_, symObjAddr: 0x7460, symBinAddr: 0xD630, symSize: 0x120 }
  - { offset: 0x16B68, size: 0x8, addend: 0x0, symName: __ZNSt3__16__treeINS_12__value_typeIN6Pubnub6StringENS_6vectorIS3_NS_9allocatorIS3_EEEEEENS_19__map_value_compareIS3_S8_NS2_14StringComparerELb1EEENS5_IS8_EEE7destroyEPNS_11__tree_nodeIS8_PvEE, symObjAddr: 0x7580, symBinAddr: 0xD750, symSize: 0x90 }
  - { offset: 0x16D4A, size: 0x8, addend: 0x0, symName: __ZN6Pubnub6VectorINS0_INS_6StringEEEE9push_backERKS2_, symObjAddr: 0x7250, symBinAddr: 0xD420, symSize: 0xE0 }
  - { offset: 0x16DEC, size: 0x8, addend: 0x0, symName: '__ZNKSt3__110__function6__funcIZNK6Pubnub7Channel20stream_read_receiptsENS_8functionIFvNS2_3MapINS2_6StringENS2_6VectorIS6_EENS2_14StringComparerEEEEEEE3$_0NS_9allocatorISD_EEFvNS_3mapIS6_NS_6vectorIS6_NSE_IS6_EEEES9_NSE_INS_4pairIKS6_SJ_EEEEEEEE6targetERKSt9type_info', symObjAddr: 0x6B40, symBinAddr: 0xCD10, symSize: 0x20 }
  - { offset: 0x16E29, size: 0x8, addend: 0x0, symName: '__ZNKSt3__110__function6__funcIZNK6Pubnub7Channel20stream_read_receiptsENS_8functionIFvNS2_3MapINS2_6StringENS2_6VectorIS6_EENS2_14StringComparerEEEEEEE3$_0NS_9allocatorISD_EEFvNS_3mapIS6_NS_6vectorIS6_NSE_IS6_EEEES9_NSE_INS_4pairIKS6_SJ_EEEEEEEE11target_typeEv', symObjAddr: 0x6B60, symBinAddr: 0xCD30, symSize: 0x10 }
  - { offset: 0x16EAC, size: 0x8, addend: 0x0, symName: __ZNK6Pubnub14StringComparerclERKNS_6StringES3_, symObjAddr: 0x6CD0, symBinAddr: 0xCEA0, symSize: 0xB0 }
  - { offset: 0x16ED5, size: 0x8, addend: 0x0, symName: __ZNSt3__110unique_ptrINS_11__tree_nodeINS_12__value_typeIN6Pubnub6StringENS3_6VectorIS4_EEEEPvEENS_22__tree_node_destructorINS_9allocatorIS9_EEEEED1B8ne180100Ev, symObjAddr: 0x6C80, symBinAddr: 0xCE50, symSize: 0x50 }
  - { offset: 0x17061, size: 0x8, addend: 0x0, symName: __ZNSt3__16__treeINS_12__value_typeIN6Pubnub6StringENS2_6VectorIS3_EEEENS_19__map_value_compareIS3_S6_NS2_14StringComparerELb1EEENS_9allocatorIS6_EEE12__find_equalIS3_EERPNS_16__tree_node_baseIPvEENS_21__tree_const_iteratorIS6_PNS_11__tree_nodeIS6_SF_EElEERPNS_15__tree_end_nodeISH_EESI_RKT_, symObjAddr: 0x6E90, symBinAddr: 0xD060, symSize: 0x270 }
  - { offset: 0x1736E, size: 0x8, addend: 0x0, symName: __ZNSt3__16__treeINS_12__value_typeIN6Pubnub6StringENS2_6VectorIS3_EEEENS_19__map_value_compareIS3_S6_NS2_14StringComparerELb1EEENS_9allocatorIS6_EEE16__construct_nodeIJRKNS_4pairIKS3_S5_EEEEENS_10unique_ptrINS_11__tree_nodeIS6_PvEENS_22__tree_node_destructorINSA_ISM_EEEEEEDpOT_, symObjAddr: 0x7100, symBinAddr: 0xD2D0, symSize: 0x100 }
  - { offset: 0x17629, size: 0x8, addend: 0x0, symName: __ZN6Pubnub6VectorINS0_INS_6StringEEEE7reserveEm, symObjAddr: 0x7330, symBinAddr: 0xD500, symSize: 0x130 }
  - { offset: 0x1772E, size: 0x8, addend: 0x0, symName: '__ZNSt3__110__function6__funcIZNK6Pubnub7Channel22stream_message_reportsENS_8functionIFvRKNS2_5EventEEEEE3$_0NS_9allocatorISA_EEFvS5_EED1Ev', symObjAddr: 0x7780, symBinAddr: 0xD7E0, symSize: 0x40 }
  - { offset: 0x17804, size: 0x8, addend: 0x0, symName: '__ZNSt3__110__function6__funcIZNK6Pubnub7Channel22stream_message_reportsENS_8functionIFvRKNS2_5EventEEEEE3$_0NS_9allocatorISA_EEFvS5_EED0Ev', symObjAddr: 0x77C0, symBinAddr: 0xD820, symSize: 0x50 }
  - { offset: 0x17984, size: 0x8, addend: 0x0, symName: '__ZNKSt3__110__function6__funcIZNK6Pubnub7Channel22stream_message_reportsENS_8functionIFvRKNS2_5EventEEEEE3$_0NS_9allocatorISA_EEFvS5_EE7__cloneEv', symObjAddr: 0x7810, symBinAddr: 0xD870, symSize: 0x70 }
  - { offset: 0x17B81, size: 0x8, addend: 0x0, symName: '__ZNKSt3__110__function6__funcIZNK6Pubnub7Channel22stream_message_reportsENS_8functionIFvRKNS2_5EventEEEEE3$_0NS_9allocatorISA_EEFvS5_EE7__cloneEPNS0_6__baseISD_EE', symObjAddr: 0x7880, symBinAddr: 0xD8E0, symSize: 0x70 }
  - { offset: 0x17C5F, size: 0x8, addend: 0x0, symName: '__ZNSt3__110__function6__funcIZNK6Pubnub7Channel22stream_message_reportsENS_8functionIFvRKNS2_5EventEEEEE3$_0NS_9allocatorISA_EEFvS5_EE7destroyEv', symObjAddr: 0x78F0, symBinAddr: 0xD950, symSize: 0x40 }
  - { offset: 0x17D0E, size: 0x8, addend: 0x0, symName: '__ZNSt3__110__function6__funcIZNK6Pubnub7Channel22stream_message_reportsENS_8functionIFvRKNS2_5EventEEEEE3$_0NS_9allocatorISA_EEFvS5_EE18destroy_deallocateEv', symObjAddr: 0x7930, symBinAddr: 0xD990, symSize: 0x40 }
  - { offset: 0x17E7C, size: 0x8, addend: 0x0, symName: '__ZNSt3__110__function6__funcIZNK6Pubnub7Channel22stream_message_reportsENS_8functionIFvRKNS2_5EventEEEEE3$_0NS_9allocatorISA_EEFvS5_EEclEOS5_', symObjAddr: 0x7970, symBinAddr: 0xD9D0, symSize: 0x20 }
  - { offset: 0x17F28, size: 0x8, addend: 0x0, symName: '__ZNKSt3__110__function6__funcIZNK6Pubnub7Channel22stream_message_reportsENS_8functionIFvRKNS2_5EventEEEEE3$_0NS_9allocatorISA_EEFvS5_EE6targetERKSt9type_info', symObjAddr: 0x7990, symBinAddr: 0xD9F0, symSize: 0x20 }
  - { offset: 0x17F65, size: 0x8, addend: 0x0, symName: '__ZNKSt3__110__function6__funcIZNK6Pubnub7Channel22stream_message_reportsENS_8functionIFvRKNS2_5EventEEEEE3$_0NS_9allocatorISA_EEFvS5_EE11target_typeEv', symObjAddr: 0x79B0, symBinAddr: 0xDA10, symSize: 0xD }
  - { offset: 0x17FB5, size: 0x8, addend: 0x0, symName: __ZN6Pubnub4UserC2Ev, symObjAddr: 0x0, symBinAddr: 0xDA20, symSize: 0x40 }
  - { offset: 0x17FF7, size: 0x8, addend: 0x0, symName: __ZN6Pubnub4UserC1Ev, symObjAddr: 0x40, symBinAddr: 0xDA60, symSize: 0x40 }
  - { offset: 0x180BA, size: 0x8, addend: 0x0, symName: __ZN6Pubnub4UserC2ENS_6StringENSt3__110shared_ptrIK11ChatServiceEENS3_IK11UserServiceEENS3_IK15PresenceServiceEENS3_IK19RestrictionsServiceEENS3_IK17MembershipServiceEENS2_10unique_ptrI7UserDAONS2_14default_deleteISK_EEEE, symObjAddr: 0x80, symBinAddr: 0xDAA0, symSize: 0xC0 }
  - { offset: 0x18360, size: 0x8, addend: 0x0, symName: __ZN6Pubnub4UserC1ENS_6StringENSt3__110shared_ptrIK11ChatServiceEENS3_IK11UserServiceEENS3_IK15PresenceServiceEENS3_IK19RestrictionsServiceEENS3_IK17MembershipServiceEENS2_10unique_ptrI7UserDAONS2_14default_deleteISK_EEEE, symObjAddr: 0x140, symBinAddr: 0xDB60, symSize: 0xC0 }
  - { offset: 0x1864B, size: 0x8, addend: 0x0, symName: __ZN6Pubnub4UserC2ERKS0_, symObjAddr: 0x200, symBinAddr: 0xDC20, symSize: 0x150 }
  - { offset: 0x1893D, size: 0x8, addend: 0x0, symName: __ZN6Pubnub4UserC1ERKS0_, symObjAddr: 0x3A0, symBinAddr: 0xDD70, symSize: 0x10 }
  - { offset: 0x18A1C, size: 0x8, addend: 0x0, symName: __ZN6Pubnub4UseraSERKS0_, symObjAddr: 0x3B0, symBinAddr: 0xDD80, symSize: 0x250 }
  - { offset: 0x1910B, size: 0x8, addend: 0x0, symName: __ZNSt3__110unique_ptrI7UserDAONS_14default_deleteIS1_EEE5resetB8ne180100EPS1_, symObjAddr: 0x1870, symBinAddr: 0xEF40, symSize: 0x70 }
  - { offset: 0x19186, size: 0x8, addend: 0x0, symName: __ZN6Pubnub4UserD2Ev, symObjAddr: 0x600, symBinAddr: 0xDFD0, symSize: 0x120 }
  - { offset: 0x193B7, size: 0x8, addend: 0x0, symName: __ZN6Pubnub4UserD1Ev, symObjAddr: 0x720, symBinAddr: 0xE0F0, symSize: 0x10 }
  - { offset: 0x193D6, size: 0x8, addend: 0x0, symName: __ZNK6Pubnub4User7user_idEv, symObjAddr: 0x730, symBinAddr: 0xE100, symSize: 0x20 }
  - { offset: 0x193E7, size: 0x8, addend: 0x0, symName: __ZNK6Pubnub4User9user_dataEv, symObjAddr: 0x750, symBinAddr: 0xE120, symSize: 0x20 }
  - { offset: 0x1942B, size: 0x8, addend: 0x0, symName: __ZNK6Pubnub4User6updateERKNS_12ChatUserDataE, symObjAddr: 0x770, symBinAddr: 0xE140, symSize: 0xB0 }
  - { offset: 0x194D1, size: 0x8, addend: 0x0, symName: __ZNK6Pubnub4User11delete_userEv, symObjAddr: 0x870, symBinAddr: 0xE1F0, symSize: 0x20 }
  - { offset: 0x19581, size: 0x8, addend: 0x0, symName: __ZNK6Pubnub4User13where_presentEv, symObjAddr: 0x890, symBinAddr: 0xE210, symSize: 0xE0 }
  - { offset: 0x19832, size: 0x8, addend: 0x0, symName: __ZNK6Pubnub4User13is_present_onERKNS_6StringE, symObjAddr: 0x9E0, symBinAddr: 0xE2F0, symSize: 0x20 }
  - { offset: 0x1985E, size: 0x8, addend: 0x0, symName: __ZNK6Pubnub4User16set_restrictionsERKNS_6StringERKNS_11RestrictionE, symObjAddr: 0xA00, symBinAddr: 0xE310, symSize: 0x20 }
  - { offset: 0x198AE, size: 0x8, addend: 0x0, symName: __ZNK6Pubnub4User24get_channel_restrictionsERKNS_7ChannelE, symObjAddr: 0xA20, symBinAddr: 0xE330, symSize: 0x100 }
  - { offset: 0x19A41, size: 0x8, addend: 0x0, symName: __ZNK6Pubnub4User25get_channels_restrictionsERKNS_6StringEiRKNS_4PageE, symObjAddr: 0xB20, symBinAddr: 0xE430, symSize: 0x1C0 }
  - { offset: 0x19F54, size: 0x8, addend: 0x0, symName: __ZNK6Pubnub4User15get_membershipsERKNS_6StringES3_iRKNS_4PageE, symObjAddr: 0xD60, symBinAddr: 0xE5F0, symSize: 0x1E0 }
  - { offset: 0x1A48E, size: 0x8, addend: 0x0, symName: __ZNK6Pubnub4User14stream_updatesENSt3__18functionIFvRKS0_EEE, symObjAddr: 0xFC0, symBinAddr: 0xE7D0, symSize: 0x2F0 }
  - { offset: 0x1AAA4, size: 0x8, addend: 0x0, symName: __ZNK6Pubnub4User17stream_updates_onENS_6VectorIS0_EENSt3__18functionIFvS2_EEE, symObjAddr: 0x1330, symBinAddr: 0xEAC0, symSize: 0x440 }
  - { offset: 0x1B458, size: 0x8, addend: 0x0, symName: __ZNK6Pubnub4User6activeEv, symObjAddr: 0x1820, symBinAddr: 0xEF00, symSize: 0x20 }
  - { offset: 0x1B492, size: 0x8, addend: 0x0, symName: __ZNK6Pubnub4User21last_active_timestampEv, symObjAddr: 0x1840, symBinAddr: 0xEF20, symSize: 0x20 }
  - { offset: 0x1B50E, size: 0x8, addend: 0x0, symName: __ZNSt3__110__function6__funcINS_8functionIFvRKN6Pubnub4UserEEEENS_9allocatorIS8_EEFvS4_EED1Ev, symObjAddr: 0x1BE0, symBinAddr: 0xEFB0, symSize: 0x50 }
  - { offset: 0x1B5C8, size: 0x8, addend: 0x0, symName: __ZNSt3__110__function6__funcINS_8functionIFvRKN6Pubnub4UserEEEENS_9allocatorIS8_EEFvS4_EED0Ev, symObjAddr: 0x1C30, symBinAddr: 0xF000, symSize: 0x50 }
  - { offset: 0x1B71C, size: 0x8, addend: 0x0, symName: __ZNKSt3__110__function6__funcINS_8functionIFvRKN6Pubnub4UserEEEENS_9allocatorIS8_EEFvS4_EE7__cloneEv, symObjAddr: 0x1C80, symBinAddr: 0xF050, symSize: 0x80 }
  - { offset: 0x1B8FD, size: 0x8, addend: 0x0, symName: __ZNKSt3__110__function6__funcINS_8functionIFvRKN6Pubnub4UserEEEENS_9allocatorIS8_EEFvS4_EE7__cloneEPNS0_6__baseISB_EE, symObjAddr: 0x1D00, symBinAddr: 0xF0D0, symSize: 0x70 }
  - { offset: 0x1B9BF, size: 0x8, addend: 0x0, symName: __ZNSt3__110__function6__funcINS_8functionIFvRKN6Pubnub4UserEEEENS_9allocatorIS8_EEFvS4_EE7destroyEv, symObjAddr: 0x1D70, symBinAddr: 0xF140, symSize: 0x40 }
  - { offset: 0x1BA52, size: 0x8, addend: 0x0, symName: __ZNSt3__110__function6__funcINS_8functionIFvRKN6Pubnub4UserEEEENS_9allocatorIS8_EEFvS4_EE18destroy_deallocateEv, symObjAddr: 0x1DB0, symBinAddr: 0xF180, symSize: 0x40 }
  - { offset: 0x1BB8E, size: 0x8, addend: 0x0, symName: __ZNSt3__110__function6__funcINS_8functionIFvRKN6Pubnub4UserEEEENS_9allocatorIS8_EEFvS4_EEclEOS4_, symObjAddr: 0x1DF0, symBinAddr: 0xF1C0, symSize: 0x20 }
  - { offset: 0x1BC47, size: 0x8, addend: 0x0, symName: __ZNKSt3__110__function6__funcINS_8functionIFvRKN6Pubnub4UserEEEENS_9allocatorIS8_EEFvS4_EE6targetERKSt9type_info, symObjAddr: 0x1E10, symBinAddr: 0xF1E0, symSize: 0x20 }
  - { offset: 0x1BC84, size: 0x8, addend: 0x0, symName: __ZNKSt3__110__function6__funcINS_8functionIFvRKN6Pubnub4UserEEEENS_9allocatorIS8_EEFvS4_EE11target_typeEv, symObjAddr: 0x1E30, symBinAddr: 0xF200, symSize: 0x10 }
  - { offset: 0x1BE02, size: 0x8, addend: 0x0, symName: '__ZNSt3__110__function6__funcIZNK6Pubnub4User17stream_updates_onENS2_6VectorIS3_EENS_8functionIFvS5_EEEE3$_0NS_9allocatorIS9_EEFvNS_6vectorIS3_NSA_IS3_EEEEEED1Ev', symObjAddr: 0x20B0, symBinAddr: 0xF210, symSize: 0x40 }
  - { offset: 0x1BED6, size: 0x8, addend: 0x0, symName: '__ZNSt3__110__function6__funcIZNK6Pubnub4User17stream_updates_onENS2_6VectorIS3_EENS_8functionIFvS5_EEEE3$_0NS_9allocatorIS9_EEFvNS_6vectorIS3_NSA_IS3_EEEEEED0Ev', symObjAddr: 0x20F0, symBinAddr: 0xF250, symSize: 0x50 }
  - { offset: 0x1C054, size: 0x8, addend: 0x0, symName: '__ZNKSt3__110__function6__funcIZNK6Pubnub4User17stream_updates_onENS2_6VectorIS3_EENS_8functionIFvS5_EEEE3$_0NS_9allocatorIS9_EEFvNS_6vectorIS3_NSA_IS3_EEEEEE7__cloneEv', symObjAddr: 0x2140, symBinAddr: 0xF2A0, symSize: 0x70 }
  - { offset: 0x1C24F, size: 0x8, addend: 0x0, symName: '__ZNKSt3__110__function6__funcIZNK6Pubnub4User17stream_updates_onENS2_6VectorIS3_EENS_8functionIFvS5_EEEE3$_0NS_9allocatorIS9_EEFvNS_6vectorIS3_NSA_IS3_EEEEEE7__cloneEPNS0_6__baseISF_EE', symObjAddr: 0x21B0, symBinAddr: 0xF310, symSize: 0x70 }
  - { offset: 0x1C32B, size: 0x8, addend: 0x0, symName: '__ZNSt3__110__function6__funcIZNK6Pubnub4User17stream_updates_onENS2_6VectorIS3_EENS_8functionIFvS5_EEEE3$_0NS_9allocatorIS9_EEFvNS_6vectorIS3_NSA_IS3_EEEEEE7destroyEv', symObjAddr: 0x2220, symBinAddr: 0xF380, symSize: 0x40 }
  - { offset: 0x1C3D8, size: 0x8, addend: 0x0, symName: '__ZNSt3__110__function6__funcIZNK6Pubnub4User17stream_updates_onENS2_6VectorIS3_EENS_8functionIFvS5_EEEE3$_0NS_9allocatorIS9_EEFvNS_6vectorIS3_NSA_IS3_EEEEEE18destroy_deallocateEv', symObjAddr: 0x2260, symBinAddr: 0xF3C0, symSize: 0x40 }
  - { offset: 0x1C598, size: 0x8, addend: 0x0, symName: '__ZNSt3__110__function6__funcIZNK6Pubnub4User17stream_updates_onENS2_6VectorIS3_EENS_8functionIFvS5_EEEE3$_0NS_9allocatorIS9_EEFvNS_6vectorIS3_NSA_IS3_EEEEEEclEOSE_', symObjAddr: 0x22A0, symBinAddr: 0xF400, symSize: 0x230 }
  - { offset: 0x1C9B1, size: 0x8, addend: 0x0, symName: '__ZNKSt3__110__function6__funcIZNK6Pubnub4User17stream_updates_onENS2_6VectorIS3_EENS_8functionIFvS5_EEEE3$_0NS_9allocatorIS9_EEFvNS_6vectorIS3_NSA_IS3_EEEEEE6targetERKSt9type_info', symObjAddr: 0x24D0, symBinAddr: 0xF630, symSize: 0x20 }
  - { offset: 0x1C9EE, size: 0x8, addend: 0x0, symName: '__ZNKSt3__110__function6__funcIZNK6Pubnub4User17stream_updates_onENS2_6VectorIS3_EENS_8functionIFvS5_EEEE3$_0NS_9allocatorIS9_EEFvNS_6vectorIS3_NSA_IS3_EEEEEE11target_typeEv', symObjAddr: 0x24F0, symBinAddr: 0xF650, symSize: 0xD }
  - { offset: 0x1CA3E, size: 0x8, addend: 0x0, symName: __ZN6Pubnub7MessageC2Ev, symObjAddr: 0x0, symBinAddr: 0xF660, symSize: 0x40 }
  - { offset: 0x1CA80, size: 0x8, addend: 0x0, symName: __ZN6Pubnub7MessageC1Ev, symObjAddr: 0x40, symBinAddr: 0xF6A0, symSize: 0x40 }
  - { offset: 0x1CB37, size: 0x8, addend: 0x0, symName: __ZN6Pubnub7MessageC2ENS_6StringENSt3__110shared_ptrIK11ChatServiceEENS3_IK14MessageServiceEENS3_IK14ChannelServiceEENS3_IK19RestrictionsServiceEENS2_10unique_ptrI10MessageDAONS2_14default_deleteISH_EEEE, symObjAddr: 0x80, symBinAddr: 0xF6E0, symSize: 0xB0 }
  - { offset: 0x1CD73, size: 0x8, addend: 0x0, symName: __ZN6Pubnub7MessageC1ENS_6StringENSt3__110shared_ptrIK11ChatServiceEENS3_IK14MessageServiceEENS3_IK14ChannelServiceEENS3_IK19RestrictionsServiceEENS2_10unique_ptrI10MessageDAONS2_14default_deleteISH_EEEE, symObjAddr: 0x130, symBinAddr: 0xF790, symSize: 0xB0 }
  - { offset: 0x1D000, size: 0x8, addend: 0x0, symName: __ZN6Pubnub7MessageC2ERKS0_, symObjAddr: 0x1E0, symBinAddr: 0xF840, symSize: 0x120 }
  - { offset: 0x1D2E5, size: 0x8, addend: 0x0, symName: __ZN6Pubnub7MessageC1ERKS0_, symObjAddr: 0x350, symBinAddr: 0xF960, symSize: 0x10 }
  - { offset: 0x1D3AC, size: 0x8, addend: 0x0, symName: __ZN6Pubnub7MessageaSERKS0_, symObjAddr: 0x360, symBinAddr: 0xF970, symSize: 0x1F0 }
  - { offset: 0x1DA3B, size: 0x8, addend: 0x0, symName: __ZN6Pubnub7MessageD2Ev, symObjAddr: 0x550, symBinAddr: 0xFB60, symSize: 0x100 }
  - { offset: 0x1DC37, size: 0x8, addend: 0x0, symName: __ZN6Pubnub7MessageD1Ev, symObjAddr: 0x650, symBinAddr: 0xFC60, symSize: 0x10 }
  - { offset: 0x1DC56, size: 0x8, addend: 0x0, symName: __ZNK6Pubnub7Message9timetokenEv, symObjAddr: 0x660, symBinAddr: 0xFC70, symSize: 0x20 }
  - { offset: 0x1DC67, size: 0x8, addend: 0x0, symName: __ZNK6Pubnub7Message12message_dataEv, symObjAddr: 0x680, symBinAddr: 0xFC90, symSize: 0x20 }
  - { offset: 0x1DC9F, size: 0x8, addend: 0x0, symName: __ZNK6Pubnub7Message9edit_textERKNS_6StringE, symObjAddr: 0x6A0, symBinAddr: 0xFCB0, symSize: 0x70 }
  - { offset: 0x1DCED, size: 0x8, addend: 0x0, symName: __ZNK6Pubnub7Message4textEv, symObjAddr: 0x710, symBinAddr: 0xFD20, symSize: 0x20 }
  - { offset: 0x1DD27, size: 0x8, addend: 0x0, symName: __ZNK6Pubnub7Message14delete_messageEv, symObjAddr: 0x730, symBinAddr: 0xFD40, symSize: 0x70 }
  - { offset: 0x1DD75, size: 0x8, addend: 0x0, symName: __ZNK6Pubnub7Message19delete_message_hardEv, symObjAddr: 0x7A0, symBinAddr: 0xFDB0, symSize: 0x20 }
  - { offset: 0x1DD9B, size: 0x8, addend: 0x0, symName: __ZNK6Pubnub7Message7deletedEv, symObjAddr: 0x7C0, symBinAddr: 0xFDD0, symSize: 0x20 }
  - { offset: 0x1DDD5, size: 0x8, addend: 0x0, symName: __ZNK6Pubnub7Message7restoreEv, symObjAddr: 0x7E0, symBinAddr: 0xFDF0, symSize: 0x70 }
  - { offset: 0x1DE29, size: 0x8, addend: 0x0, symName: __ZNK6Pubnub7Message4typeEv, symObjAddr: 0x850, symBinAddr: 0xFE60, symSize: 0x60 }
  - { offset: 0x1DECA, size: 0x8, addend: 0x0, symName: __ZNK6Pubnub7Message3pinEv, symObjAddr: 0x8B0, symBinAddr: 0xFEC0, symSize: 0xE0 }
  - { offset: 0x1DF8C, size: 0x8, addend: 0x0, symName: __ZNK6Pubnub7Message5unpinEv, symObjAddr: 0x990, symBinAddr: 0xFFA0, symSize: 0x190 }
  - { offset: 0x1E0C7, size: 0x8, addend: 0x0, symName: __ZNK6Pubnub7Message15toggle_reactionERKNS_6StringE, symObjAddr: 0xB20, symBinAddr: 0x10130, symSize: 0x70 }
  - { offset: 0x1E169, size: 0x8, addend: 0x0, symName: __ZNK6Pubnub7Message9reactionsEv, symObjAddr: 0xB90, symBinAddr: 0x101A0, symSize: 0xB0 }
  - { offset: 0x1E2DB, size: 0x8, addend: 0x0, symName: __ZN6Pubnub6VectorINS_13MessageActionEEC1EONSt3__16vectorIS1_NS3_9allocatorIS1_EEEE, symObjAddr: 0xC40, symBinAddr: 0x10250, symSize: 0x100 }
  - { offset: 0x1E3F8, size: 0x8, addend: 0x0, symName: __ZNSt3__16vectorIN6Pubnub13MessageActionENS_9allocatorIS2_EEED1B8ne180100Ev, symObjAddr: 0xD40, symBinAddr: 0x10350, symSize: 0x80 }
  - { offset: 0x1E54F, size: 0x8, addend: 0x0, symName: __ZN6Pubnub6VectorINS_13MessageActionEE7reserveEm, symObjAddr: 0x25B0, symBinAddr: 0x11790, symSize: 0xE0 }
  - { offset: 0x1E59B, size: 0x8, addend: 0x0, symName: __ZNK6Pubnub7Message17has_user_reactionERKNS_6StringE, symObjAddr: 0xDC0, symBinAddr: 0x103D0, symSize: 0x180 }
  - { offset: 0x1E7C7, size: 0x8, addend: 0x0, symName: __ZN6Pubnub13MessageActionD1Ev, symObjAddr: 0xF40, symBinAddr: 0x10550, symSize: 0x30 }
  - { offset: 0x1E7ED, size: 0x8, addend: 0x0, symName: __ZNK6Pubnub7Message7forwardERKNS_6StringE, symObjAddr: 0xF70, symBinAddr: 0x10580, symSize: 0x20 }
  - { offset: 0x1E819, size: 0x8, addend: 0x0, symName: __ZNK6Pubnub7Message6reportERKNS_6StringE, symObjAddr: 0xF90, symBinAddr: 0x105A0, symSize: 0x20 }
  - { offset: 0x1E935, size: 0x8, addend: 0x0, symName: __ZNK6Pubnub7Message14stream_updatesENSt3__18functionIFvRKS0_EEE, symObjAddr: 0xFB0, symBinAddr: 0x105C0, symSize: 0x2F0 }
  - { offset: 0x1EF4B, size: 0x8, addend: 0x0, symName: __ZNK6Pubnub7Message17stream_updates_onENS_6VectorIS0_EENSt3__18functionIFvS2_EEE, symObjAddr: 0x1320, symBinAddr: 0x108B0, symSize: 0x440 }
  - { offset: 0x1F6F4, size: 0x8, addend: 0x0, symName: __ZNSt3__16vectorIN6Pubnub7MessageENS_9allocatorIS2_EEE16__init_with_sizeB8ne180100IPS2_S7_EEvT_T0_m, symObjAddr: 0x29A0, symBinAddr: 0x11AD0, symSize: 0x100 }
  - { offset: 0x1FA33, size: 0x8, addend: 0x0, symName: __ZNK6Pubnub7Message13create_threadEv, symObjAddr: 0x1810, symBinAddr: 0x10CF0, symSize: 0x20 }
  - { offset: 0x1FA59, size: 0x8, addend: 0x0, symName: __ZNK6Pubnub7Message10get_threadEv, symObjAddr: 0x1830, symBinAddr: 0x10D10, symSize: 0x20 }
  - { offset: 0x1FA7F, size: 0x8, addend: 0x0, symName: __ZNK6Pubnub7Message10has_threadEv, symObjAddr: 0x1850, symBinAddr: 0x10D30, symSize: 0x20 }
  - { offset: 0x1FAA5, size: 0x8, addend: 0x0, symName: __ZNK6Pubnub7Message13remove_threadEv, symObjAddr: 0x1870, symBinAddr: 0x10D50, symSize: 0x20 }
  - { offset: 0x1FBF1, size: 0x8, addend: 0x0, symName: __ZNK6Pubnub7Message15mentioned_usersEv, symObjAddr: 0x1890, symBinAddr: 0x10D70, symSize: 0x2B0 }
  - { offset: 0x201B7, size: 0x8, addend: 0x0, symName: __ZNSt3__16vectorIN6Pubnub13MentionedUserENS_9allocatorIS2_EEE21__push_back_slow_pathIRKS2_EEPS2_OT_, symObjAddr: 0x2FF0, symBinAddr: 0x120A0, symSize: 0x240 }
  - { offset: 0x205DC, size: 0x8, addend: 0x0, symName: __ZN6Pubnub6VectorINS_13MentionedUserEE9push_backERKS1_, symObjAddr: 0x32A0, symBinAddr: 0x12340, symSize: 0x110 }
  - { offset: 0x206D8, size: 0x8, addend: 0x0, symName: __ZN13MessageEntityD1Ev, symObjAddr: 0x1B40, symBinAddr: 0x11020, symSize: 0xA0 }
  - { offset: 0x209A8, size: 0x8, addend: 0x0, symName: __ZNK6Pubnub7Message19referenced_channelsEv, symObjAddr: 0x1C60, symBinAddr: 0x110C0, symSize: 0x2B0 }
  - { offset: 0x20F6E, size: 0x8, addend: 0x0, symName: __ZNSt3__16vectorIN6Pubnub17ReferencedChannelENS_9allocatorIS2_EEE21__push_back_slow_pathIRKS2_EEPS2_OT_, symObjAddr: 0x33B0, symBinAddr: 0x12450, symSize: 0x240 }
  - { offset: 0x2155B, size: 0x8, addend: 0x0, symName: __ZNK6Pubnub7Message14quoted_messageEv, symObjAddr: 0x1F90, symBinAddr: 0x11370, symSize: 0x280 }
  - { offset: 0x21B92, size: 0x8, addend: 0x0, symName: __ZNK6Pubnub7Message10text_linksEv, symObjAddr: 0x2260, symBinAddr: 0x115F0, symSize: 0x1A0 }
  - { offset: 0x21F13, size: 0x8, addend: 0x0, symName: __ZN6Pubnub6VectorINS_8TextLinkEE9push_backERKS1_, symObjAddr: 0x3770, symBinAddr: 0x126A0, symSize: 0xF2 }
  - { offset: 0x22074, size: 0x8, addend: 0x0, symName: __ZNSt3__110__function6__funcINS_8functionIFvRKN6Pubnub7MessageEEEENS_9allocatorIS8_EEFvS4_EED1Ev, symObjAddr: 0x26D0, symBinAddr: 0x11870, symSize: 0x50 }
  - { offset: 0x2212E, size: 0x8, addend: 0x0, symName: __ZNSt3__110__function6__funcINS_8functionIFvRKN6Pubnub7MessageEEEENS_9allocatorIS8_EEFvS4_EED0Ev, symObjAddr: 0x2720, symBinAddr: 0x118C0, symSize: 0x50 }
  - { offset: 0x22282, size: 0x8, addend: 0x0, symName: __ZNKSt3__110__function6__funcINS_8functionIFvRKN6Pubnub7MessageEEEENS_9allocatorIS8_EEFvS4_EE7__cloneEv, symObjAddr: 0x2770, symBinAddr: 0x11910, symSize: 0x80 }
  - { offset: 0x22463, size: 0x8, addend: 0x0, symName: __ZNKSt3__110__function6__funcINS_8functionIFvRKN6Pubnub7MessageEEEENS_9allocatorIS8_EEFvS4_EE7__cloneEPNS0_6__baseISB_EE, symObjAddr: 0x27F0, symBinAddr: 0x11990, symSize: 0x70 }
  - { offset: 0x22525, size: 0x8, addend: 0x0, symName: __ZNSt3__110__function6__funcINS_8functionIFvRKN6Pubnub7MessageEEEENS_9allocatorIS8_EEFvS4_EE7destroyEv, symObjAddr: 0x2860, symBinAddr: 0x11A00, symSize: 0x40 }
  - { offset: 0x225B8, size: 0x8, addend: 0x0, symName: __ZNSt3__110__function6__funcINS_8functionIFvRKN6Pubnub7MessageEEEENS_9allocatorIS8_EEFvS4_EE18destroy_deallocateEv, symObjAddr: 0x28A0, symBinAddr: 0x11A40, symSize: 0x40 }
  - { offset: 0x226F4, size: 0x8, addend: 0x0, symName: __ZNSt3__110__function6__funcINS_8functionIFvRKN6Pubnub7MessageEEEENS_9allocatorIS8_EEFvS4_EEclEOS4_, symObjAddr: 0x28E0, symBinAddr: 0x11A80, symSize: 0x20 }
  - { offset: 0x227AD, size: 0x8, addend: 0x0, symName: __ZNKSt3__110__function6__funcINS_8functionIFvRKN6Pubnub7MessageEEEENS_9allocatorIS8_EEFvS4_EE6targetERKSt9type_info, symObjAddr: 0x2900, symBinAddr: 0x11AA0, symSize: 0x20 }
  - { offset: 0x227EA, size: 0x8, addend: 0x0, symName: __ZNKSt3__110__function6__funcINS_8functionIFvRKN6Pubnub7MessageEEEENS_9allocatorIS8_EEFvS4_EE11target_typeEv, symObjAddr: 0x2920, symBinAddr: 0x11AC0, symSize: 0x10 }
  - { offset: 0x2287F, size: 0x8, addend: 0x0, symName: __ZNKSt3__16vectorIN6Pubnub7MessageENS_9allocatorIS2_EEE20__throw_length_errorB8ne180100Ev, symObjAddr: 0x2B10, symBinAddr: 0x11C40, symSize: 0x10 }
  - { offset: 0x2289E, size: 0x8, addend: 0x0, symName: __ZNSt3__128__exception_guard_exceptionsINS_6vectorIN6Pubnub7MessageENS_9allocatorIS3_EEE16__destroy_vectorEED1B8ne180100Ev, symObjAddr: 0x2AA0, symBinAddr: 0x11BD0, symSize: 0x70 }
  - { offset: 0x229F8, size: 0x8, addend: 0x0, symName: '__ZNSt3__110__function6__funcIZNK6Pubnub7Message17stream_updates_onENS2_6VectorIS3_EENS_8functionIFvS5_EEEE3$_0NS_9allocatorIS9_EEFvNS_6vectorIS3_NSA_IS3_EEEEEED1Ev', symObjAddr: 0x2BA0, symBinAddr: 0x11C50, symSize: 0x40 }
  - { offset: 0x22ACC, size: 0x8, addend: 0x0, symName: '__ZNSt3__110__function6__funcIZNK6Pubnub7Message17stream_updates_onENS2_6VectorIS3_EENS_8functionIFvS5_EEEE3$_0NS_9allocatorIS9_EEFvNS_6vectorIS3_NSA_IS3_EEEEEED0Ev', symObjAddr: 0x2BE0, symBinAddr: 0x11C90, symSize: 0x50 }
  - { offset: 0x22C4A, size: 0x8, addend: 0x0, symName: '__ZNKSt3__110__function6__funcIZNK6Pubnub7Message17stream_updates_onENS2_6VectorIS3_EENS_8functionIFvS5_EEEE3$_0NS_9allocatorIS9_EEFvNS_6vectorIS3_NSA_IS3_EEEEEE7__cloneEv', symObjAddr: 0x2C30, symBinAddr: 0x11CE0, symSize: 0x70 }
  - { offset: 0x22E45, size: 0x8, addend: 0x0, symName: '__ZNKSt3__110__function6__funcIZNK6Pubnub7Message17stream_updates_onENS2_6VectorIS3_EENS_8functionIFvS5_EEEE3$_0NS_9allocatorIS9_EEFvNS_6vectorIS3_NSA_IS3_EEEEEE7__cloneEPNS0_6__baseISF_EE', symObjAddr: 0x2CA0, symBinAddr: 0x11D50, symSize: 0x70 }
  - { offset: 0x22F21, size: 0x8, addend: 0x0, symName: '__ZNSt3__110__function6__funcIZNK6Pubnub7Message17stream_updates_onENS2_6VectorIS3_EENS_8functionIFvS5_EEEE3$_0NS_9allocatorIS9_EEFvNS_6vectorIS3_NSA_IS3_EEEEEE7destroyEv', symObjAddr: 0x2D10, symBinAddr: 0x11DC0, symSize: 0x40 }
  - { offset: 0x22FCE, size: 0x8, addend: 0x0, symName: '__ZNSt3__110__function6__funcIZNK6Pubnub7Message17stream_updates_onENS2_6VectorIS3_EENS_8functionIFvS5_EEEE3$_0NS_9allocatorIS9_EEFvNS_6vectorIS3_NSA_IS3_EEEEEE18destroy_deallocateEv', symObjAddr: 0x2D50, symBinAddr: 0x11E00, symSize: 0x40 }
  - { offset: 0x2318E, size: 0x8, addend: 0x0, symName: '__ZNSt3__110__function6__funcIZNK6Pubnub7Message17stream_updates_onENS2_6VectorIS3_EENS_8functionIFvS5_EEEE3$_0NS_9allocatorIS9_EEFvNS_6vectorIS3_NSA_IS3_EEEEEEclEOSE_', symObjAddr: 0x2D90, symBinAddr: 0x11E40, symSize: 0x230 }
  - { offset: 0x235A7, size: 0x8, addend: 0x0, symName: '__ZNKSt3__110__function6__funcIZNK6Pubnub7Message17stream_updates_onENS2_6VectorIS3_EENS_8functionIFvS5_EEEE3$_0NS_9allocatorIS9_EEFvNS_6vectorIS3_NSA_IS3_EEEEEE6targetERKSt9type_info', symObjAddr: 0x2FC0, symBinAddr: 0x12070, symSize: 0x20 }
  - { offset: 0x235E4, size: 0x8, addend: 0x0, symName: '__ZNKSt3__110__function6__funcIZNK6Pubnub7Message17stream_updates_onENS2_6VectorIS3_EENS_8functionIFvS5_EEEE3$_0NS_9allocatorIS9_EEFvNS_6vectorIS3_NSA_IS3_EEEEEE11target_typeEv', symObjAddr: 0x2FE0, symBinAddr: 0x12090, symSize: 0x10 }
  - { offset: 0x2369A, size: 0x8, addend: 0x0, symName: __ZN6Pubnub6VectorINS_13MentionedUserEE9push_backERKS1_, symObjAddr: 0x32A0, symBinAddr: 0x12340, symSize: 0x110 }
  - { offset: 0x236A4, size: 0x8, addend: 0x0, symName: __ZNSt3__114__split_bufferIN6Pubnub13MentionedUserERNS_9allocatorIS2_EEED1Ev, symObjAddr: 0x3230, symBinAddr: 0x122E0, symSize: 0x60 }
  - { offset: 0x2384D, size: 0x8, addend: 0x0, symName: __ZNKSt3__16vectorIN6Pubnub17ReferencedChannelENS_9allocatorIS2_EEE20__throw_length_errorB8ne180100Ev, symObjAddr: 0x3650, symBinAddr: 0x12690, symSize: 0x10 }
  - { offset: 0x2392B, size: 0x8, addend: 0x0, symName: __ZN6Pubnub13MentionTargetC2ERKNS_6StringENS0_4TypeE, symObjAddr: 0x0, symBinAddr: 0x127A0, symSize: 0x20 }
  - { offset: 0x23938, size: 0x8, addend: 0x0, symName: __ZN6Pubnub13MentionTargetC2ERKNS_6StringENS0_4TypeE, symObjAddr: 0x0, symBinAddr: 0x127A0, symSize: 0x20 }
  - { offset: 0x2394F, size: 0x8, addend: 0x0, symName: __ZN6Pubnub13MentionTargetC1ERKNS_6StringENS0_4TypeE, symObjAddr: 0x20, symBinAddr: 0x127C0, symSize: 0x20 }
  - { offset: 0x2397B, size: 0x8, addend: 0x0, symName: __ZN6Pubnub13MentionTarget4userERKNS_6StringE, symObjAddr: 0x40, symBinAddr: 0x127E0, symSize: 0x20 }
  - { offset: 0x239B6, size: 0x8, addend: 0x0, symName: __ZN6Pubnub13MentionTarget7channelERKNS_6StringE, symObjAddr: 0x60, symBinAddr: 0x12800, symSize: 0x20 }
  - { offset: 0x239F1, size: 0x8, addend: 0x0, symName: __ZN6Pubnub13MentionTarget3urlERKNS_6StringE, symObjAddr: 0x80, symBinAddr: 0x12820, symSize: 0x20 }
  - { offset: 0x23A2C, size: 0x8, addend: 0x0, symName: __ZNK6Pubnub13MentionTarget8get_typeEv, symObjAddr: 0xA0, symBinAddr: 0x12840, symSize: 0x10 }
  - { offset: 0x23A3D, size: 0x8, addend: 0x0, symName: __ZNK6Pubnub13MentionTarget10get_targetEv, symObjAddr: 0xB0, symBinAddr: 0x12850, symSize: 0x20 }
  - { offset: 0x23AC6, size: 0x8, addend: 0x0, symName: __ZN6Pubnub14MessageElementC2ERKNS_6StringERKNS_6OptionINS_13MentionTargetEEE, symObjAddr: 0xD0, symBinAddr: 0x12870, symSize: 0x70 }
  - { offset: 0x23C44, size: 0x8, addend: 0x0, symName: __ZN6Pubnub14MessageElementC1ERKNS_6StringERKNS_6OptionINS_13MentionTargetEEE, symObjAddr: 0x140, symBinAddr: 0x128E0, symSize: 0x70 }
  - { offset: 0x23E35, size: 0x8, addend: 0x0, symName: __ZN6Pubnub14MessageElement10plain_textERKNS_6StringE, symObjAddr: 0x1B0, symBinAddr: 0x12950, symSize: 0xA0 }
  - { offset: 0x242F6, size: 0x8, addend: 0x0, symName: __ZN6Pubnub14MessageElement4linkERKNS_6StringERKNS_13MentionTargetE, symObjAddr: 0x250, symBinAddr: 0x129F0, symSize: 0x100 }
  - { offset: 0x248D8, size: 0x8, addend: 0x0, symName: __ZN6Pubnub12MessageDraftC2ERKNS_7ChannelERKNS_18MessageDraftConfigENSt3__110shared_ptrIK14ChannelServiceEENS8_IK11UserServiceEE, symObjAddr: 0x350, symBinAddr: 0x12AF0, symSize: 0x150 }
  - { offset: 0x24B9E, size: 0x8, addend: 0x0, symName: __ZNSt3__19allocatorI12DraftServiceE9constructB8ne180100IS1_JRNS_10shared_ptrIK11UserServiceEERNS4_IK14ChannelServiceEEEEEvPT_DpOT0_, symObjAddr: 0x1320, symBinAddr: 0x138E0, symSize: 0xD0 }
  - { offset: 0x24D68, size: 0x8, addend: 0x0, symName: __ZNSt3__110unique_ptrI15MessageDraftDAONS_14default_deleteIS1_EEED1B8ne180100Ev, symObjAddr: 0x4A0, symBinAddr: 0x12C40, symSize: 0x40 }
  - { offset: 0x24DF3, size: 0x8, addend: 0x0, symName: __ZN15MessageDraftDAOD2Ev, symObjAddr: 0x1130, symBinAddr: 0x136F0, symSize: 0x110 }
  - { offset: 0x251C3, size: 0x8, addend: 0x0, symName: __ZN6Pubnub12MessageDraftC1ERKNS_7ChannelERKNS_18MessageDraftConfigENSt3__110shared_ptrIK14ChannelServiceEENS8_IK11UserServiceEE, symObjAddr: 0x4E0, symBinAddr: 0x12C80, symSize: 0x10 }
  - { offset: 0x25206, size: 0x8, addend: 0x0, symName: __ZN6Pubnub12MessageDraftD2Ev, symObjAddr: 0x4F0, symBinAddr: 0x12C90, symSize: 0x90 }
  - { offset: 0x252D1, size: 0x8, addend: 0x0, symName: __ZN6Pubnub12MessageDraftD1Ev, symObjAddr: 0x580, symBinAddr: 0x12D20, symSize: 0x90 }
  - { offset: 0x2542F, size: 0x8, addend: 0x0, symName: __ZN6Pubnub12MessageDraftC2ERKS0_, symObjAddr: 0x610, symBinAddr: 0x12DB0, symSize: 0x110 }
  - { offset: 0x256B4, size: 0x8, addend: 0x0, symName: __ZN18MessageDraftEntityD1Ev, symObjAddr: 0x720, symBinAddr: 0x12EC0, symSize: 0x70 }
  - { offset: 0x25823, size: 0x8, addend: 0x0, symName: __ZN6Pubnub12MessageDraftC1ERKS0_, symObjAddr: 0x790, symBinAddr: 0x12F30, symSize: 0x10 }
  - { offset: 0x25860, size: 0x8, addend: 0x0, symName: __ZN6Pubnub12MessageDraftaSERKS0_, symObjAddr: 0x7A0, symBinAddr: 0x12F40, symSize: 0x160 }
  - { offset: 0x25BC1, size: 0x8, addend: 0x0, symName: __ZN6Pubnub12MessageDraft11insert_textEmRKNS_6StringE, symObjAddr: 0x900, symBinAddr: 0x130A0, symSize: 0x40 }
  - { offset: 0x25C08, size: 0x8, addend: 0x0, symName: __ZN6Pubnub12MessageDraft24trigger_typing_indicatorEv, symObjAddr: 0x940, symBinAddr: 0x130E0, symSize: 0xE0 }
  - { offset: 0x25C8C, size: 0x8, addend: 0x0, symName: __ZN6Pubnub12MessageDraft11remove_textEmm, symObjAddr: 0xA20, symBinAddr: 0x131C0, symSize: 0x40 }
  - { offset: 0x25CD3, size: 0x8, addend: 0x0, symName: __ZN6Pubnub12MessageDraft24insert_suggested_mentionERKNS_16SuggestedMentionERKNS_6StringE, symObjAddr: 0xA60, symBinAddr: 0x13200, symSize: 0x40 }
  - { offset: 0x25D1A, size: 0x8, addend: 0x0, symName: __ZN6Pubnub12MessageDraft11add_mentionEmmRKNS_13MentionTargetE, symObjAddr: 0xAA0, symBinAddr: 0x13240, symSize: 0x30 }
  - { offset: 0x25D54, size: 0x8, addend: 0x0, symName: __ZN6Pubnub12MessageDraft14remove_mentionEm, symObjAddr: 0xAD0, symBinAddr: 0x13270, symSize: 0x20 }
  - { offset: 0x25D8E, size: 0x8, addend: 0x0, symName: __ZN6Pubnub12MessageDraft6updateERKNS_6StringE, symObjAddr: 0xAF0, symBinAddr: 0x13290, symSize: 0x30 }
  - { offset: 0x25EB3, size: 0x8, addend: 0x0, symName: __ZN6Pubnub12MessageDraft4sendENS_14SendTextParamsE, symObjAddr: 0xB20, symBinAddr: 0x132C0, symSize: 0x1F0 }
  - { offset: 0x265A4, size: 0x8, addend: 0x0, symName: __ZNSt3__14pairIN6Pubnub14SendTextParamsENS1_6StringEED1Ev, symObjAddr: 0xD60, symBinAddr: 0x134B0, symSize: 0x60 }
  - { offset: 0x26743, size: 0x8, addend: 0x0, symName: __ZN6Pubnub12MessageDraft19add_change_listenerENSt3__18functionIFvNS_6VectorINS_14MessageElementEEEEEE, symObjAddr: 0xE10, symBinAddr: 0x13510, symSize: 0xF0 }
  - { offset: 0x268C7, size: 0x8, addend: 0x0, symName: __ZN6Pubnub12MessageDraft19add_change_listenerENSt3__18functionIFvNS_6VectorINS_14MessageElementEEENS3_INS_16SuggestedMentionEEEEEE, symObjAddr: 0xF00, symBinAddr: 0x13600, symSize: 0xF0 }
  - { offset: 0x26B12, size: 0x8, addend: 0x0, symName: __ZNSt3__120__shared_ptr_emplaceI12DraftServiceNS_9allocatorIS1_EEED1Ev, symObjAddr: 0x1240, symBinAddr: 0x13800, symSize: 0x20 }
  - { offset: 0x26B3E, size: 0x8, addend: 0x0, symName: __ZNSt3__120__shared_ptr_emplaceI12DraftServiceNS_9allocatorIS1_EEED0Ev, symObjAddr: 0x1260, symBinAddr: 0x13820, symSize: 0x30 }
  - { offset: 0x26BAF, size: 0x8, addend: 0x0, symName: __ZNSt3__120__shared_ptr_emplaceI12DraftServiceNS_9allocatorIS1_EEE16__on_zero_sharedEv, symObjAddr: 0x1290, symBinAddr: 0x13850, symSize: 0x80 }
  - { offset: 0x26CE7, size: 0x8, addend: 0x0, symName: __ZNSt3__120__shared_ptr_emplaceI12DraftServiceNS_9allocatorIS1_EEE21__on_zero_shared_weakEv, symObjAddr: 0x1310, symBinAddr: 0x138D0, symSize: 0x10 }
  - { offset: 0x26E6A, size: 0x8, addend: 0x0, symName: __ZN6Pubnub10MembershipC2ENS_4UserENS_7ChannelENSt3__110shared_ptrIK11ChatServiceEENS4_IK17MembershipServiceEENS3_10unique_ptrI13MembershipDAONS3_14default_deleteISC_EEEE, symObjAddr: 0x0, symBinAddr: 0x139B0, symSize: 0xA0 }
  - { offset: 0x26FD2, size: 0x8, addend: 0x0, symName: __ZN6Pubnub10MembershipC1ENS_4UserENS_7ChannelENSt3__110shared_ptrIK11ChatServiceEENS4_IK17MembershipServiceEENS3_10unique_ptrI13MembershipDAONS3_14default_deleteISC_EEEE, symObjAddr: 0xA0, symBinAddr: 0x13A50, symSize: 0xA0 }
  - { offset: 0x27177, size: 0x8, addend: 0x0, symName: __ZN6Pubnub10MembershipC2ERKS0_, symObjAddr: 0x140, symBinAddr: 0x13AF0, symSize: 0x130 }
  - { offset: 0x273CF, size: 0x8, addend: 0x0, symName: __ZN6Pubnub10MembershipC1ERKS0_, symObjAddr: 0x320, symBinAddr: 0x13C20, symSize: 0x10 }
  - { offset: 0x2744E, size: 0x8, addend: 0x0, symName: __ZN6Pubnub10MembershipaSERKS0_, symObjAddr: 0x330, symBinAddr: 0x13C30, symSize: 0x190 }
  - { offset: 0x277CE, size: 0x8, addend: 0x0, symName: __ZN6Pubnub10MembershipD2Ev, symObjAddr: 0x4C0, symBinAddr: 0x13DC0, symSize: 0xD0 }
  - { offset: 0x27942, size: 0x8, addend: 0x0, symName: __ZN6Pubnub10MembershipD1Ev, symObjAddr: 0x590, symBinAddr: 0x13E90, symSize: 0x10 }
  - { offset: 0x27961, size: 0x8, addend: 0x0, symName: __ZNK6Pubnub10Membership11custom_dataEv, symObjAddr: 0x5A0, symBinAddr: 0x13EA0, symSize: 0x70 }
  - { offset: 0x279BD, size: 0x8, addend: 0x0, symName: __ZNK6Pubnub10Membership15membership_dataEv, symObjAddr: 0x610, symBinAddr: 0x13F10, symSize: 0x20 }
  - { offset: 0x279E9, size: 0x8, addend: 0x0, symName: __ZNK6Pubnub10Membership6updateERKNS_6StringE, symObjAddr: 0x630, symBinAddr: 0x13F30, symSize: 0x130 }
  - { offset: 0x27AD2, size: 0x8, addend: 0x0, symName: __ZNK6Pubnub10Membership6updateERKNS_18ChatMembershipDataE, symObjAddr: 0x790, symBinAddr: 0x14060, symSize: 0x90 }
  - { offset: 0x27B58, size: 0x8, addend: 0x0, symName: __ZNK6Pubnub10Membership27last_read_message_timetokenEv, symObjAddr: 0x820, symBinAddr: 0x140F0, symSize: 0x30 }
  - { offset: 0x27B7E, size: 0x8, addend: 0x0, symName: __ZNK6Pubnub10Membership31set_last_read_message_timetokenERKNS_6StringE, symObjAddr: 0x850, symBinAddr: 0x14120, symSize: 0x30 }
  - { offset: 0x27BA4, size: 0x8, addend: 0x0, symName: __ZNK6Pubnub10Membership21set_last_read_messageERKNS_7MessageE, symObjAddr: 0x880, symBinAddr: 0x14150, symSize: 0x70 }
  - { offset: 0x27BCA, size: 0x8, addend: 0x0, symName: __ZNK6Pubnub10Membership25get_unread_messages_countEv, symObjAddr: 0x8F0, symBinAddr: 0x141C0, symSize: 0x20 }
  - { offset: 0x27CEC, size: 0x8, addend: 0x0, symName: __ZNK6Pubnub10Membership14stream_updatesENSt3__18functionIFvRKS0_EEE, symObjAddr: 0x910, symBinAddr: 0x141E0, symSize: 0x300 }
  - { offset: 0x28314, size: 0x8, addend: 0x0, symName: __ZNK6Pubnub10Membership17stream_updates_onENS_6VectorIS0_EENSt3__18functionIFvS2_EEE, symObjAddr: 0xC90, symBinAddr: 0x144E0, symSize: 0x440 }
  - { offset: 0x28ABD, size: 0x8, addend: 0x0, symName: __ZNSt3__16vectorIN6Pubnub10MembershipENS_9allocatorIS2_EEE16__init_with_sizeB8ne180100IPS2_S7_EEvT_T0_m, symObjAddr: 0x1460, symBinAddr: 0x14B80, symSize: 0x100 }
  - { offset: 0x28E20, size: 0x8, addend: 0x0, symName: __ZNSt3__110__function6__funcINS_8functionIFvRKN6Pubnub10MembershipEEEENS_9allocatorIS8_EEFvS4_EED1Ev, symObjAddr: 0x1190, symBinAddr: 0x14920, symSize: 0x50 }
  - { offset: 0x28EDA, size: 0x8, addend: 0x0, symName: __ZNSt3__110__function6__funcINS_8functionIFvRKN6Pubnub10MembershipEEEENS_9allocatorIS8_EEFvS4_EED0Ev, symObjAddr: 0x11E0, symBinAddr: 0x14970, symSize: 0x50 }
  - { offset: 0x2902E, size: 0x8, addend: 0x0, symName: __ZNKSt3__110__function6__funcINS_8functionIFvRKN6Pubnub10MembershipEEEENS_9allocatorIS8_EEFvS4_EE7__cloneEv, symObjAddr: 0x1230, symBinAddr: 0x149C0, symSize: 0x80 }
  - { offset: 0x2920F, size: 0x8, addend: 0x0, symName: __ZNKSt3__110__function6__funcINS_8functionIFvRKN6Pubnub10MembershipEEEENS_9allocatorIS8_EEFvS4_EE7__cloneEPNS0_6__baseISB_EE, symObjAddr: 0x12B0, symBinAddr: 0x14A40, symSize: 0x70 }
  - { offset: 0x292D1, size: 0x8, addend: 0x0, symName: __ZNSt3__110__function6__funcINS_8functionIFvRKN6Pubnub10MembershipEEEENS_9allocatorIS8_EEFvS4_EE7destroyEv, symObjAddr: 0x1320, symBinAddr: 0x14AB0, symSize: 0x40 }
  - { offset: 0x29364, size: 0x8, addend: 0x0, symName: __ZNSt3__110__function6__funcINS_8functionIFvRKN6Pubnub10MembershipEEEENS_9allocatorIS8_EEFvS4_EE18destroy_deallocateEv, symObjAddr: 0x1360, symBinAddr: 0x14AF0, symSize: 0x40 }
  - { offset: 0x294A0, size: 0x8, addend: 0x0, symName: __ZNSt3__110__function6__funcINS_8functionIFvRKN6Pubnub10MembershipEEEENS_9allocatorIS8_EEFvS4_EEclEOS4_, symObjAddr: 0x13A0, symBinAddr: 0x14B30, symSize: 0x20 }
  - { offset: 0x29559, size: 0x8, addend: 0x0, symName: __ZNKSt3__110__function6__funcINS_8functionIFvRKN6Pubnub10MembershipEEEENS_9allocatorIS8_EEFvS4_EE6targetERKSt9type_info, symObjAddr: 0x13C0, symBinAddr: 0x14B50, symSize: 0x20 }
  - { offset: 0x29596, size: 0x8, addend: 0x0, symName: __ZNKSt3__110__function6__funcINS_8functionIFvRKN6Pubnub10MembershipEEEENS_9allocatorIS8_EEFvS4_EE11target_typeEv, symObjAddr: 0x13E0, symBinAddr: 0x14B70, symSize: 0x10 }
  - { offset: 0x2962B, size: 0x8, addend: 0x0, symName: __ZNKSt3__16vectorIN6Pubnub10MembershipENS_9allocatorIS2_EEE20__throw_length_errorB8ne180100Ev, symObjAddr: 0x15D0, symBinAddr: 0x14CF0, symSize: 0x10 }
  - { offset: 0x2964A, size: 0x8, addend: 0x0, symName: __ZNSt3__128__exception_guard_exceptionsINS_6vectorIN6Pubnub10MembershipENS_9allocatorIS3_EEE16__destroy_vectorEED1B8ne180100Ev, symObjAddr: 0x1560, symBinAddr: 0x14C80, symSize: 0x70 }
  - { offset: 0x297A4, size: 0x8, addend: 0x0, symName: '__ZNSt3__110__function6__funcIZNK6Pubnub10Membership17stream_updates_onENS2_6VectorIS3_EENS_8functionIFvS5_EEEE3$_0NS_9allocatorIS9_EEFvNS_6vectorIS3_NSA_IS3_EEEEEED1Ev', symObjAddr: 0x1660, symBinAddr: 0x14D00, symSize: 0x40 }
  - { offset: 0x29878, size: 0x8, addend: 0x0, symName: '__ZNSt3__110__function6__funcIZNK6Pubnub10Membership17stream_updates_onENS2_6VectorIS3_EENS_8functionIFvS5_EEEE3$_0NS_9allocatorIS9_EEFvNS_6vectorIS3_NSA_IS3_EEEEEED0Ev', symObjAddr: 0x16A0, symBinAddr: 0x14D40, symSize: 0x50 }
  - { offset: 0x299F6, size: 0x8, addend: 0x0, symName: '__ZNKSt3__110__function6__funcIZNK6Pubnub10Membership17stream_updates_onENS2_6VectorIS3_EENS_8functionIFvS5_EEEE3$_0NS_9allocatorIS9_EEFvNS_6vectorIS3_NSA_IS3_EEEEEE7__cloneEv', symObjAddr: 0x16F0, symBinAddr: 0x14D90, symSize: 0x70 }
  - { offset: 0x29BF1, size: 0x8, addend: 0x0, symName: '__ZNKSt3__110__function6__funcIZNK6Pubnub10Membership17stream_updates_onENS2_6VectorIS3_EENS_8functionIFvS5_EEEE3$_0NS_9allocatorIS9_EEFvNS_6vectorIS3_NSA_IS3_EEEEEE7__cloneEPNS0_6__baseISF_EE', symObjAddr: 0x1760, symBinAddr: 0x14E00, symSize: 0x70 }
  - { offset: 0x29CCD, size: 0x8, addend: 0x0, symName: '__ZNSt3__110__function6__funcIZNK6Pubnub10Membership17stream_updates_onENS2_6VectorIS3_EENS_8functionIFvS5_EEEE3$_0NS_9allocatorIS9_EEFvNS_6vectorIS3_NSA_IS3_EEEEEE7destroyEv', symObjAddr: 0x17D0, symBinAddr: 0x14E70, symSize: 0x40 }
  - { offset: 0x29D7A, size: 0x8, addend: 0x0, symName: '__ZNSt3__110__function6__funcIZNK6Pubnub10Membership17stream_updates_onENS2_6VectorIS3_EENS_8functionIFvS5_EEEE3$_0NS_9allocatorIS9_EEFvNS_6vectorIS3_NSA_IS3_EEEEEE18destroy_deallocateEv', symObjAddr: 0x1810, symBinAddr: 0x14EB0, symSize: 0x40 }
  - { offset: 0x29F3A, size: 0x8, addend: 0x0, symName: '__ZNSt3__110__function6__funcIZNK6Pubnub10Membership17stream_updates_onENS2_6VectorIS3_EENS_8functionIFvS5_EEEE3$_0NS_9allocatorIS9_EEFvNS_6vectorIS3_NSA_IS3_EEEEEEclEOSE_', symObjAddr: 0x1850, symBinAddr: 0x14EF0, symSize: 0x260 }
  - { offset: 0x2A361, size: 0x8, addend: 0x0, symName: '__ZNKSt3__110__function6__funcIZNK6Pubnub10Membership17stream_updates_onENS2_6VectorIS3_EENS_8functionIFvS5_EEEE3$_0NS_9allocatorIS9_EEFvNS_6vectorIS3_NSA_IS3_EEEEEE6targetERKSt9type_info', symObjAddr: 0x1AB0, symBinAddr: 0x15150, symSize: 0x20 }
  - { offset: 0x2A39E, size: 0x8, addend: 0x0, symName: '__ZNKSt3__110__function6__funcIZNK6Pubnub10Membership17stream_updates_onENS2_6VectorIS3_EENS_8functionIFvS5_EEEE3$_0NS_9allocatorIS9_EEFvNS_6vectorIS3_NSA_IS3_EEEEEE11target_typeEv', symObjAddr: 0x1AD0, symBinAddr: 0x15170, symSize: 0xD }
  - { offset: 0x2A3D5, size: 0x8, addend: 0x0, symName: __ZN6Pubnub13ThreadChannelC2ENS_6StringENSt3__110shared_ptrIK11ChatServiceEENS3_IK14ChannelServiceEENS3_IK15PresenceServiceEENS3_IK19RestrictionsServiceEENS3_IK14MessageServiceEENS3_IK17MembershipServiceEENS2_10unique_ptrI10ChannelDAONS2_14default_deleteISN_EEEES1_NS_7MessageE, symObjAddr: 0x0, symBinAddr: 0x15180, symSize: 0x320 }
  - { offset: 0x2A4D8, size: 0x8, addend: 0x0, symName: __ZN6Pubnub13ThreadChannelC2ENS_6StringENSt3__110shared_ptrIK11ChatServiceEENS3_IK14ChannelServiceEENS3_IK15PresenceServiceEENS3_IK19RestrictionsServiceEENS3_IK14MessageServiceEENS3_IK17MembershipServiceEENS2_10unique_ptrI10ChannelDAONS2_14default_deleteISN_EEEES1_NS_7MessageE, symObjAddr: 0x0, symBinAddr: 0x15180, symSize: 0x320 }
  - { offset: 0x2AD40, size: 0x8, addend: 0x0, symName: __ZNSt3__110unique_ptrI10ChannelDAONS_14default_deleteIS1_EEED1B8ne180100Ev, symObjAddr: 0x320, symBinAddr: 0x154A0, symSize: 0x40 }
  - { offset: 0x2AEF7, size: 0x8, addend: 0x0, symName: __ZN6Pubnub13ThreadChannelC1ENS_6StringENSt3__110shared_ptrIK11ChatServiceEENS3_IK14ChannelServiceEENS3_IK15PresenceServiceEENS3_IK19RestrictionsServiceEENS3_IK14MessageServiceEENS3_IK17MembershipServiceEENS2_10unique_ptrI10ChannelDAONS2_14default_deleteISN_EEEES1_NS_7MessageE, symObjAddr: 0x4E0, symBinAddr: 0x154E0, symSize: 0x10 }
  - { offset: 0x2AFA6, size: 0x8, addend: 0x0, symName: __ZN6Pubnub13ThreadChannelaSERKS0_, symObjAddr: 0x4F0, symBinAddr: 0x154F0, symSize: 0x2A0 }
  - { offset: 0x2B7DA, size: 0x8, addend: 0x0, symName: __ZN6Pubnub13ThreadChannelC2Ev, symObjAddr: 0x7E0, symBinAddr: 0x15790, symSize: 0x70 }
  - { offset: 0x2B81B, size: 0x8, addend: 0x0, symName: __ZN6Pubnub13ThreadChannelC1Ev, symObjAddr: 0x850, symBinAddr: 0x15800, symSize: 0x70 }
  - { offset: 0x2B863, size: 0x8, addend: 0x0, symName: __ZN6Pubnub13ThreadChannelD2Ev, symObjAddr: 0x8C0, symBinAddr: 0x15870, symSize: 0x40 }
  - { offset: 0x2B87A, size: 0x8, addend: 0x0, symName: __ZN6Pubnub13ThreadChannelD1Ev, symObjAddr: 0x900, symBinAddr: 0x158B0, symSize: 0x40 }
  - { offset: 0x2B8A6, size: 0x8, addend: 0x0, symName: __ZN6Pubnub13ThreadChannelD0Ev, symObjAddr: 0x940, symBinAddr: 0x158F0, symSize: 0x50 }
  - { offset: 0x2B8E1, size: 0x8, addend: 0x0, symName: __ZNK6Pubnub13ThreadChannel17parent_channel_idEv, symObjAddr: 0x990, symBinAddr: 0x15940, symSize: 0x20 }
  - { offset: 0x2B8F2, size: 0x8, addend: 0x0, symName: __ZNK6Pubnub13ThreadChannel14parent_messageEv, symObjAddr: 0x9B0, symBinAddr: 0x15960, symSize: 0x20 }
  - { offset: 0x2B9DB, size: 0x8, addend: 0x0, symName: __ZN6Pubnub13ThreadChannel9send_textERKNS_6StringENS_14SendTextParamsE, symObjAddr: 0x9D0, symBinAddr: 0x15980, symSize: 0x190 }
  - { offset: 0x2BFA9, size: 0x8, addend: 0x0, symName: __ZNK6Pubnub13ThreadChannel18get_thread_historyERKNS_6StringES3_i, symObjAddr: 0xBB0, symBinAddr: 0x15B10, symSize: 0x180 }
  - { offset: 0x2C1D1, size: 0x8, addend: 0x0, symName: __ZN6Pubnub6VectorINS_13ThreadMessageEE9push_backERKS1_, symObjAddr: 0x1240, symBinAddr: 0x15EC0, symSize: 0xCE }
  - { offset: 0x2C21D, size: 0x8, addend: 0x0, symName: __ZNSt3__16vectorIN6Pubnub13ThreadMessageENS_9allocatorIS2_EEED1B8ne180100Ev, symObjAddr: 0xD30, symBinAddr: 0x15C90, symSize: 0x70 }
  - { offset: 0x2C319, size: 0x8, addend: 0x0, symName: __ZNK6Pubnub13ThreadChannel21pin_message_to_threadERKNS_13ThreadMessageE, symObjAddr: 0xDA0, symBinAddr: 0x15D00, symSize: 0x20 }
  - { offset: 0x2C33F, size: 0x8, addend: 0x0, symName: __ZNK6Pubnub13ThreadChannel25unpin_message_from_threadEv, symObjAddr: 0xDC0, symBinAddr: 0x15D20, symSize: 0x20 }
  - { offset: 0x2C365, size: 0x8, addend: 0x0, symName: __ZNK6Pubnub13ThreadChannel29pin_message_to_parent_channelERKNS_13ThreadMessageE, symObjAddr: 0xDE0, symBinAddr: 0x15D40, symSize: 0x80 }
  - { offset: 0x2C38B, size: 0x8, addend: 0x0, symName: __ZNK6Pubnub13ThreadChannel33unpin_message_from_parent_channelEv, symObjAddr: 0xE60, symBinAddr: 0x15DC0, symSize: 0x70 }
  - { offset: 0x2C3B1, size: 0x8, addend: 0x0, symName: __ZNK6Pubnub13ThreadChannel17emit_user_mentionERKNS_6StringES3_S3_, symObjAddr: 0xED0, symBinAddr: 0x15E30, symSize: 0x80 }
  - { offset: 0x2C3D7, size: 0x8, addend: 0x0, symName: __ZN6Pubnub13ThreadChannel21set_is_thread_createdEb, symObjAddr: 0xF50, symBinAddr: 0x15EB0, symSize: 0x10 }
  - { offset: 0x2C6DC, size: 0x8, addend: 0x0, symName: __ZN6Pubnub13ThreadMessageC2ENS_6StringENSt3__110shared_ptrI11ChatServiceEENS3_I14MessageServiceEENS3_I14ChannelServiceEENS3_I19RestrictionsServiceEENS2_10unique_ptrI10MessageDAONS2_14default_deleteISD_EEEES1_, symObjAddr: 0x0, symBinAddr: 0x15F90, symSize: 0x220 }
  - { offset: 0x2CC3B, size: 0x8, addend: 0x0, symName: __ZNSt3__110unique_ptrI10MessageDAONS_14default_deleteIS1_EEED1B8ne180100Ev, symObjAddr: 0x220, symBinAddr: 0x161B0, symSize: 0x40 }
  - { offset: 0x2CD86, size: 0x8, addend: 0x0, symName: __ZN6Pubnub13ThreadMessageC1ENS_6StringENSt3__110shared_ptrI11ChatServiceEENS3_I14MessageServiceEENS3_I14ChannelServiceEENS3_I19RestrictionsServiceEENS2_10unique_ptrI10MessageDAONS2_14default_deleteISD_EEEES1_, symObjAddr: 0x360, symBinAddr: 0x161F0, symSize: 0x10 }
  - { offset: 0x2CDA5, size: 0x8, addend: 0x0, symName: __ZN6Pubnub13ThreadMessageC2ENS_7MessageENS_6StringE, symObjAddr: 0x370, symBinAddr: 0x16200, symSize: 0x60 }
  - { offset: 0x2CDBC, size: 0x8, addend: 0x0, symName: __ZN6Pubnub13ThreadMessageC1ENS_7MessageENS_6StringE, symObjAddr: 0x3D0, symBinAddr: 0x16260, symSize: 0x60 }
  - { offset: 0x2CE82, size: 0x8, addend: 0x0, symName: __ZN6Pubnub13ThreadMessageaSERKS0_, symObjAddr: 0x430, symBinAddr: 0x162C0, symSize: 0x200 }
  - { offset: 0x2D49B, size: 0x8, addend: 0x0, symName: __ZN6Pubnub13ThreadMessageD2Ev, symObjAddr: 0x680, symBinAddr: 0x164C0, symSize: 0x30 }
  - { offset: 0x2D4B2, size: 0x8, addend: 0x0, symName: __ZN6Pubnub13ThreadMessageD1Ev, symObjAddr: 0x6B0, symBinAddr: 0x164F0, symSize: 0x30 }
  - { offset: 0x2D4DE, size: 0x8, addend: 0x0, symName: __ZN6Pubnub13ThreadMessageD0Ev, symObjAddr: 0x6E0, symBinAddr: 0x16520, symSize: 0x40 }
  - { offset: 0x2D51F, size: 0x8, addend: 0x0, symName: __ZNK6Pubnub13ThreadMessage21pin_to_parent_channelEv, symObjAddr: 0x720, symBinAddr: 0x16560, symSize: 0x80 }
  - { offset: 0x2D545, size: 0x8, addend: 0x0, symName: __ZNK6Pubnub13ThreadMessage25unpin_from_parent_channelEv, symObjAddr: 0x7A0, symBinAddr: 0x165E0, symSize: 0x70 }
  - { offset: 0x2D66D, size: 0x8, addend: 0x0, symName: __ZNK6Pubnub13ThreadMessage14stream_updatesENSt3__18functionIFvRKS0_EEE, symObjAddr: 0x810, symBinAddr: 0x16650, symSize: 0x360 }
  - { offset: 0x2DCA8, size: 0x8, addend: 0x0, symName: __ZNK6Pubnub13ThreadMessage17stream_updates_onENS_6VectorIS0_EENSt3__18functionIFvS2_EEE, symObjAddr: 0xBF0, symBinAddr: 0x169B0, symSize: 0x4A0 }
  - { offset: 0x2E452, size: 0x8, addend: 0x0, symName: __ZNSt3__16vectorIN6Pubnub13ThreadMessageENS_9allocatorIS2_EEE16__init_with_sizeB8ne180100IPS2_S7_EEvT_T0_m, symObjAddr: 0x14C0, symBinAddr: 0x170B0, symSize: 0x140 }
  - { offset: 0x2E7C9, size: 0x8, addend: 0x0, symName: __ZNSt3__110__function6__funcINS_8functionIFvRKN6Pubnub13ThreadMessageEEEENS_9allocatorIS8_EEFvS4_EED1Ev, symObjAddr: 0x11F0, symBinAddr: 0x16E50, symSize: 0x50 }
  - { offset: 0x2E883, size: 0x8, addend: 0x0, symName: __ZNSt3__110__function6__funcINS_8functionIFvRKN6Pubnub13ThreadMessageEEEENS_9allocatorIS8_EEFvS4_EED0Ev, symObjAddr: 0x1240, symBinAddr: 0x16EA0, symSize: 0x50 }
  - { offset: 0x2E9D7, size: 0x8, addend: 0x0, symName: __ZNKSt3__110__function6__funcINS_8functionIFvRKN6Pubnub13ThreadMessageEEEENS_9allocatorIS8_EEFvS4_EE7__cloneEv, symObjAddr: 0x1290, symBinAddr: 0x16EF0, symSize: 0x80 }
  - { offset: 0x2EBB8, size: 0x8, addend: 0x0, symName: __ZNKSt3__110__function6__funcINS_8functionIFvRKN6Pubnub13ThreadMessageEEEENS_9allocatorIS8_EEFvS4_EE7__cloneEPNS0_6__baseISB_EE, symObjAddr: 0x1310, symBinAddr: 0x16F70, symSize: 0x70 }
  - { offset: 0x2EC7A, size: 0x8, addend: 0x0, symName: __ZNSt3__110__function6__funcINS_8functionIFvRKN6Pubnub13ThreadMessageEEEENS_9allocatorIS8_EEFvS4_EE7destroyEv, symObjAddr: 0x1380, symBinAddr: 0x16FE0, symSize: 0x40 }
  - { offset: 0x2ED0D, size: 0x8, addend: 0x0, symName: __ZNSt3__110__function6__funcINS_8functionIFvRKN6Pubnub13ThreadMessageEEEENS_9allocatorIS8_EEFvS4_EE18destroy_deallocateEv, symObjAddr: 0x13C0, symBinAddr: 0x17020, symSize: 0x40 }
  - { offset: 0x2EE49, size: 0x8, addend: 0x0, symName: __ZNSt3__110__function6__funcINS_8functionIFvRKN6Pubnub13ThreadMessageEEEENS_9allocatorIS8_EEFvS4_EEclEOS4_, symObjAddr: 0x1400, symBinAddr: 0x17060, symSize: 0x20 }
  - { offset: 0x2EF02, size: 0x8, addend: 0x0, symName: __ZNKSt3__110__function6__funcINS_8functionIFvRKN6Pubnub13ThreadMessageEEEENS_9allocatorIS8_EEFvS4_EE6targetERKSt9type_info, symObjAddr: 0x1420, symBinAddr: 0x17080, symSize: 0x20 }
  - { offset: 0x2EF3F, size: 0x8, addend: 0x0, symName: __ZNKSt3__110__function6__funcINS_8functionIFvRKN6Pubnub13ThreadMessageEEEENS_9allocatorIS8_EEFvS4_EE11target_typeEv, symObjAddr: 0x1440, symBinAddr: 0x170A0, symSize: 0x10 }
  - { offset: 0x2EFD4, size: 0x8, addend: 0x0, symName: __ZNKSt3__16vectorIN6Pubnub13ThreadMessageENS_9allocatorIS2_EEE20__throw_length_errorB8ne180100Ev, symObjAddr: 0x1670, symBinAddr: 0x17260, symSize: 0x10 }
  - { offset: 0x2EFF3, size: 0x8, addend: 0x0, symName: __ZNSt3__128__exception_guard_exceptionsINS_6vectorIN6Pubnub13ThreadMessageENS_9allocatorIS3_EEE16__destroy_vectorEED1B8ne180100Ev, symObjAddr: 0x1600, symBinAddr: 0x171F0, symSize: 0x70 }
  - { offset: 0x2F136, size: 0x8, addend: 0x0, symName: '__ZNSt3__110__function6__funcIZNK6Pubnub13ThreadMessage17stream_updates_onENS2_6VectorIS3_EENS_8functionIFvS5_EEEE3$_0NS_9allocatorIS9_EEFvNS_6vectorIS3_NSA_IS3_EEEEEED1Ev', symObjAddr: 0x1700, symBinAddr: 0x17270, symSize: 0x40 }
  - { offset: 0x2F20A, size: 0x8, addend: 0x0, symName: '__ZNSt3__110__function6__funcIZNK6Pubnub13ThreadMessage17stream_updates_onENS2_6VectorIS3_EENS_8functionIFvS5_EEEE3$_0NS_9allocatorIS9_EEFvNS_6vectorIS3_NSA_IS3_EEEEEED0Ev', symObjAddr: 0x1740, symBinAddr: 0x172B0, symSize: 0x50 }
  - { offset: 0x2F388, size: 0x8, addend: 0x0, symName: '__ZNKSt3__110__function6__funcIZNK6Pubnub13ThreadMessage17stream_updates_onENS2_6VectorIS3_EENS_8functionIFvS5_EEEE3$_0NS_9allocatorIS9_EEFvNS_6vectorIS3_NSA_IS3_EEEEEE7__cloneEv', symObjAddr: 0x1790, symBinAddr: 0x17300, symSize: 0x70 }
  - { offset: 0x2F583, size: 0x8, addend: 0x0, symName: '__ZNKSt3__110__function6__funcIZNK6Pubnub13ThreadMessage17stream_updates_onENS2_6VectorIS3_EENS_8functionIFvS5_EEEE3$_0NS_9allocatorIS9_EEFvNS_6vectorIS3_NSA_IS3_EEEEEE7__cloneEPNS0_6__baseISF_EE', symObjAddr: 0x1800, symBinAddr: 0x17370, symSize: 0x70 }
  - { offset: 0x2F65F, size: 0x8, addend: 0x0, symName: '__ZNSt3__110__function6__funcIZNK6Pubnub13ThreadMessage17stream_updates_onENS2_6VectorIS3_EENS_8functionIFvS5_EEEE3$_0NS_9allocatorIS9_EEFvNS_6vectorIS3_NSA_IS3_EEEEEE7destroyEv', symObjAddr: 0x1870, symBinAddr: 0x173E0, symSize: 0x40 }
  - { offset: 0x2F70C, size: 0x8, addend: 0x0, symName: '__ZNSt3__110__function6__funcIZNK6Pubnub13ThreadMessage17stream_updates_onENS2_6VectorIS3_EENS_8functionIFvS5_EEEE3$_0NS_9allocatorIS9_EEFvNS_6vectorIS3_NSA_IS3_EEEEEE18destroy_deallocateEv', symObjAddr: 0x18B0, symBinAddr: 0x17420, symSize: 0x40 }
  - { offset: 0x2F8CC, size: 0x8, addend: 0x0, symName: '__ZNSt3__110__function6__funcIZNK6Pubnub13ThreadMessage17stream_updates_onENS2_6VectorIS3_EENS_8functionIFvS5_EEEE3$_0NS_9allocatorIS9_EEFvNS_6vectorIS3_NSA_IS3_EEEEEEclEOSE_', symObjAddr: 0x18F0, symBinAddr: 0x17460, symSize: 0x250 }
  - { offset: 0x2FCD6, size: 0x8, addend: 0x0, symName: '__ZNKSt3__110__function6__funcIZNK6Pubnub13ThreadMessage17stream_updates_onENS2_6VectorIS3_EENS_8functionIFvS5_EEEE3$_0NS_9allocatorIS9_EEFvNS_6vectorIS3_NSA_IS3_EEEEEE6targetERKSt9type_info', symObjAddr: 0x1B40, symBinAddr: 0x176B0, symSize: 0x20 }
  - { offset: 0x2FD13, size: 0x8, addend: 0x0, symName: '__ZNKSt3__110__function6__funcIZNK6Pubnub13ThreadMessage17stream_updates_onENS2_6VectorIS3_EENS_8functionIFvS5_EEEE3$_0NS_9allocatorIS9_EEFvNS_6vectorIS3_NSA_IS3_EEEEEE11target_typeEv', symObjAddr: 0x1B60, symBinAddr: 0x176D0, symSize: 0xD }
  - { offset: 0x2FD4A, size: 0x8, addend: 0x0, symName: __ZN6Pubnub13AccessManagerC2ENSt3__110shared_ptrIK20AccessManagerServiceEE, symObjAddr: 0x0, symBinAddr: 0x176E0, symSize: 0x20 }
  - { offset: 0x2FD75, size: 0x8, addend: 0x0, symName: __ZN6Pubnub13AccessManagerC2ENSt3__110shared_ptrIK20AccessManagerServiceEE, symObjAddr: 0x0, symBinAddr: 0x176E0, symSize: 0x20 }
  - { offset: 0x2FDF7, size: 0x8, addend: 0x0, symName: __ZN6Pubnub13AccessManagerC1ENSt3__110shared_ptrIK20AccessManagerServiceEE, symObjAddr: 0x20, symBinAddr: 0x17700, symSize: 0x20 }
  - { offset: 0x2FE88, size: 0x8, addend: 0x0, symName: __ZN6Pubnub13AccessManagerC2ERKS0_, symObjAddr: 0x40, symBinAddr: 0x17720, symSize: 0x20 }
  - { offset: 0x2FF0A, size: 0x8, addend: 0x0, symName: __ZN6Pubnub13AccessManagerC1ERKS0_, symObjAddr: 0x60, symBinAddr: 0x17740, symSize: 0x20 }
  - { offset: 0x2FFD1, size: 0x8, addend: 0x0, symName: __ZN6Pubnub13AccessManageraSERKS0_, symObjAddr: 0x80, symBinAddr: 0x17760, symSize: 0x60 }
  - { offset: 0x3011F, size: 0x8, addend: 0x0, symName: __ZNK6Pubnub13AccessManager5can_iENS0_10PermissionENS0_12ResourceTypeERKNS_6StringE, symObjAddr: 0xE0, symBinAddr: 0x177C0, symSize: 0x10 }
  - { offset: 0x30145, size: 0x8, addend: 0x0, symName: __ZNK6Pubnub13AccessManager11parse_tokenENS_6StringE, symObjAddr: 0xF0, symBinAddr: 0x177D0, symSize: 0x60 }
  - { offset: 0x3016B, size: 0x8, addend: 0x0, symName: __ZNK6Pubnub13AccessManager14set_auth_tokenENS_6StringE, symObjAddr: 0x150, symBinAddr: 0x17830, symSize: 0x50 }
  - { offset: 0x30191, size: 0x8, addend: 0x0, symName: __ZNK6Pubnub13AccessManager17set_pubnub_originENS_6StringE, symObjAddr: 0x1A0, symBinAddr: 0x17880, symSize: 0x4F }
  - { offset: 0x301DD, size: 0x8, addend: 0x0, symName: __ZN6Pubnub14CallbackHandleC2ENSt3__110shared_ptrI12SubscribableEE, symObjAddr: 0x0, symBinAddr: 0x178D0, symSize: 0x20 }
  - { offset: 0x30208, size: 0x8, addend: 0x0, symName: __ZN6Pubnub14CallbackHandleC2ENSt3__110shared_ptrI12SubscribableEE, symObjAddr: 0x0, symBinAddr: 0x178D0, symSize: 0x20 }
  - { offset: 0x3028A, size: 0x8, addend: 0x0, symName: __ZN6Pubnub14CallbackHandleC1ENSt3__110shared_ptrI12SubscribableEE, symObjAddr: 0x20, symBinAddr: 0x178F0, symSize: 0x20 }
  - { offset: 0x3031B, size: 0x8, addend: 0x0, symName: __ZN6Pubnub14CallbackHandleC2ERS0_, symObjAddr: 0x40, symBinAddr: 0x17910, symSize: 0x20 }
  - { offset: 0x3039D, size: 0x8, addend: 0x0, symName: __ZN6Pubnub14CallbackHandleC1ERS0_, symObjAddr: 0x60, symBinAddr: 0x17930, symSize: 0x20 }
  - { offset: 0x3042E, size: 0x8, addend: 0x0, symName: __ZN6Pubnub14CallbackHandleC2ERKS0_, symObjAddr: 0x80, symBinAddr: 0x17950, symSize: 0x20 }
  - { offset: 0x304B0, size: 0x8, addend: 0x0, symName: __ZN6Pubnub14CallbackHandleC1ERKS0_, symObjAddr: 0xA0, symBinAddr: 0x17970, symSize: 0x20 }
  - { offset: 0x30547, size: 0x8, addend: 0x0, symName: __ZN6Pubnub14CallbackHandle5closeEv, symObjAddr: 0xC0, symBinAddr: 0x17990, symSize: 0xD }
  - { offset: 0x305B7, size: 0x8, addend: 0x0, symName: __ZN6Pubnub29create_set_memberships_objectENS_6StringES0_, symObjAddr: 0x0, symBinAddr: 0x179A0, symSize: 0x1E0 }
  - { offset: 0x3063B, size: 0x8, addend: 0x0, symName: __ZN6Pubnub25create_set_members_objectENS_6StringES0_, symObjAddr: 0x1E0, symBinAddr: 0x17B80, symSize: 0x1E0 }
  - { offset: 0x306D5, size: 0x8, addend: 0x0, symName: __ZN6Pubnub25create_set_members_objectENSt3__16vectorINS_6StringENS0_9allocatorIS2_EEEES2_, symObjAddr: 0x3C0, symBinAddr: 0x17D60, symSize: 0x2C0 }
  - { offset: 0x3080C, size: 0x8, addend: 0x0, symName: __ZN6Pubnub18string_starts_withERKNS_6StringES2_, symObjAddr: 0x680, symBinAddr: 0x18020, symSize: 0x170 }
  - { offset: 0x30BAD, size: 0x8, addend: 0x0, symName: __ZN6Pubnub30chat_message_to_publish_stringENS_6StringENS_24pubnub_chat_message_typeE, symObjAddr: 0x7F0, symBinAddr: 0x18190, symSize: 0x240 }
  - { offset: 0x31178, size: 0x8, addend: 0x0, symName: __ZN8nlohmann16json_abi_v3_11_310basic_jsonINSt3__13mapENS2_6vectorENS2_12basic_stringIcNS2_11char_traitsIcEENS2_9allocatorIcEEEEbxydS8_NS0_14adl_serializerENS4_IhNS8_IhEEEEvE6createISA_JRKPcEEEPT_DpOT0_, symObjAddr: 0x2130, symBinAddr: 0x19810, symSize: 0xD0 }
  - { offset: 0x314B3, size: 0x8, addend: 0x0, symName: __ZN8nlohmann16json_abi_v3_11_310basic_jsonINSt3__13mapENS2_6vectorENS2_12basic_stringIcNS2_11char_traitsIcEENS2_9allocatorIcEEEEbxydS8_NS0_14adl_serializerENS4_IhNS8_IhEEEEvEixIKcEERSE_PT_, symObjAddr: 0xA30, symBinAddr: 0x183D0, symSize: 0xF0 }
  - { offset: 0x3184C, size: 0x8, addend: 0x0, symName: __ZN8nlohmann16json_abi_v3_11_310basic_jsonINSt3__13mapENS2_6vectorENS2_12basic_stringIcNS2_11char_traitsIcEENS2_9allocatorIcEEEEbxydS8_NS0_14adl_serializerENS4_IhNS8_IhEEEEvE10json_value7destroyENS0_6detail7value_tE, symObjAddr: 0xEC0, symBinAddr: 0x18830, symSize: 0x500 }
  - { offset: 0x323A3, size: 0x8, addend: 0x0, symName: __ZNK8nlohmann16json_abi_v3_11_310basic_jsonINSt3__13mapENS2_6vectorENS2_12basic_stringIcNS2_11char_traitsIcEENS2_9allocatorIcEEEEbxydS8_NS0_14adl_serializerENS4_IhNS8_IhEEEEvE4dumpEicbNS0_6detail15error_handler_tE, symObjAddr: 0xB40, symBinAddr: 0x184E0, symSize: 0x2B0 }
  - { offset: 0x32AE9, size: 0x8, addend: 0x0, symName: __ZN8nlohmann16json_abi_v3_11_310basic_jsonINSt3__13mapENS2_6vectorENS2_12basic_stringIcNS2_11char_traitsIcEENS2_9allocatorIcEEEEbxydS8_NS0_14adl_serializerENS4_IhNS8_IhEEEEvED1Ev, symObjAddr: 0xB20, symBinAddr: 0x184C0, symSize: 0x20 }
  - { offset: 0x32BDA, size: 0x8, addend: 0x0, symName: __ZN8nlohmann16json_abi_v3_11_310basic_jsonINSt3__13mapENS2_6vectorENS2_12basic_stringIcNS2_11char_traitsIcEENS2_9allocatorIcEEEEbxydS8_NS0_14adl_serializerENS4_IhNS8_IhEEEEvEixESA_, symObjAddr: 0x1A80, symBinAddr: 0x19330, symSize: 0x110 }
  - { offset: 0x32E40, size: 0x8, addend: 0x0, symName: __ZNKSt3__112basic_stringIcNS_11char_traitsIcEENS_9allocatorIcEEE20__throw_length_errorB8ne180100Ev, symObjAddr: 0x1A70, symBinAddr: 0x19320, symSize: 0x10 }
  - { offset: 0x32E55, size: 0x8, addend: 0x0, symName: __ZN8nlohmann16json_abi_v3_11_310basic_jsonINSt3__13mapENS2_6vectorENS2_12basic_stringIcNS2_11char_traitsIcEENS2_9allocatorIcEEEEbxydS8_NS0_14adl_serializerENS4_IhNS8_IhEEEEvEixESA_, symObjAddr: 0x1A80, symBinAddr: 0x19330, symSize: 0x110 }
  - { offset: 0x32F8C, size: 0x8, addend: 0x0, symName: __ZN8nlohmann16json_abi_v3_11_36detail10serializerINS0_10basic_jsonINSt3__13mapENS4_6vectorENS4_12basic_stringIcNS4_11char_traitsIcEENS4_9allocatorIcEEEEbxydSA_NS0_14adl_serializerENS6_IhNSA_IhEEEEvEEE4dumpERKSG_bbjj, symObjAddr: 0x2280, symBinAddr: 0x198E0, symSize: 0xF80 }
  - { offset: 0x3413A, size: 0x8, addend: 0x0, symName: __ZN8nlohmann16json_abi_v3_11_36detail10serializerINS0_10basic_jsonINSt3__13mapENS4_6vectorENS4_12basic_stringIcNS4_11char_traitsIcEENS4_9allocatorIcEEEEbxydSA_NS0_14adl_serializerENS6_IhNSA_IhEEEEvEEED1Ev, symObjAddr: 0x3200, symBinAddr: 0x1A860, symSize: 0x60 }
  - { offset: 0x3426F, size: 0x8, addend: 0x0, symName: __ZNK8nlohmann16json_abi_v3_11_310basic_jsonINSt3__13mapENS2_6vectorENS2_12basic_stringIcNS2_11char_traitsIcEENS2_9allocatorIcEEEEbxydS8_NS0_14adl_serializerENS4_IhNS8_IhEEEEvE4dumpEicbNS0_6detail15error_handler_tE.cold.1, symObjAddr: 0x4620, symBinAddr: 0xDCF40, symSize: 0x1D }
  - { offset: 0x3438B, size: 0x8, addend: 0x0, symName: __ZN6Pubnub17get_now_timetokenEv, symObjAddr: 0xDF0, symBinAddr: 0x18790, symSize: 0xA0 }
  - { offset: 0x34702, size: 0x8, addend: 0x0, symName: __ZNSt3__16vectorIN8nlohmann16json_abi_v3_11_310basic_jsonINS_3mapES0_NS_12basic_stringIcNS_11char_traitsIcEENS_9allocatorIcEEEEbxydS8_NS2_14adl_serializerENS0_IhNS8_IhEEEEvEENS8_ISE_EEE7reserveEm, symObjAddr: 0x13C0, symBinAddr: 0x18D30, symSize: 0x100 }
  - { offset: 0x349E2, size: 0x8, addend: 0x0, symName: __ZNSt3__16vectorIN8nlohmann16json_abi_v3_11_310basic_jsonINS_3mapES0_NS_12basic_stringIcNS_11char_traitsIcEENS_9allocatorIcEEEEbxydS8_NS2_14adl_serializerENS0_IhNS8_IhEEEEvEENS8_ISE_EEE21__push_back_slow_pathISE_EEPSE_OT_, symObjAddr: 0x1590, symBinAddr: 0x18E40, symSize: 0x150 }
  - { offset: 0x34D33, size: 0x8, addend: 0x0, symName: __ZNSt3__16__treeINS_12__value_typeINS_12basic_stringIcNS_11char_traitsIcEENS_9allocatorIcEEEEN8nlohmann16json_abi_v3_11_310basic_jsonINS_3mapENS_6vectorES7_bxydS5_NS9_14adl_serializerENSC_IhNS5_IhEEEEvEEEENS_19__map_value_compareIS7_SH_NS_4lessIvEELb1EEENS5_ISH_EEE7destroyEPNS_11__tree_nodeISH_PvEE, symObjAddr: 0x16E0, symBinAddr: 0x18F90, symSize: 0x60 }
  - { offset: 0x34F05, size: 0x8, addend: 0x0, symName: __ZNSt3__16vectorIN8nlohmann16json_abi_v3_11_310basic_jsonINS_3mapES0_NS_12basic_stringIcNS_11char_traitsIcEENS_9allocatorIcEEEEbxydS8_NS2_14adl_serializerENS0_IhNS8_IhEEEEvEENS8_ISE_EEED2B8ne180100Ev, symObjAddr: 0x1740, symBinAddr: 0x18FF0, symSize: 0x70 }
  - { offset: 0x35078, size: 0x8, addend: 0x0, symName: __ZNKSt3__16vectorIN8nlohmann16json_abi_v3_11_310basic_jsonINS_3mapES0_NS_12basic_stringIcNS_11char_traitsIcEENS_9allocatorIcEEEEbxydS8_NS2_14adl_serializerENS0_IhNS8_IhEEEEvEENS8_ISE_EEE20__throw_length_errorB8ne180100Ev, symObjAddr: 0x14C0, symBinAddr: 0x18E30, symSize: 0x10 }
  - { offset: 0x3511D, size: 0x8, addend: 0x0, symName: __ZN8nlohmann16json_abi_v3_11_36detail6concatINSt3__112basic_stringIcNS3_11char_traitsIcEENS3_9allocatorIcEEEEJS9_S9_RKS9_EEET_DpOT0_, symObjAddr: 0x17B0, symBinAddr: 0x19060, symSize: 0x110 }
  - { offset: 0x35472, size: 0x8, addend: 0x0, symName: __ZN8nlohmann16json_abi_v3_11_36detail6concatINSt3__112basic_stringIcNS3_11char_traitsIcEENS3_9allocatorIcEEEEJRA17_KcRKS9_cS9_RA3_SA_EEET_DpOT0_, symObjAddr: 0x18C0, symBinAddr: 0x19170, symSize: 0x130 }
  - { offset: 0x357AD, size: 0x8, addend: 0x0, symName: __ZNK8nlohmann16json_abi_v3_11_36detail9exception4whatEv, symObjAddr: 0x19F0, symBinAddr: 0x192A0, symSize: 0x10 }
  - { offset: 0x357C4, size: 0x8, addend: 0x0, symName: __ZN8nlohmann16json_abi_v3_11_36detail9exceptionD1Ev, symObjAddr: 0x1A00, symBinAddr: 0x192B0, symSize: 0x30 }
  - { offset: 0x357F0, size: 0x8, addend: 0x0, symName: __ZN8nlohmann16json_abi_v3_11_36detail9exceptionD0Ev, symObjAddr: 0x1A30, symBinAddr: 0x192E0, symSize: 0x40 }
  - { offset: 0x35885, size: 0x8, addend: 0x0, symName: __ZNSt3__16__treeINS_12__value_typeINS_12basic_stringIcNS_11char_traitsIcEENS_9allocatorIcEEEEN8nlohmann16json_abi_v3_11_310basic_jsonINS_3mapENS_6vectorES7_bxydS5_NS9_14adl_serializerENSC_IhNS5_IhEEEEvEEEENS_19__map_value_compareIS7_SH_NS_4lessIvEELb1EEENS5_ISH_EEE25__emplace_unique_key_argsIS7_JS7_DnEEENS_4pairINS_15__tree_iteratorISH_PNS_11__tree_nodeISH_PvEElEEbEERKT_DpOT0_, symObjAddr: 0x1E00, symBinAddr: 0x19680, symSize: 0x190 }
  - { offset: 0x35BBF, size: 0x8, addend: 0x0, symName: __ZNK8nlohmann16json_abi_v3_11_310basic_jsonINSt3__13mapENS2_6vectorENS2_12basic_stringIcNS2_11char_traitsIcEENS2_9allocatorIcEEEEbxydS8_NS0_14adl_serializerENS4_IhNS8_IhEEEEvE9type_nameEv, symObjAddr: 0x1DA0, symBinAddr: 0x19650, symSize: 0x30 }
  - { offset: 0x35BD0, size: 0x8, addend: 0x0, symName: __ZN8nlohmann16json_abi_v3_11_36detail6concatINSt3__112basic_stringIcNS3_11char_traitsIcEENS3_9allocatorIcEEEEJRA51_KcPSA_EEET_DpOT0_, symObjAddr: 0x1D20, symBinAddr: 0x195D0, symSize: 0x80 }
  - { offset: 0x35D79, size: 0x8, addend: 0x0, symName: __ZN8nlohmann16json_abi_v3_11_36detail10type_error6createIPNS0_10basic_jsonINSt3__13mapENS5_6vectorENS5_12basic_stringIcNS5_11char_traitsIcEENS5_9allocatorIcEEEEbxydSB_NS0_14adl_serializerENS7_IhNSB_IhEEEEvEELi0EEES2_iRKSD_T_, symObjAddr: 0x1B90, symBinAddr: 0x19440, symSize: 0x190 }
  - { offset: 0x3689E, size: 0x8, addend: 0x0, symName: __ZN8nlohmann16json_abi_v3_11_36detail10serializerINS0_10basic_jsonINSt3__13mapENS4_6vectorENS4_12basic_stringIcNS4_11char_traitsIcEENS4_9allocatorIcEEEEbxydSA_NS0_14adl_serializerENS6_IhNSA_IhEEEEvEEE12dump_escapedERKSC_b, symObjAddr: 0x3310, symBinAddr: 0x1A970, symSize: 0x670 }
  - { offset: 0x36DCE, size: 0x8, addend: 0x0, symName: __ZN8nlohmann16json_abi_v3_11_36detail10serializerINS0_10basic_jsonINSt3__13mapENS4_6vectorENS4_12basic_stringIcNS4_11char_traitsIcEENS4_9allocatorIcEEEEbxydSA_NS0_14adl_serializerENS6_IhNSA_IhEEEEvEEE12dump_integerIxLi0EEEvT_, symObjAddr: 0x3980, symBinAddr: 0x1AFE0, symSize: 0x200 }
  - { offset: 0x36E79, size: 0x8, addend: 0x0, symName: __ZN8nlohmann16json_abi_v3_11_36detail8to_charsIdEEPcS3_PKcT_, symObjAddr: 0x3EC0, symBinAddr: 0x1B520, symSize: 0x200 }
  - { offset: 0x36ED6, size: 0x8, addend: 0x0, symName: __ZNSt3__120__shared_ptr_emplaceIN8nlohmann16json_abi_v3_11_36detail21output_string_adapterIcNS_12basic_stringIcNS_11char_traitsIcEENS_9allocatorIcEEEEEENS8_ISB_EEED1Ev, symObjAddr: 0x3260, symBinAddr: 0x1A8C0, symSize: 0x20 }
  - { offset: 0x36F02, size: 0x8, addend: 0x0, symName: __ZNSt3__120__shared_ptr_emplaceIN8nlohmann16json_abi_v3_11_36detail21output_string_adapterIcNS_12basic_stringIcNS_11char_traitsIcEENS_9allocatorIcEEEEEENS8_ISB_EEED0Ev, symObjAddr: 0x3280, symBinAddr: 0x1A8E0, symSize: 0x30 }
  - { offset: 0x36F4F, size: 0x8, addend: 0x0, symName: __ZNSt3__120__shared_ptr_emplaceIN8nlohmann16json_abi_v3_11_36detail21output_string_adapterIcNS_12basic_stringIcNS_11char_traitsIcEENS_9allocatorIcEEEEEENS8_ISB_EEE16__on_zero_sharedEv, symObjAddr: 0x32B0, symBinAddr: 0x1A910, symSize: 0x10 }
  - { offset: 0x36FBE, size: 0x8, addend: 0x0, symName: __ZNSt3__120__shared_ptr_emplaceIN8nlohmann16json_abi_v3_11_36detail21output_string_adapterIcNS_12basic_stringIcNS_11char_traitsIcEENS_9allocatorIcEEEEEENS8_ISB_EEE21__on_zero_shared_weakEv, symObjAddr: 0x32C0, symBinAddr: 0x1A920, symSize: 0x10 }
  - { offset: 0x3703C, size: 0x8, addend: 0x0, symName: __ZN8nlohmann16json_abi_v3_11_36detail21output_string_adapterIcNSt3__112basic_stringIcNS3_11char_traitsIcEENS3_9allocatorIcEEEEE15write_characterEc, symObjAddr: 0x32D0, symBinAddr: 0x1A930, symSize: 0x10 }
  - { offset: 0x3704D, size: 0x8, addend: 0x0, symName: __ZN8nlohmann16json_abi_v3_11_36detail21output_string_adapterIcNSt3__112basic_stringIcNS3_11char_traitsIcEENS3_9allocatorIcEEEEE16write_charactersEPKcm, symObjAddr: 0x32E0, symBinAddr: 0x1A940, symSize: 0x10 }
  - { offset: 0x3705E, size: 0x8, addend: 0x0, symName: __ZN8nlohmann16json_abi_v3_11_36detail21output_string_adapterIcNSt3__112basic_stringIcNS3_11char_traitsIcEENS3_9allocatorIcEEEEED1Ev, symObjAddr: 0x32F0, symBinAddr: 0x1A950, symSize: 0x10 }
  - { offset: 0x3706F, size: 0x8, addend: 0x0, symName: __ZN8nlohmann16json_abi_v3_11_36detail21output_string_adapterIcNSt3__112basic_stringIcNS3_11char_traitsIcEENS3_9allocatorIcEEEEED0Ev, symObjAddr: 0x3300, symBinAddr: 0x1A960, symSize: 0x10 }
  - { offset: 0x370A8, size: 0x8, addend: 0x0, symName: __ZN8nlohmann16json_abi_v3_11_36detail6concatINSt3__112basic_stringIcNS3_11char_traitsIcEENS3_9allocatorIcEEEEJRA29_KcS9_RA5_SA_S9_EEET_DpOT0_, symObjAddr: 0x3D10, symBinAddr: 0x1B370, symSize: 0x110 }
  - { offset: 0x373A7, size: 0x8, addend: 0x0, symName: __ZN8nlohmann16json_abi_v3_11_36detail10type_error6createIDnLi0EEES2_iRKNSt3__112basic_stringIcNS4_11char_traitsIcEENS4_9allocatorIcEEEET_, symObjAddr: 0x3B80, symBinAddr: 0x1B1E0, symSize: 0x190 }
  - { offset: 0x37C0C, size: 0x8, addend: 0x0, symName: __ZN8nlohmann16json_abi_v3_11_36detail6concatINSt3__112basic_stringIcNS3_11char_traitsIcEENS3_9allocatorIcEEEEJRA39_KcS9_EEET_DpOT0_, symObjAddr: 0x3E20, symBinAddr: 0x1B480, symSize: 0xA0 }
  - { offset: 0x37E7E, size: 0x8, addend: 0x0, symName: __ZN8nlohmann16json_abi_v3_11_36detail9dtoa_impl6grisu2IdEEvPcRiS5_T_, symObjAddr: 0x40C0, symBinAddr: 0x1B720, symSize: 0x280 }
  - { offset: 0x37FA3, size: 0x8, addend: 0x0, symName: __ZN8nlohmann16json_abi_v3_11_36detail9dtoa_impl16grisu2_digit_genEPcRiS4_NS2_5diyfpES5_S5_, symObjAddr: 0x4340, symBinAddr: 0x1B9A0, symSize: 0x2E0 }
  - { offset: 0x38046, size: 0x8, addend: 0x0, symName: __ZN6Pubnub6StringD2Ev, symObjAddr: 0x0, symBinAddr: 0x1BC80, symSize: 0x30 }
  - { offset: 0x38053, size: 0x8, addend: 0x0, symName: __ZN6Pubnub6StringD2Ev, symObjAddr: 0x0, symBinAddr: 0x1BC80, symSize: 0x30 }
  - { offset: 0x3806A, size: 0x8, addend: 0x0, symName: __ZN6Pubnub6StringD1Ev, symObjAddr: 0x30, symBinAddr: 0x1BCB0, symSize: 0x30 }
  - { offset: 0x38096, size: 0x8, addend: 0x0, symName: __ZN6Pubnub6StringC2EPKcm, symObjAddr: 0x60, symBinAddr: 0x1BCE0, symSize: 0x60 }
  - { offset: 0x380BC, size: 0x8, addend: 0x0, symName: __ZN6Pubnub6String4initEPKcm, symObjAddr: 0xC0, symBinAddr: 0x1BD40, symSize: 0x50 }
  - { offset: 0x380D3, size: 0x8, addend: 0x0, symName: __ZN6Pubnub6StringC1EPKcm, symObjAddr: 0x110, symBinAddr: 0x1BD90, symSize: 0x60 }
  - { offset: 0x3810E, size: 0x8, addend: 0x0, symName: __ZN6Pubnub6StringC2EPKc, symObjAddr: 0x170, symBinAddr: 0x1BDF0, symSize: 0x60 }
  - { offset: 0x3814E, size: 0x8, addend: 0x0, symName: __ZN6Pubnub6StringC1EPKc, symObjAddr: 0x1D0, symBinAddr: 0x1BE50, symSize: 0x60 }
  - { offset: 0x38196, size: 0x8, addend: 0x0, symName: __ZN6Pubnub6StringC2EPc, symObjAddr: 0x230, symBinAddr: 0x1BEB0, symSize: 0x60 }
  - { offset: 0x381E4, size: 0x8, addend: 0x0, symName: __ZN6Pubnub6StringC1EPc, symObjAddr: 0x290, symBinAddr: 0x1BF10, symSize: 0x60 }
  - { offset: 0x3825F, size: 0x8, addend: 0x0, symName: __ZN6Pubnub6StringC2ENSt3__112basic_stringIcNS1_11char_traitsIcEENS1_9allocatorIcEEEE, symObjAddr: 0x2F0, symBinAddr: 0x1BF70, symSize: 0x80 }
  - { offset: 0x382F2, size: 0x8, addend: 0x0, symName: __ZN6Pubnub6StringC1ENSt3__112basic_stringIcNS1_11char_traitsIcEENS1_9allocatorIcEEEE, symObjAddr: 0x370, symBinAddr: 0x1BFF0, symSize: 0x80 }
  - { offset: 0x38398, size: 0x8, addend: 0x0, symName: __ZN6Pubnub6StringC2ERKS0_, symObjAddr: 0x3F0, symBinAddr: 0x1C070, symSize: 0x60 }
  - { offset: 0x383FB, size: 0x8, addend: 0x0, symName: __ZN6Pubnub6StringC1ERKS0_, symObjAddr: 0x450, symBinAddr: 0x1C0D0, symSize: 0x60 }
  - { offset: 0x3846D, size: 0x8, addend: 0x0, symName: __ZN6Pubnub6StringC2EOS0_, symObjAddr: 0x4B0, symBinAddr: 0x1C130, symSize: 0x20 }
  - { offset: 0x38484, size: 0x8, addend: 0x0, symName: __ZN6Pubnub6StringC1EOS0_, symObjAddr: 0x4D0, symBinAddr: 0x1C150, symSize: 0x20 }
  - { offset: 0x3854C, size: 0x8, addend: 0x0, symName: __ZNK6Pubnub6StringcvNSt3__112basic_stringIcNS1_11char_traitsIcEENS1_9allocatorIcEEEEEv, symObjAddr: 0x4F0, symBinAddr: 0x1C170, symSize: 0xB0 }
  - { offset: 0x38766, size: 0x8, addend: 0x0, symName: __ZNK6Pubnub6StringcvPKcEv, symObjAddr: 0x5A0, symBinAddr: 0x1C220, symSize: 0x10 }
  - { offset: 0x38777, size: 0x8, addend: 0x0, symName: __ZN6Pubnub6StringaSEPKc, symObjAddr: 0x5B0, symBinAddr: 0x1C230, symSize: 0x80 }
  - { offset: 0x3879C, size: 0x8, addend: 0x0, symName: __ZN6Pubnub6StringaSEPc, symObjAddr: 0x630, symBinAddr: 0x1C2B0, symSize: 0x80 }
  - { offset: 0x387CF, size: 0x8, addend: 0x0, symName: __ZN6Pubnub6StringaSENSt3__112basic_stringIcNS1_11char_traitsIcEENS1_9allocatorIcEEEE, symObjAddr: 0x6B0, symBinAddr: 0x1C330, symSize: 0x90 }
  - { offset: 0x3886B, size: 0x8, addend: 0x0, symName: __ZN6Pubnub6StringaSERKS0_, symObjAddr: 0x740, symBinAddr: 0x1C3C0, symSize: 0x80 }
  - { offset: 0x388B3, size: 0x8, addend: 0x0, symName: __ZN6Pubnub6StringaSEOS0_, symObjAddr: 0x7C0, symBinAddr: 0x1C440, symSize: 0x80 }
  - { offset: 0x38907, size: 0x8, addend: 0x0, symName: __ZN6Pubnub6StringpLEPKc, symObjAddr: 0x840, symBinAddr: 0x1C4C0, symSize: 0xC0 }
  - { offset: 0x3895C, size: 0x8, addend: 0x0, symName: __ZN6Pubnub6String14grow_if_neededEm, symObjAddr: 0x900, symBinAddr: 0x1C580, symSize: 0x70 }
  - { offset: 0x38989, size: 0x8, addend: 0x0, symName: __ZN6Pubnub6StringpLERKS0_, symObjAddr: 0x970, symBinAddr: 0x1C5F0, symSize: 0xC0 }
  - { offset: 0x389EC, size: 0x8, addend: 0x0, symName: __ZN6Pubnub6StringpLERS0_, symObjAddr: 0xA30, symBinAddr: 0x1C6B0, symSize: 0xC0 }
  - { offset: 0x38A4F, size: 0x8, addend: 0x0, symName: __ZN6Pubnub6StringpLENSt3__112basic_stringIcNS1_11char_traitsIcEENS1_9allocatorIcEEEE, symObjAddr: 0xAF0, symBinAddr: 0x1C770, symSize: 0xD0 }
  - { offset: 0x38B1D, size: 0x8, addend: 0x0, symName: __ZNK6Pubnub6String5c_strEv, symObjAddr: 0xBC0, symBinAddr: 0x1C840, symSize: 0x10 }
  - { offset: 0x38B2E, size: 0x8, addend: 0x0, symName: __ZN6Pubnub6String5c_strEv, symObjAddr: 0xBD0, symBinAddr: 0x1C850, symSize: 0x10 }
  - { offset: 0x38B3F, size: 0x8, addend: 0x0, symName: __ZNK6Pubnub6String13to_std_stringEv, symObjAddr: 0xBE0, symBinAddr: 0x1C860, symSize: 0xB0 }
  - { offset: 0x38D46, size: 0x8, addend: 0x0, symName: __ZNK6Pubnub6String6lengthEv, symObjAddr: 0xC90, symBinAddr: 0x1C910, symSize: 0x10 }
  - { offset: 0x38D57, size: 0x8, addend: 0x0, symName: __ZNK6Pubnub6String8capacityEv, symObjAddr: 0xCA0, symBinAddr: 0x1C920, symSize: 0x10 }
  - { offset: 0x38D68, size: 0x8, addend: 0x0, symName: __ZNK6Pubnub6String5emptyEv, symObjAddr: 0xCB0, symBinAddr: 0x1C930, symSize: 0x20 }
  - { offset: 0x38D79, size: 0x8, addend: 0x0, symName: __ZN6Pubnub6String5clearEv, symObjAddr: 0xCD0, symBinAddr: 0x1C950, symSize: 0x30 }
  - { offset: 0x38D8A, size: 0x8, addend: 0x0, symName: __ZN6Pubnub6String5eraseEmm, symObjAddr: 0xD00, symBinAddr: 0x1C980, symSize: 0x50 }
  - { offset: 0x38D9B, size: 0x8, addend: 0x0, symName: __ZN6Pubnub6String6insertEmc, symObjAddr: 0xD50, symBinAddr: 0x1C9D0, symSize: 0xF0 }
  - { offset: 0x38DCF, size: 0x8, addend: 0x0, symName: __ZN6Pubnub6String6shrinkEv, symObjAddr: 0xE40, symBinAddr: 0x1CAC0, symSize: 0x50 }
  - { offset: 0x38DE0, size: 0x8, addend: 0x0, symName: __ZNK6Pubnub6String4findEPKcm, symObjAddr: 0xE90, symBinAddr: 0x1CB10, symSize: 0xB0 }
  - { offset: 0x38DFF, size: 0x8, addend: 0x0, symName: __ZN6Pubnub6String7replaceEmmPKc, symObjAddr: 0xF40, symBinAddr: 0x1CBC0, symSize: 0x2A0 }
  - { offset: 0x38E49, size: 0x8, addend: 0x0, symName: __ZN6Pubnub6String7replaceEmmRKS0_, symObjAddr: 0x11E0, symBinAddr: 0x1CE60, symSize: 0x10 }
  - { offset: 0x38E6E, size: 0x8, addend: 0x0, symName: __ZN6Pubnub6String11replace_allEPKcS2_, symObjAddr: 0x11F0, symBinAddr: 0x1CE70, symSize: 0x180 }
  - { offset: 0x38EDC, size: 0x8, addend: 0x0, symName: __ZN6Pubnub6String11replace_allERKNSt3__112basic_stringIcNS1_11char_traitsIcEENS1_9allocatorIcEEEES9_, symObjAddr: 0x1370, symBinAddr: 0x1CFF0, symSize: 0x30 }
  - { offset: 0x38F96, size: 0x8, addend: 0x0, symName: __ZN6Pubnub6String11replace_allERKS0_S2_, symObjAddr: 0x13A0, symBinAddr: 0x1D020, symSize: 0x10 }
  - { offset: 0x38FCD, size: 0x8, addend: 0x0, symName: __ZNK6Pubnub6String9substringEmm, symObjAddr: 0x13B0, symBinAddr: 0x1D030, symSize: 0x1E0 }
  - { offset: 0x39056, size: 0x8, addend: 0x0, symName: __ZN6Pubnub6String7reserveEm, symObjAddr: 0x1590, symBinAddr: 0x1D210, symSize: 0x90 }
  - { offset: 0x3907D, size: 0x8, addend: 0x0, symName: __ZN6Pubnub6String5beginEv, symObjAddr: 0x1620, symBinAddr: 0x1D2A0, symSize: 0x10 }
  - { offset: 0x3908E, size: 0x8, addend: 0x0, symName: __ZNK6Pubnub6String18calculate_capacityEm, symObjAddr: 0x1630, symBinAddr: 0x1D2B0, symSize: 0x20 }
  - { offset: 0x3909F, size: 0x8, addend: 0x0, symName: __ZNK6Pubnub6String5beginEv, symObjAddr: 0x1650, symBinAddr: 0x1D2D0, symSize: 0x10 }
  - { offset: 0x390B0, size: 0x8, addend: 0x0, symName: __ZNK6Pubnub6String3endEv, symObjAddr: 0x1660, symBinAddr: 0x1D2E0, symSize: 0x10 }
  - { offset: 0x390C1, size: 0x8, addend: 0x0, symName: __ZN6Pubnub6String3endEv, symObjAddr: 0x1670, symBinAddr: 0x1D2F0, symSize: 0x10 }
  - { offset: 0x390D2, size: 0x8, addend: 0x0, symName: __ZNK6Pubnub6String5frontEv, symObjAddr: 0x1680, symBinAddr: 0x1D300, symSize: 0x10 }
  - { offset: 0x390E3, size: 0x8, addend: 0x0, symName: __ZNK6Pubnub6String4backEv, symObjAddr: 0x1690, symBinAddr: 0x1D310, symSize: 0x10 }
  - { offset: 0x390F4, size: 0x8, addend: 0x0, symName: __ZN6Pubnub6String5frontEv, symObjAddr: 0x16A0, symBinAddr: 0x1D320, symSize: 0x10 }
  - { offset: 0x39105, size: 0x8, addend: 0x0, symName: __ZN6Pubnub6String4backEv, symObjAddr: 0x16B0, symBinAddr: 0x1D330, symSize: 0x10 }
  - { offset: 0x39116, size: 0x8, addend: 0x0, symName: __ZN6Pubnub6String10into_c_strEv, symObjAddr: 0x16C0, symBinAddr: 0x1D340, symSize: 0x10 }
  - { offset: 0x39139, size: 0x8, addend: 0x0, symName: __ZplRKN6Pubnub6StringES2_, symObjAddr: 0x16D0, symBinAddr: 0x1D350, symSize: 0x1D0 }
  - { offset: 0x392B8, size: 0x8, addend: 0x0, symName: __ZeqRKN6Pubnub6StringES2_, symObjAddr: 0x18A0, symBinAddr: 0x1D520, symSize: 0x30 }
  - { offset: 0x39306, size: 0x8, addend: 0x0, symName: __ZneRKN6Pubnub6StringES2_, symObjAddr: 0x18D0, symBinAddr: 0x1D550, symSize: 0x30 }
  - { offset: 0x3939A, size: 0x8, addend: 0x0, symName: __ZN16EntityRepositoryC2Ev, symObjAddr: 0x0, symBinAddr: 0x1D580, symSize: 0xF0 }
  - { offset: 0x39473, size: 0x8, addend: 0x0, symName: __ZN16EntityRepositoryC2Ev, symObjAddr: 0x0, symBinAddr: 0x1D580, symSize: 0xF0 }
  - { offset: 0x397D7, size: 0x8, addend: 0x0, symName: __ZN16EntityRepositoryC1Ev, symObjAddr: 0xF0, symBinAddr: 0x1D670, symSize: 0xF0 }
  - { offset: 0x39B4A, size: 0x8, addend: 0x0, symName: __ZN16EntityRepository17get_user_entitiesEv, symObjAddr: 0x1E0, symBinAddr: 0x1D760, symSize: 0x10 }
  - { offset: 0x39B5B, size: 0x8, addend: 0x0, symName: __ZN16EntityRepository20get_channel_entitiesEv, symObjAddr: 0x1F0, symBinAddr: 0x1D770, symSize: 0x10 }
  - { offset: 0x39B6C, size: 0x8, addend: 0x0, symName: __ZN16EntityRepository20get_message_entitiesEv, symObjAddr: 0x200, symBinAddr: 0x1D780, symSize: 0x10 }
  - { offset: 0x39B7D, size: 0x8, addend: 0x0, symName: __ZN16EntityRepository23get_membership_entitiesEv, symObjAddr: 0x210, symBinAddr: 0x1D790, symSize: 0xD }
  - { offset: 0x39BB4, size: 0x8, addend: 0x0, symName: __ZN19CallbacksRepository21get_message_callbacksEv, symObjAddr: 0x0, symBinAddr: 0x1D7A0, symSize: 0x10 }
  - { offset: 0x39BC1, size: 0x8, addend: 0x0, symName: __ZN19CallbacksRepository21get_message_callbacksEv, symObjAddr: 0x0, symBinAddr: 0x1D7A0, symSize: 0x10 }
  - { offset: 0x39BD2, size: 0x8, addend: 0x0, symName: __ZN19CallbacksRepository35get_thread_message_update_callbacksEv, symObjAddr: 0x10, symBinAddr: 0x1D7B0, symSize: 0x10 }
  - { offset: 0x39BE3, size: 0x8, addend: 0x0, symName: __ZN19CallbacksRepository28get_message_update_callbacksEv, symObjAddr: 0x20, symBinAddr: 0x1D7C0, symSize: 0x10 }
  - { offset: 0x39BF4, size: 0x8, addend: 0x0, symName: __ZN19CallbacksRepository21get_channel_callbacksEv, symObjAddr: 0x30, symBinAddr: 0x1D7D0, symSize: 0x10 }
  - { offset: 0x39C05, size: 0x8, addend: 0x0, symName: __ZN19CallbacksRepository19get_event_callbacksEv, symObjAddr: 0x40, symBinAddr: 0x1D7E0, symSize: 0x10 }
  - { offset: 0x39C16, size: 0x8, addend: 0x0, symName: __ZN19CallbacksRepository18get_user_callbacksEv, symObjAddr: 0x50, symBinAddr: 0x1D7F0, symSize: 0x10 }
  - { offset: 0x39C27, size: 0x8, addend: 0x0, symName: __ZN19CallbacksRepository30get_channel_presence_callbacksEv, symObjAddr: 0x60, symBinAddr: 0x1D800, symSize: 0x10 }
  - { offset: 0x39C38, size: 0x8, addend: 0x0, symName: __ZN19CallbacksRepository24get_membership_callbacksEv, symObjAddr: 0x70, symBinAddr: 0x1D810, symSize: 0xD }
  - { offset: 0x39C6F, size: 0x8, addend: 0x0, symName: __ZN15Deserialization24pubnub_message_to_stringE17pubnub_v2_message, symObjAddr: 0x0, symBinAddr: 0x1D820, symSize: 0x20 }
  - { offset: 0x39C7C, size: 0x8, addend: 0x0, symName: __ZN15Deserialization24pubnub_message_to_stringE17pubnub_v2_message, symObjAddr: 0x0, symBinAddr: 0x1D820, symSize: 0x20 }
  - { offset: 0x39CDE, size: 0x8, addend: 0x0, symName: __ZN5TimerD2Ev, symObjAddr: 0x0, symBinAddr: 0x1D840, symSize: 0x40 }
  - { offset: 0x39D57, size: 0x8, addend: 0x0, symName: __ZN5Timer4stopEv, symObjAddr: 0x40, symBinAddr: 0x1D880, symSize: 0x10 }
  - { offset: 0x39D98, size: 0x8, addend: 0x0, symName: __ZN5TimerD1Ev, symObjAddr: 0x60, symBinAddr: 0x1D890, symSize: 0x40 }
  - { offset: 0x39F64, size: 0x8, addend: 0x0, symName: __ZN5TimerC2EiNSt3__18functionIFvvEEE, symObjAddr: 0xA0, symBinAddr: 0x1D8D0, symSize: 0x240 }
  - { offset: 0x3A582, size: 0x8, addend: 0x0, symName: __ZN5TimerC1EiNSt3__18functionIFvvEEE, symObjAddr: 0x2E0, symBinAddr: 0x1DB10, symSize: 0x10 }
  - { offset: 0x3A5B3, size: 0x8, addend: 0x0, symName: __ZN5TimeraSEOS_, symObjAddr: 0x2F0, symBinAddr: 0x1DB20, symSize: 0x30 }
  - { offset: 0x3A6C3, size: 0x8, addend: 0x0, symName: __ZN5Timer11async_startEiNSt3__18functionIFvvEEE, symObjAddr: 0x320, symBinAddr: 0x1DB50, symSize: 0xA0 }
  - { offset: 0x3A847, size: 0x8, addend: 0x0, symName: '__ZNSt3__114__thread_proxyB8ne180100INS_5tupleIJNS_10unique_ptrINS_15__thread_structENS_14default_deleteIS3_EEEEZN5TimerC1EiNS_8functionIFvvEEEE3$_0EEEEEPvSD_', symObjAddr: 0x3C0, symBinAddr: 0x1DBF0, symSize: 0x1F0 }
  - { offset: 0x3AC91, size: 0x8, addend: 0x0, symName: '__ZNSt3__110unique_ptrINS_5tupleIJNS0_INS_15__thread_structENS_14default_deleteIS2_EEEEZN5TimerC1EiNS_8functionIFvvEEEE3$_0EEENS3_ISB_EEED1B8ne180100Ev', symObjAddr: 0x5B0, symBinAddr: 0x1DDE0, symSize: 0x70 }
  - { offset: 0x3AE5E, size: 0x8, addend: 0x0, symName: __ZN6PubNubC2EN6Pubnub6StringES1_S1_S1_, symObjAddr: 0x0, symBinAddr: 0x1DE50, symSize: 0x220 }
  - { offset: 0x3B248, size: 0x8, addend: 0x0, symName: __ZN6PubNubC1EN6Pubnub6StringES1_S1_S1_, symObjAddr: 0x290, symBinAddr: 0x1E070, symSize: 0x10 }
  - { offset: 0x3B26D, size: 0x8, addend: 0x0, symName: __ZN6PubNubD2Ev, symObjAddr: 0x2A0, symBinAddr: 0x1E080, symSize: 0xD0 }
  - { offset: 0x3B3FE, size: 0x8, addend: 0x0, symName: __ZN6PubNubD1Ev, symObjAddr: 0x380, symBinAddr: 0x1E150, symSize: 0x10 }
  - { offset: 0x3B41D, size: 0x8, addend: 0x0, symName: __ZN6PubNub7publishEN6Pubnub6StringES1_S1_bb, symObjAddr: 0x390, symBinAddr: 0x1E160, symSize: 0xF0 }
  - { offset: 0x3B499, size: 0x8, addend: 0x0, symName: __ZN6PubNub22await_and_handle_errorE10pubnub_res, symObjAddr: 0x480, symBinAddr: 0x1E250, symSize: 0xB0 }
  - { offset: 0x3B51F, size: 0x8, addend: 0x0, symName: __ZN6PubNub6signalEN6Pubnub6StringES1_, symObjAddr: 0x530, symBinAddr: 0x1E300, symSize: 0x80 }
  - { offset: 0x3B5FF, size: 0x8, addend: 0x0, symName: __ZN6PubNub9subscribeERKN6Pubnub6StringE, symObjAddr: 0x5B0, symBinAddr: 0x1E380, symSize: 0xB0 }
  - { offset: 0x3B91D, size: 0x8, addend: 0x0, symName: __ZN6PubNub18subscribe_multipleERKNSt3__16vectorIN6Pubnub6StringENS0_9allocatorIS3_EEEE, symObjAddr: 0x660, symBinAddr: 0x1E430, symSize: 0x170 }
  - { offset: 0x3BDFD, size: 0x8, addend: 0x0, symName: __ZNSt3__120back_insert_iteratorINS_6vectorIP13pubnub_entityNS_9allocatorIS3_EEEEEaSB8ne180100EOS3_, symObjAddr: 0x2470, symBinAddr: 0x20200, symSize: 0x1C0 }
  - { offset: 0x3C112, size: 0x8, addend: 0x0, symName: __ZN6PubNub37subscribe_to_channel_and_get_messagesEN6Pubnub6StringE, symObjAddr: 0x7D0, symBinAddr: 0x1E5A0, symSize: 0x20 }
  - { offset: 0x3C14E, size: 0x8, addend: 0x0, symName: __ZN6PubNub47subscribe_to_multiple_channels_and_get_messagesENSt3__16vectorIN6Pubnub6StringENS0_9allocatorIS3_EEEE, symObjAddr: 0x7F0, symBinAddr: 0x1E5C0, symSize: 0x20 }
  - { offset: 0x3C18A, size: 0x8, addend: 0x0, symName: __ZN6PubNub35pause_subscription_and_get_messagesEv, symObjAddr: 0x810, symBinAddr: 0x1E5E0, symSize: 0x20 }
  - { offset: 0x3C1C6, size: 0x8, addend: 0x0, symName: __ZN6PubNub14call_handshakeEv, symObjAddr: 0x830, symBinAddr: 0x1E600, symSize: 0x10 }
  - { offset: 0x3C1D7, size: 0x8, addend: 0x0, symName: __ZN6PubNub14call_subscribeEv, symObjAddr: 0x840, symBinAddr: 0x1E610, symSize: 0x10 }
  - { offset: 0x3C1F4, size: 0x8, addend: 0x0, symName: __ZN6PubNub48subscribe_to_channel_and_get_messages_as_stringsEN6Pubnub6StringE, symObjAddr: 0x850, symBinAddr: 0x1E620, symSize: 0x20 }
  - { offset: 0x3C230, size: 0x8, addend: 0x0, symName: __ZN6PubNub14fetch_messagesEv, symObjAddr: 0x870, symBinAddr: 0x1E640, symSize: 0x20 }
  - { offset: 0x3C26C, size: 0x8, addend: 0x0, symName: __ZN6PubNub25fetch_messages_as_stringsEv, symObjAddr: 0x890, symBinAddr: 0x1E660, symSize: 0x20 }
  - { offset: 0x3C30E, size: 0x8, addend: 0x0, symName: __ZN6PubNub41unsubscribe_from_channel_and_get_messagesEN6Pubnub6StringE, symObjAddr: 0x8B0, symBinAddr: 0x1E680, symSize: 0x150 }
  - { offset: 0x3C5FF, size: 0x8, addend: 0x0, symName: __ZNSt3__16vectorIN6Pubnub6StringENS_9allocatorIS2_EEE21__push_back_slow_pathIRKS2_EEPS2_OT_, symObjAddr: 0x2730, symBinAddr: 0x20440, symSize: 0x1C0 }
  - { offset: 0x3C97E, size: 0x8, addend: 0x0, symName: __ZNSt3__16vectorIN6Pubnub6StringENS_9allocatorIS2_EEE18__assign_with_sizeB8ne180100IPS2_S7_EEvT_T0_l, symObjAddr: 0x2950, symBinAddr: 0x20650, symSize: 0x290 }
  - { offset: 0x3CF57, size: 0x8, addend: 0x0, symName: __ZN6PubNub19resume_subscriptionEv, symObjAddr: 0xA00, symBinAddr: 0x1E7D0, symSize: 0x20 }
  - { offset: 0x3CF68, size: 0x8, addend: 0x0, symName: __ZN6PubNub20set_channel_metadataEN6Pubnub6StringES1_, symObjAddr: 0xA20, symBinAddr: 0x1E7F0, symSize: 0x50 }
  - { offset: 0x3CFB1, size: 0x8, addend: 0x0, symName: __ZN6PubNub23remove_channel_metadataEN6Pubnub6StringE, symObjAddr: 0xA70, symBinAddr: 0x1E840, symSize: 0x30 }
  - { offset: 0x3CFFA, size: 0x8, addend: 0x0, symName: __ZN6PubNub20get_channel_metadataEN6Pubnub6StringE, symObjAddr: 0xAA0, symBinAddr: 0x1E870, symSize: 0x60 }
  - { offset: 0x3D06C, size: 0x8, addend: 0x0, symName: __ZN6PubNub25get_all_channels_metadataEN6Pubnub6StringEiS1_S1_S1_S1_, symObjAddr: 0xB00, symBinAddr: 0x1E8D0, symSize: 0xE0 }
  - { offset: 0x3D0EB, size: 0x8, addend: 0x0, symName: __ZN6PubNub19get_channel_membersEN6Pubnub6StringES1_iS1_S1_S1_S1_, symObjAddr: 0xBE0, symBinAddr: 0x1E9B0, symSize: 0x180 }
  - { offset: 0x3D156, size: 0x8, addend: 0x0, symName: __ZN6PubNub14remove_membersEN6Pubnub6StringES1_, symObjAddr: 0xD60, symBinAddr: 0x1EB30, symSize: 0x50 }
  - { offset: 0x3D19F, size: 0x8, addend: 0x0, symName: __ZN6PubNub11set_membersEN6Pubnub6StringES1_S1_S1_, symObjAddr: 0xDB0, symBinAddr: 0x1EB80, symSize: 0xE0 }
  - { offset: 0x3D20A, size: 0x8, addend: 0x0, symName: __ZN6PubNub17set_user_metadataEN6Pubnub6StringES1_, symObjAddr: 0xE90, symBinAddr: 0x1EC60, symSize: 0x50 }
  - { offset: 0x3D252, size: 0x8, addend: 0x0, symName: __ZN6PubNub17get_user_metadataEN6Pubnub6StringE, symObjAddr: 0xEE0, symBinAddr: 0x1ECB0, symSize: 0x60 }
  - { offset: 0x3D2BC, size: 0x8, addend: 0x0, symName: __ZN6PubNub21get_all_user_metadataEN6Pubnub6StringEiS1_S1_S1_S1_, symObjAddr: 0xF40, symBinAddr: 0x1ED10, symSize: 0xE0 }
  - { offset: 0x3D333, size: 0x8, addend: 0x0, symName: __ZN6PubNub20remove_user_metadataEN6Pubnub6StringE, symObjAddr: 0x1020, symBinAddr: 0x1EDF0, symSize: 0x30 }
  - { offset: 0x3D37B, size: 0x8, addend: 0x0, symName: __ZN6PubNub15get_membershipsEN6Pubnub6StringES1_iS1_S1_S1_S1_, symObjAddr: 0x1050, symBinAddr: 0x1EE20, symSize: 0x110 }
  - { offset: 0x3D3E6, size: 0x8, addend: 0x0, symName: __ZN6PubNub15set_membershipsEN6Pubnub6StringES1_S1_, symObjAddr: 0x1160, symBinAddr: 0x1EF30, symSize: 0x90 }
  - { offset: 0x3D451, size: 0x8, addend: 0x0, symName: __ZN6PubNub18remove_membershipsEN6Pubnub6StringES1_, symObjAddr: 0x11F0, symBinAddr: 0x1EFC0, symSize: 0x50 }
  - { offset: 0x3D49A, size: 0x8, addend: 0x0, symName: __ZN6PubNub9where_nowEN6Pubnub6StringE, symObjAddr: 0x1240, symBinAddr: 0x1F010, symSize: 0x60 }
  - { offset: 0x3D504, size: 0x8, addend: 0x0, symName: __ZN6PubNub8here_nowEN6Pubnub6StringE, symObjAddr: 0x12A0, symBinAddr: 0x1F070, symSize: 0x60 }
  - { offset: 0x3D56E, size: 0x8, addend: 0x0, symName: __ZN6PubNub11get_user_idEv, symObjAddr: 0x1300, symBinAddr: 0x1F0D0, symSize: 0x20 }
  - { offset: 0x3D57F, size: 0x8, addend: 0x0, symName: __ZN6PubNub13fetch_historyEN6Pubnub6StringES1_S1_i, symObjAddr: 0x1320, symBinAddr: 0x1F0F0, symSize: 0x110 }
  - { offset: 0x3D632, size: 0x8, addend: 0x0, symName: __ZN6PubNub13fetch_historyENSt3__16vectorIN6Pubnub6StringENS0_9allocatorIS3_EEEES3_S3_i, symObjAddr: 0x1430, symBinAddr: 0x1F200, symSize: 0x140 }
  - { offset: 0x3D8DD, size: 0x8, addend: 0x0, symName: __ZN6PubNub32get_comma_sep_string_from_vectorENSt3__16vectorIN6Pubnub6StringENS0_9allocatorIS3_EEEE, symObjAddr: 0x1570, symBinAddr: 0x1F340, symSize: 0xF0 }
  - { offset: 0x3D987, size: 0x8, addend: 0x0, symName: __ZN6PubNub18add_message_actionEN6Pubnub6StringES1_S1_S1_, symObjAddr: 0x1660, symBinAddr: 0x1F430, symSize: 0x1F0 }
  - { offset: 0x3DA3C, size: 0x8, addend: 0x0, symName: __ZN6PubNub21remove_message_actionEN6Pubnub6StringES1_S1_, symObjAddr: 0x1850, symBinAddr: 0x1F620, symSize: 0x2F0 }
  - { offset: 0x3DB9F, size: 0x8, addend: 0x0, symName: __ZN6PubNub14message_countsENSt3__16vectorIN6Pubnub6StringENS0_9allocatorIS3_EEEES6_, symObjAddr: 0x1B40, symBinAddr: 0x1F910, symSize: 0x450 }
  - { offset: 0x3E3D2, size: 0x8, addend: 0x0, symName: __ZNSt3__16__treeINS_12__value_typeIN6Pubnub6StringEiEENS_19__map_value_compareIS3_S4_NS2_14StringComparerELb1EEENS_9allocatorIS4_EEE25__emplace_unique_key_argsIS3_JRKNS_21piecewise_construct_tENS_5tupleIJRKS3_EEENSF_IJEEEEEENS_4pairINS_15__tree_iteratorIS4_PNS_11__tree_nodeIS4_PvEElEEbEERKT_DpOT0_, symObjAddr: 0x2DA0, symBinAddr: 0x20920, symSize: 0x110 }
  - { offset: 0x3E626, size: 0x8, addend: 0x0, symName: __ZNSt3__16__treeINS_12__value_typeIN6Pubnub6StringEiEENS_19__map_value_compareIS3_S4_NS2_14StringComparerELb1EEENS_9allocatorIS4_EEE25__emplace_unique_key_argsIS3_JRKNS_21piecewise_construct_tENS_5tupleIJRKS3_EEENSF_IJEEEEEENS_4pairINS_15__tree_iteratorIS4_PNS_11__tree_nodeIS4_PvEElEEbEERKT_DpOT0_, symObjAddr: 0x2DA0, symBinAddr: 0x20920, symSize: 0x110 }
  - { offset: 0x3E630, size: 0x8, addend: 0x0, symName: __ZNSt3__16__treeINS_12__value_typeIN6Pubnub6StringEiEENS_19__map_value_compareIS3_S4_NS2_14StringComparerELb1EEENS_9allocatorIS4_EEE7destroyEPNS_11__tree_nodeIS4_PvEE, symObjAddr: 0x2D50, symBinAddr: 0x208E0, symSize: 0x40 }
  - { offset: 0x3E71D, size: 0x8, addend: 0x0, symName: __ZN6PubNub15delete_messagesEN6Pubnub6StringES1_S1_, symObjAddr: 0x1F90, symBinAddr: 0x1FD60, symSize: 0x90 }
  - { offset: 0x3E779, size: 0x8, addend: 0x0, symName: __ZN6PubNub24is_subscribed_to_channelEN6Pubnub6StringE, symObjAddr: 0x2020, symBinAddr: 0x1FDF0, symSize: 0x90 }
  - { offset: 0x3E7F4, size: 0x8, addend: 0x0, symName: __ZN6PubNub28cancel_previous_subscriptionEv, symObjAddr: 0x20B0, symBinAddr: 0x1FE80, symSize: 0x10 }
  - { offset: 0x3E805, size: 0x8, addend: 0x0, symName: __ZN6PubNub35get_comma_sep_channels_to_subscribeEv, symObjAddr: 0x20C0, symBinAddr: 0x1FE90, symSize: 0x190 }
  - { offset: 0x3E8C1, size: 0x8, addend: 0x0, symName: __ZN6PubNub11parse_tokenEN6Pubnub6StringE, symObjAddr: 0x2250, symBinAddr: 0x20020, symSize: 0x40 }
  - { offset: 0x3E8FC, size: 0x8, addend: 0x0, symName: __ZN6PubNub22get_current_auth_tokenEv, symObjAddr: 0x2290, symBinAddr: 0x20060, symSize: 0x20 }
  - { offset: 0x3E90D, size: 0x8, addend: 0x0, symName: __ZN6PubNub14set_auth_tokenEN6Pubnub6StringE, symObjAddr: 0x22B0, symBinAddr: 0x20080, symSize: 0x60 }
  - { offset: 0x3E963, size: 0x8, addend: 0x0, symName: __ZN6PubNub17set_pubnub_originEN6Pubnub6StringE, symObjAddr: 0x2310, symBinAddr: 0x200E0, symSize: 0x40 }
  - { offset: 0x3E99F, size: 0x8, addend: 0x0, symName: __ZN6PubNub20set_logging_callbackEPFv16pubnub_log_levelPKcE, symObjAddr: 0x2350, symBinAddr: 0x20120, symSize: 0x10 }
  - { offset: 0x3E9C5, size: 0x8, addend: 0x0, symName: __ZN6PubNub32add_subscription_status_listenerEPFvPK7pubnub_26pubnub_subscription_status33pubnub_subscription_status_data_tPvES5_, symObjAddr: 0x2360, symBinAddr: 0x20130, symSize: 0x10 }
  - { offset: 0x3EA00, size: 0x8, addend: 0x0, symName: __ZN6PubNub35remove_subscription_status_listenerEPFvPK7pubnub_26pubnub_subscription_status33pubnub_subscription_status_data_tPvES5_, symObjAddr: 0x2370, symBinAddr: 0x20140, symSize: 0x10 }
  - { offset: 0x3EA3B, size: 0x8, addend: 0x0, symName: __ZN6PubNub23reconnect_subscriptionsEv, symObjAddr: 0x2380, symBinAddr: 0x20150, symSize: 0x20 }
  - { offset: 0x3EA77, size: 0x8, addend: 0x0, symName: __ZN6PubNub24disconnect_subscriptionsEv, symObjAddr: 0x23A0, symBinAddr: 0x20170, symSize: 0x20 }
  - { offset: 0x3EABE, size: 0x8, addend: 0x0, symName: __ZNSt3__120__shared_ptr_emplaceI12SubscriptionNS_9allocatorIS1_EEED1Ev, symObjAddr: 0x2400, symBinAddr: 0x20190, symSize: 0x20 }
  - { offset: 0x3EAEA, size: 0x8, addend: 0x0, symName: __ZNSt3__120__shared_ptr_emplaceI12SubscriptionNS_9allocatorIS1_EEED0Ev, symObjAddr: 0x2420, symBinAddr: 0x201B0, symSize: 0x30 }
  - { offset: 0x3EB37, size: 0x8, addend: 0x0, symName: __ZNSt3__120__shared_ptr_emplaceI12SubscriptionNS_9allocatorIS1_EEE16__on_zero_sharedEv, symObjAddr: 0x2450, symBinAddr: 0x201E0, symSize: 0x10 }
  - { offset: 0x3EB9F, size: 0x8, addend: 0x0, symName: __ZNSt3__120__shared_ptr_emplaceI12SubscriptionNS_9allocatorIS1_EEE21__on_zero_shared_weakEv, symObjAddr: 0x2460, symBinAddr: 0x201F0, symSize: 0x10 }
  - { offset: 0x3ECB3, size: 0x8, addend: 0x0, symName: __ZNKSt3__16vectorIP13pubnub_entityNS_9allocatorIS2_EEE20__throw_length_errorB8ne180100Ev, symObjAddr: 0x2630, symBinAddr: 0x203C0, symSize: 0x10 }
  - { offset: 0x3ECFF, size: 0x8, addend: 0x0, symName: __ZNSt3__120__shared_ptr_emplaceI15SubscriptionSetNS_9allocatorIS1_EEED1Ev, symObjAddr: 0x26C0, symBinAddr: 0x203D0, symSize: 0x20 }
  - { offset: 0x3ED2B, size: 0x8, addend: 0x0, symName: __ZNSt3__120__shared_ptr_emplaceI15SubscriptionSetNS_9allocatorIS1_EEED0Ev, symObjAddr: 0x26E0, symBinAddr: 0x203F0, symSize: 0x30 }
  - { offset: 0x3ED78, size: 0x8, addend: 0x0, symName: __ZNSt3__120__shared_ptr_emplaceI15SubscriptionSetNS_9allocatorIS1_EEE16__on_zero_sharedEv, symObjAddr: 0x2710, symBinAddr: 0x20420, symSize: 0x10 }
  - { offset: 0x3EDE0, size: 0x8, addend: 0x0, symName: __ZNSt3__120__shared_ptr_emplaceI15SubscriptionSetNS_9allocatorIS1_EEE21__on_zero_shared_weakEv, symObjAddr: 0x2720, symBinAddr: 0x20430, symSize: 0x10 }
  - { offset: 0x3EEF7, size: 0x8, addend: 0x0, symName: __ZNSt3__16vectorIN6Pubnub6StringENS_9allocatorIS2_EEE18__assign_with_sizeB8ne180100IPS2_S7_EEvT_T0_l, symObjAddr: 0x2950, symBinAddr: 0x20650, symSize: 0x290 }
  - { offset: 0x3EF01, size: 0x8, addend: 0x0, symName: __ZNSt3__114__split_bufferIN6Pubnub6StringERNS_9allocatorIS2_EEED1Ev, symObjAddr: 0x28F0, symBinAddr: 0x20600, symSize: 0x50 }
  - { offset: 0x3F3EE, size: 0x8, addend: 0x0, symName: __ZN12IntervalTaskC2ENSt3__18functionIFvvEEEi, symObjAddr: 0x0, symBinAddr: 0x20A30, symSize: 0x250 }
  - { offset: 0x3F9E3, size: 0x8, addend: 0x0, symName: __ZN12IntervalTaskC1ENSt3__18functionIFvvEEEi, symObjAddr: 0x250, symBinAddr: 0x20C80, symSize: 0x10 }
  - { offset: 0x3FA80, size: 0x8, addend: 0x0, symName: '__ZNSt3__114__thread_proxyB8ne180100INS_5tupleIJNS_10unique_ptrINS_15__thread_structENS_14default_deleteIS3_EEEEZN12IntervalTaskC1ENS_8functionIFvvEEEiE3$_0EEEEEPvSD_', symObjAddr: 0x270, symBinAddr: 0x20C90, symSize: 0x160 }
  - { offset: 0x3FF75, size: 0x8, addend: 0x0, symName: __ZN22ExponentialRateLimiterC2Ef, symObjAddr: 0x0, symBinAddr: 0x20DF0, symSize: 0x40 }
  - { offset: 0x400DE, size: 0x8, addend: 0x0, symName: __ZN22ExponentialRateLimiterC1Ef, symObjAddr: 0x40, symBinAddr: 0x20E30, symSize: 0x40 }
  - { offset: 0x402BC, size: 0x8, addend: 0x0, symName: __ZN22ExponentialRateLimiterD2Ev, symObjAddr: 0x80, symBinAddr: 0x20E70, symSize: 0x80 }
  - { offset: 0x40441, size: 0x8, addend: 0x0, symName: __ZNSt3__16__treeINS_12__value_typeIN6Pubnub6StringE15RateLimiterRootEENS_19__map_value_compareIS3_S5_NS2_14StringComparerELb1EEENS_9allocatorIS5_EEE7destroyEPNS_11__tree_nodeIS5_PvEE, symObjAddr: 0x1360, symBinAddr: 0x22140, symSize: 0xB0 }
  - { offset: 0x406AE, size: 0x8, addend: 0x0, symName: __ZN22ExponentialRateLimiterD1Ev, symObjAddr: 0x110, symBinAddr: 0x20EF0, symSize: 0x10 }
  - { offset: 0x4091F, size: 0x8, addend: 0x0, symName: __ZN22ExponentialRateLimiter17run_within_limitsERKN6Pubnub6StringEiNSt3__18functionIFS1_vEEENS5_IFvS1_EEENS5_IFvRSt9exceptionEEE, symObjAddr: 0x120, symBinAddr: 0x20F00, symSize: 0xAC0 }
  - { offset: 0x418D5, size: 0x8, addend: 0x0, symName: __ZNSt3__16__treeINS_12__value_typeIN6Pubnub6StringE15RateLimiterRootEENS_19__map_value_compareIS3_S5_NS2_14StringComparerELb1EEENS_9allocatorIS5_EEE25__emplace_unique_key_argsIS3_JNS_4pairIKS3_S4_EEEEENSD_INS_15__tree_iteratorIS5_PNS_11__tree_nodeIS5_PvEElEEbEERKT_DpOT0_, symObjAddr: 0x1870, symBinAddr: 0x22530, symSize: 0x160 }
  - { offset: 0x41B8A, size: 0x8, addend: 0x0, symName: __ZN22ExponentialRateLimiter16processor_threadEv, symObjAddr: 0xCD0, symBinAddr: 0x21AB0, symSize: 0xF0 }
  - { offset: 0x41EB1, size: 0x8, addend: 0x0, symName: __ZNSt3__15dequeI18RateLimiterElementNS_9allocatorIS1_EEE19__add_back_capacityEv, symObjAddr: 0x1B70, symBinAddr: 0x22690, symSize: 0x720 }
  - { offset: 0x42AF7, size: 0x8, addend: 0x0, symName: __ZNSt3__19allocatorI18RateLimiterElementE9constructB8ne180100IS1_JS1_EEEvPT_DpOT0_, symObjAddr: 0x2640, symBinAddr: 0x23160, symSize: 0x110 }
  - { offset: 0x42BFD, size: 0x8, addend: 0x0, symName: __ZN18RateLimiterElementD1Ev, symObjAddr: 0xDC0, symBinAddr: 0x21BA0, symSize: 0xA0 }
  - { offset: 0x42CDF, size: 0x8, addend: 0x0, symName: __ZNSt3__14pairIKN6Pubnub6StringE15RateLimiterRootED1Ev, symObjAddr: 0xBE0, symBinAddr: 0x219C0, symSize: 0x80 }
  - { offset: 0x42ED5, size: 0x8, addend: 0x0, symName: __ZN15RateLimiterRootD1Ev, symObjAddr: 0xC60, symBinAddr: 0x21A40, symSize: 0x70 }
  - { offset: 0x4307F, size: 0x8, addend: 0x0, symName: __ZNSt3__15dequeI18RateLimiterElementNS_9allocatorIS1_EEE5clearEv, symObjAddr: 0x1410, symBinAddr: 0x221F0, symSize: 0x1F0 }
  - { offset: 0x4342E, size: 0x8, addend: 0x0, symName: __ZN22ExponentialRateLimiter13process_queueEi, symObjAddr: 0xE60, symBinAddr: 0x21C40, symSize: 0x1C0 }
  - { offset: 0x43783, size: 0x8, addend: 0x0, symName: __ZN22ExponentialRateLimiter15process_limiterERKN6Pubnub6StringER15RateLimiterRoot, symObjAddr: 0x1020, symBinAddr: 0x21E00, symSize: 0x220 }
  - { offset: 0x43981, size: 0x8, addend: 0x0, symName: __ZNSt3__16__treeINS_12__value_typeIN6Pubnub6StringE15RateLimiterRootEENS_19__map_value_compareIS3_S5_NS2_14StringComparerELb1EEENS_9allocatorIS5_EEE5eraseENS_21__tree_const_iteratorIS5_PNS_11__tree_nodeIS5_PvEElEE, symObjAddr: 0x2750, symBinAddr: 0x23270, symSize: 0xE0 }
  - { offset: 0x43CA2, size: 0x8, addend: 0x0, symName: __ZN18RateLimiterElementC2ERKS_, symObjAddr: 0x1600, symBinAddr: 0x223E0, symSize: 0x150 }
  - { offset: 0x43E5A, size: 0x8, addend: 0x0, symName: __ZNSt3__15dequeI18RateLimiterElementNS_9allocatorIS1_EEE9pop_frontEv, symObjAddr: 0x1240, symBinAddr: 0x22020, symSize: 0x120 }
  - { offset: 0x442D2, size: 0x8, addend: 0x0, symName: __ZNSt3__114__split_bufferIP18RateLimiterElementNS_9allocatorIS2_EEE9push_backEOS2_, symObjAddr: 0x2290, symBinAddr: 0x22DB0, symSize: 0x1E0 }
  - { offset: 0x4453F, size: 0x8, addend: 0x0, symName: __ZNSt3__114__split_bufferIP18RateLimiterElementNS_9allocatorIS2_EEE10push_frontEOS2_, symObjAddr: 0x2470, symBinAddr: 0x22F90, symSize: 0x1D0 }
  - { offset: 0x44834, size: 0x8, addend: 0x0, symName: __ZNSt3__113__tree_removeB8ne180100IPNS_16__tree_node_baseIPvEEEEvT_S5_, symObjAddr: 0x2830, symBinAddr: 0x23350, symSize: 0x3B0 }
  - { offset: 0x44B74, size: 0x8, addend: 0x0, symName: '__ZNSt3__114__thread_proxyB8ne180100INS_5tupleIJNS_10unique_ptrINS_15__thread_structENS_14default_deleteIS3_EEEEZN22ExponentialRateLimiter16processor_threadEvE3$_0EEEEEPvSA_', symObjAddr: 0x2BE0, symBinAddr: 0x23700, symSize: 0x100 }
  - { offset: 0x44E68, size: 0x8, addend: 0x0, symName: '__ZNSt3__110unique_ptrINS_5tupleIJNS0_INS_15__thread_structENS_14default_deleteIS2_EEEEZN22ExponentialRateLimiter16processor_threadEvE3$_0EEENS3_IS8_EEED1B8ne180100Ev', symObjAddr: 0x2CE0, symBinAddr: 0x23800, symSize: 0x46 }
  - { offset: 0x44FC1, size: 0x8, addend: 0x0, symName: __ZNSt3__18functionIFvN6Pubnub12pn_log_levelEPKcEED1Ev, symObjAddr: 0x0, symBinAddr: 0x23850, symSize: 0x40 }
  - { offset: 0x45072, size: 0x8, addend: 0x0, symName: __ZN6Logger11log_messageEN6Pubnub12pn_log_levelENS0_6StringE, symObjAddr: 0x40, symBinAddr: 0x23890, symSize: 0xF0 }
  - { offset: 0x4518D, size: 0x8, addend: 0x0, symName: __ZNSt3__124__put_character_sequenceB8ne180100IcNS_11char_traitsIcEEEERNS_13basic_ostreamIT_T0_EES7_PKS4_m, symObjAddr: 0x290, symBinAddr: 0x23A70, symSize: 0x150 }
  - { offset: 0x45312, size: 0x8, addend: 0x0, symName: __ZN6Logger25register_logging_callbackENSt3__18functionIFvN6Pubnub12pn_log_levelEPKcEEE, symObjAddr: 0x130, symBinAddr: 0x23980, symSize: 0xB0 }
  - { offset: 0x4542A, size: 0x8, addend: 0x0, symName: __ZNSt3__110__function12__value_funcIFvN6Pubnub12pn_log_levelEPKcEE4swapB8ne180100ERS7_, symObjAddr: 0x550, symBinAddr: 0x23D20, symSize: 0x13B }
  - { offset: 0x454BF, size: 0x8, addend: 0x0, symName: __ZN6Logger17log_ccore_messageE16pubnub_log_levelPKc, symObjAddr: 0x1E0, symBinAddr: 0x23A30, symSize: 0x40 }
  - { offset: 0x4557E, size: 0x8, addend: 0x0, symName: __ZNSt3__116__pad_and_outputB8ne180100IcNS_11char_traitsIcEEEENS_19ostreambuf_iteratorIT_T0_EES6_PKS4_S8_S8_RNS_8ios_baseES4_, symObjAddr: 0x3E0, symBinAddr: 0x23BC0, symSize: 0x160 }
  - { offset: 0x45ADE, size: 0x8, addend: 0x0, symName: __ZNK13ChannelEntity32get_channel_metadata_json_stringEN6Pubnub6StringE, symObjAddr: 0x0, symBinAddr: 0x23E90, symSize: 0x440 }
  - { offset: 0x45D55, size: 0x8, addend: 0x0, symName: __ZN8nlohmann16json_abi_v3_11_310basic_jsonINSt3__13mapENS2_6vectorENS2_12basic_stringIcNS2_11char_traitsIcEENS2_9allocatorIcEEEEbxydS8_NS0_14adl_serializerENS4_IhNS8_IhEEEEvEC2ERKSE_, symObjAddr: 0x18F0, symBinAddr: 0x25630, symSize: 0x270 }
  - { offset: 0x46CA7, size: 0x8, addend: 0x0, symName: __ZN13ChannelEntity9from_jsonE4Json, symObjAddr: 0x460, symBinAddr: 0x242D0, symSize: 0x8B0 }
  - { offset: 0x47939, size: 0x8, addend: 0x0, symName: __ZN13ChannelEntityC2Ev, symObjAddr: 0x2D30, symBinAddr: 0x260C0, symSize: 0xF0 }
  - { offset: 0x4795E, size: 0x8, addend: 0x0, symName: __ZN13ChannelEntity21from_channel_responseE4Json, symObjAddr: 0xD60, symBinAddr: 0x24B80, symSize: 0x590 }
  - { offset: 0x480B8, size: 0x8, addend: 0x0, symName: __ZN13ChannelEntity29from_base_and_updated_channelES_S_, symObjAddr: 0x12F0, symBinAddr: 0x25110, symSize: 0x100 }
  - { offset: 0x480F8, size: 0x8, addend: 0x0, symName: __ZNK13ChannelEntity11pin_messageENSt3__14pairIN6Pubnub6StringES3_EE, symObjAddr: 0x13F0, symBinAddr: 0x25210, symSize: 0x260 }
  - { offset: 0x4817A, size: 0x8, addend: 0x0, symName: __ZNK13ChannelEntity13unpin_messageEv, symObjAddr: 0x1650, symBinAddr: 0x25470, symSize: 0x1C0 }
  - { offset: 0x48224, size: 0x8, addend: 0x0, symName: __ZN13ChannelEntityC2ERKS_, symObjAddr: 0x2E20, symBinAddr: 0x261B0, symSize: 0xD6 }
  - { offset: 0x484C0, size: 0x8, addend: 0x0, symName: __ZNSt3__16__treeINS_12__value_typeINS_12basic_stringIcNS_11char_traitsIcEENS_9allocatorIcEEEEN8nlohmann16json_abi_v3_11_310basic_jsonINS_3mapENS_6vectorES7_bxydS5_NS9_14adl_serializerENSC_IhNS5_IhEEEEvEEEENS_19__map_value_compareIS7_SH_NS_4lessIvEELb1EEENS5_ISH_EEE30__emplace_hint_unique_key_argsIS7_JRKNS_4pairIKS7_SG_EEEEENSP_INS_15__tree_iteratorISH_PNS_11__tree_nodeISH_PvEElEEbEENS_21__tree_const_iteratorISH_SY_lEERKT_DpOT0_, symObjAddr: 0x1B80, symBinAddr: 0x258A0, symSize: 0x120 }
  - { offset: 0x4878B, size: 0x8, addend: 0x0, symName: __ZNSt3__16vectorIN8nlohmann16json_abi_v3_11_310basic_jsonINS_3mapES0_NS_12basic_stringIcNS_11char_traitsIcEENS_9allocatorIcEEEEbxydS8_NS2_14adl_serializerENS0_IhNS8_IhEEEEvEENS8_ISE_EEE16__init_with_sizeB8ne180100IPSE_SI_EEvT_T0_m, symObjAddr: 0x2380, symBinAddr: 0x25EE0, symSize: 0x110 }
  - { offset: 0x48994, size: 0x8, addend: 0x0, symName: __ZNSt3__112basic_stringIcNS_11char_traitsIcEENS_9allocatorIcEEE25__init_copy_ctor_externalEPKcm, symObjAddr: 0x2130, symBinAddr: 0x25E50, symSize: 0x90 }
  - { offset: 0x48B6E, size: 0x8, addend: 0x0, symName: __ZNKSt3__16vectorIhNS_9allocatorIhEEE20__throw_length_errorB8ne180100Ev, symObjAddr: 0x2560, symBinAddr: 0x260B0, symSize: 0x10 }
  - { offset: 0x48D25, size: 0x8, addend: 0x0, symName: __ZNSt3__16__treeINS_12__value_typeINS_12basic_stringIcNS_11char_traitsIcEENS_9allocatorIcEEEEN8nlohmann16json_abi_v3_11_310basic_jsonINS_3mapENS_6vectorES7_bxydS5_NS9_14adl_serializerENSC_IhNS5_IhEEEEvEEEENS_19__map_value_compareIS7_SH_NS_4lessIvEELb1EEENS5_ISH_EEE12__find_equalIS7_EERPNS_16__tree_node_baseIPvEENS_21__tree_const_iteratorISH_PNS_11__tree_nodeISH_SQ_EElEERPNS_15__tree_end_nodeISS_EEST_RKT_, symObjAddr: 0x1CA0, symBinAddr: 0x259C0, symSize: 0x430 }
  - { offset: 0x49518, size: 0x8, addend: 0x0, symName: __ZNSt3__110unique_ptrINS_11__tree_nodeINS_12__value_typeINS_12basic_stringIcNS_11char_traitsIcEENS_9allocatorIcEEEEN8nlohmann16json_abi_v3_11_310basic_jsonINS_3mapENS_6vectorES8_bxydS6_NSA_14adl_serializerENSD_IhNS6_IhEEEEvEEEEPvEENS_22__tree_node_destructorINS6_ISK_EEEEED1B8ne180100Ev, symObjAddr: 0x20D0, symBinAddr: 0x25DF0, symSize: 0x60 }
  - { offset: 0x498A6, size: 0x8, addend: 0x0, symName: __ZNSt3__128__exception_guard_exceptionsINS_29_AllocatorDestroyRangeReverseINS_9allocatorIN8nlohmann16json_abi_v3_11_310basic_jsonINS_3mapENS_6vectorENS_12basic_stringIcNS_11char_traitsIcEENS2_IcEEEEbxydS2_NS4_14adl_serializerENS7_IhNS2_IhEEEEvEEEEPSG_EEED1B8ne180100Ev, symObjAddr: 0x2510, symBinAddr: 0x26060, symSize: 0x50 }
  - { offset: 0x498B0, size: 0x8, addend: 0x0, symName: __ZNSt3__128__exception_guard_exceptionsINS_6vectorIN8nlohmann16json_abi_v3_11_310basic_jsonINS_3mapES1_NS_12basic_stringIcNS_11char_traitsIcEENS_9allocatorIcEEEEbxydS9_NS3_14adl_serializerENS1_IhNS9_IhEEEEvEENS9_ISF_EEE16__destroy_vectorEED1B8ne180100Ev, symObjAddr: 0x2490, symBinAddr: 0x25FF0, symSize: 0x70 }
  - { offset: 0x499CB, size: 0x8, addend: 0x0, symName: __ZNSt3__128__exception_guard_exceptionsINS_29_AllocatorDestroyRangeReverseINS_9allocatorIN8nlohmann16json_abi_v3_11_310basic_jsonINS_3mapENS_6vectorENS_12basic_stringIcNS_11char_traitsIcEENS2_IcEEEEbxydS2_NS4_14adl_serializerENS7_IhNS2_IhEEEEvEEEEPSG_EEED1B8ne180100Ev, symObjAddr: 0x2510, symBinAddr: 0x26060, symSize: 0x50 }
  - { offset: 0x4A112, size: 0x8, addend: 0x0, symName: __ZN10UserEntity29get_user_metadata_json_stringEN6Pubnub6StringE, symObjAddr: 0x0, symBinAddr: 0x26290, symSize: 0x4C0 }
  - { offset: 0x4AEA3, size: 0x8, addend: 0x0, symName: __ZNK10UserEntity9is_activeEi, symObjAddr: 0x4E0, symBinAddr: 0x26750, symSize: 0x130 }
  - { offset: 0x4B0C4, size: 0x8, addend: 0x0, symName: __ZN10UserEntity25set_last_active_timestampEN6Pubnub6StringE, symObjAddr: 0x610, symBinAddr: 0x26880, symSize: 0x140 }
  - { offset: 0x4B17D, size: 0x8, addend: 0x0, symName: __ZNK10UserEntity25get_last_active_timestampEv, symObjAddr: 0x750, symBinAddr: 0x269C0, symSize: 0xF0 }
  - { offset: 0x4B2C0, size: 0x8, addend: 0x0, symName: __ZN10UserEntity9from_jsonE4Json, symObjAddr: 0x840, symBinAddr: 0x26AB0, symSize: 0xC30 }
  - { offset: 0x4C478, size: 0x8, addend: 0x0, symName: __ZN10UserEntityC2Ev, symObjAddr: 0x3700, symBinAddr: 0x28400, symSize: 0x110 }
  - { offset: 0x4C49D, size: 0x8, addend: 0x0, symName: __ZN10UserEntity18from_user_responseE4Json, symObjAddr: 0x14C0, symBinAddr: 0x276E0, symSize: 0x690 }
  - { offset: 0x4CDD3, size: 0x8, addend: 0x0, symName: __ZN10UserEntity23from_user_list_responseE4Json, symObjAddr: 0x1B50, symBinAddr: 0x27D70, symSize: 0x470 }
  - { offset: 0x4D368, size: 0x8, addend: 0x0, symName: __ZN10UserEntityC2EOS_, symObjAddr: 0x3810, symBinAddr: 0x28510, symSize: 0x100 }
  - { offset: 0x4D379, size: 0x8, addend: 0x0, symName: __ZNSt3__16vectorINS_4pairIN6Pubnub6StringE10UserEntityEENS_9allocatorIS5_EEE21__push_back_slow_pathIS5_EEPS5_OT_, symObjAddr: 0x39B0, symBinAddr: 0x286B0, symSize: 0x160 }
  - { offset: 0x4D5CA, size: 0x8, addend: 0x0, symName: __ZNSt3__16vectorINS_4pairIN6Pubnub6StringE10UserEntityEENS_9allocatorIS5_EEED1B8ne180100Ev, symObjAddr: 0x2090, symBinAddr: 0x282B0, symSize: 0x30 }
  - { offset: 0x4D696, size: 0x8, addend: 0x0, symName: __ZNSt3__14pairIN6Pubnub6StringE10UserEntityED1Ev, symObjAddr: 0x1FC0, symBinAddr: 0x281E0, symSize: 0x60 }
  - { offset: 0x4D6E6, size: 0x8, addend: 0x0, symName: __ZNSt3__14pairI4Json10UserEntityED1Ev, symObjAddr: 0x2020, symBinAddr: 0x28240, symSize: 0x70 }
  - { offset: 0x4D7BB, size: 0x8, addend: 0x0, symName: __ZNSt3__16vectorINS_4pairIN6Pubnub6StringE10UserEntityEENS_9allocatorIS5_EEE22__base_destruct_at_endB8ne180100EPS5_, symObjAddr: 0x3910, symBinAddr: 0x28610, symSize: 0xA0 }
  - { offset: 0x4D84C, size: 0x8, addend: 0x0, symName: __ZN10UserEntity26from_base_and_updated_userES_S_, symObjAddr: 0x20C0, symBinAddr: 0x282E0, symSize: 0x120 }
  - { offset: 0x4EE84, size: 0x8, addend: 0x0, symName: __ZNSt3__16vectorINS_4pairIN6Pubnub6StringE10UserEntityEENS_9allocatorIS5_EEE26__swap_out_circular_bufferERNS_14__split_bufferIS5_RS7_EE, symObjAddr: 0x3B10, symBinAddr: 0x28810, symSize: 0x120 }
  - { offset: 0x4F050, size: 0x8, addend: 0x0, symName: __ZNSt3__114__split_bufferINS_4pairIN6Pubnub6StringE10UserEntityEERNS_9allocatorIS5_EEE17__destruct_at_endB8ne180100EPS5_, symObjAddr: 0x3DF0, symBinAddr: 0x28AF0, symSize: 0x8D }
  - { offset: 0x4F0F6, size: 0x8, addend: 0x0, symName: __ZNKSt3__16vectorINS_4pairIN6Pubnub6StringE10UserEntityEENS_9allocatorIS5_EEE20__throw_length_errorB8ne180100Ev, symObjAddr: 0x3C60, symBinAddr: 0x28960, symSize: 0x10 }
  - { offset: 0x4F10B, size: 0x8, addend: 0x0, symName: __ZN10UserEntityC2ERKS_, symObjAddr: 0x3C70, symBinAddr: 0x28970, symSize: 0x100 }
  - { offset: 0x4F115, size: 0x8, addend: 0x0, symName: __ZNSt3__114__split_bufferINS_4pairIN6Pubnub6StringE10UserEntityEERNS_9allocatorIS5_EEED1Ev, symObjAddr: 0x3C30, symBinAddr: 0x28930, symSize: 0x30 }
  - { offset: 0x4F20F, size: 0x8, addend: 0x0, symName: __ZN10UserEntityC2ERKS_, symObjAddr: 0x3C70, symBinAddr: 0x28970, symSize: 0x100 }
  - { offset: 0x4F220, size: 0x8, addend: 0x0, symName: __ZNKSt3__129_AllocatorDestroyRangeReverseINS_9allocatorINS_4pairIN6Pubnub6StringE10UserEntityEEEENS_16reverse_iteratorIPS6_EEEclB8ne180100Ev, symObjAddr: 0x3D70, symBinAddr: 0x28A70, symSize: 0x80 }
  - { offset: 0x4F434, size: 0x8, addend: 0x0, symName: __ZN13MessageEntity9from_jsonEN6Pubnub6StringES1_, symObjAddr: 0x0, symBinAddr: 0x28B80, symSize: 0x1310 }
  - { offset: 0x506D1, size: 0x8, addend: 0x0, symName: __ZNSt3__16vectorIN6Pubnub13MessageActionENS_9allocatorIS2_EEE21__push_back_slow_pathIRKS2_EEPS2_OT_, symObjAddr: 0x4DB0, symBinAddr: 0x2CDF0, symSize: 0x1D0 }
  - { offset: 0x50B24, size: 0x8, addend: 0x0, symName: __ZN13MessageEntity17from_history_jsonE4JsonN6Pubnub6StringE, symObjAddr: 0x1400, symBinAddr: 0x29E90, symSize: 0x710 }
  - { offset: 0x51239, size: 0x8, addend: 0x0, symName: __ZN13MessageEntityC2ERKS_, symObjAddr: 0x4AA0, symBinAddr: 0x2CAE0, symSize: 0xD0 }
  - { offset: 0x5126C, size: 0x8, addend: 0x0, symName: __ZNSt3__14pairIN6Pubnub6StringE13MessageEntityEC2B8ne180100I4JsonS3_Li0EEEONS0_IT_T0_EE, symObjAddr: 0x4860, symBinAddr: 0x2C8A0, symSize: 0xF0 }
  - { offset: 0x512C2, size: 0x8, addend: 0x0, symName: __ZNSt3__14pairIN6Pubnub6StringE13MessageEntityEC2B8ne180100EOS4_, symObjAddr: 0x5310, symBinAddr: 0x2D350, symSize: 0xF0 }
  - { offset: 0x51318, size: 0x8, addend: 0x0, symName: __ZNSt3__16vectorINS_4pairIN6Pubnub6StringE13MessageEntityEENS_9allocatorIS5_EEE21__push_back_slow_pathIS5_EEPS5_OT_, symObjAddr: 0x5130, symBinAddr: 0x2D170, symSize: 0x1E0 }
  - { offset: 0x5177D, size: 0x8, addend: 0x0, symName: __ZNSt3__14pairIN6Pubnub6StringE13MessageEntityED2Ev, symObjAddr: 0x4950, symBinAddr: 0x2C990, symSize: 0xA0 }
  - { offset: 0x518D7, size: 0x8, addend: 0x0, symName: __ZNSt3__14pairI4Json13MessageEntityED2Ev, symObjAddr: 0x49F0, symBinAddr: 0x2CA30, symSize: 0xB0 }
  - { offset: 0x51A8E, size: 0x8, addend: 0x0, symName: __ZNSt3__16vectorINS_4pairIN6Pubnub6StringE13MessageEntityEENS_9allocatorIS5_EEED1B8ne180100Ev, symObjAddr: 0x1B10, symBinAddr: 0x2A5A0, symSize: 0x70 }
  - { offset: 0x51BD1, size: 0x8, addend: 0x0, symName: __ZNK13MessageEntity9edit_textERKN6Pubnub6StringES3_, symObjAddr: 0x1B80, symBinAddr: 0x2A610, symSize: 0x150 }
  - { offset: 0x51DB4, size: 0x8, addend: 0x0, symName: __ZNK13MessageEntity12current_textEv, symObjAddr: 0x1CD0, symBinAddr: 0x2A760, symSize: 0x140 }
  - { offset: 0x52031, size: 0x8, addend: 0x0, symName: __ZNSt3__120back_insert_iteratorINS_6vectorIN6Pubnub13MessageActionENS_9allocatorIS3_EEEEEaSB8ne180100ERKS3_, symObjAddr: 0x5460, symBinAddr: 0x2D4A0, symSize: 0xC0 }
  - { offset: 0x520F6, size: 0x8, addend: 0x0, symName: '__ZNSt3__111__introsortINS_17_ClassicAlgPolicyERZNK13MessageEntity12current_textEvE3$_1PN6Pubnub13MessageActionELb0EEEvT1_S8_T0_NS_15iterator_traitsIS8_E15difference_typeEb', symObjAddr: 0x5520, symBinAddr: 0x2D560, symSize: 0x1200 }
  - { offset: 0x52964, size: 0x8, addend: 0x0, symName: __ZNK13MessageEntity14delete_messageERKN6Pubnub6StringES3_, symObjAddr: 0x1E90, symBinAddr: 0x2A8A0, symSize: 0x140 }
  - { offset: 0x52ACC, size: 0x8, addend: 0x0, symName: __ZNK13MessageEntity10is_deletedEv, symObjAddr: 0x1FD0, symBinAddr: 0x2A9E0, symSize: 0x40 }
  - { offset: 0x52B64, size: 0x8, addend: 0x0, symName: __ZNK13MessageEntity13get_reactionsEv, symObjAddr: 0x2010, symBinAddr: 0x2AA20, symSize: 0x80 }
  - { offset: 0x52CD4, size: 0x8, addend: 0x0, symName: __ZNK13MessageEntity27get_user_reaction_timetokenERKN6Pubnub6StringES3_, symObjAddr: 0x2090, symBinAddr: 0x2AAA0, symSize: 0x1D0 }
  - { offset: 0x5318D, size: 0x8, addend: 0x0, symName: __ZNK13MessageEntity20remove_user_reactionERKN6Pubnub6StringE, symObjAddr: 0x2260, symBinAddr: 0x2AC70, symSize: 0x150 }
  - { offset: 0x533C8, size: 0x8, addend: 0x0, symName: __ZNK13MessageEntity17add_user_reactionERKN6Pubnub6StringES3_S3_, symObjAddr: 0x23B0, symBinAddr: 0x2ADC0, symSize: 0x130 }
  - { offset: 0x535D4, size: 0x8, addend: 0x0, symName: __ZNK13MessageEntity19get_mentioned_usersEv, symObjAddr: 0x24E0, symBinAddr: 0x2AEF0, symSize: 0x560 }
  - { offset: 0x53FDB, size: 0x8, addend: 0x0, symName: __ZNK13MessageEntity23get_referenced_channelsEv, symObjAddr: 0x2A40, symBinAddr: 0x2B450, symSize: 0x560 }
  - { offset: 0x547E2, size: 0x8, addend: 0x0, symName: __ZNSt3__16__treeINS_12__value_typeIiN6Pubnub17ReferencedChannelEEENS_19__map_value_compareIiS4_NS_4lessIiEELb1EEENS_9allocatorIS4_EEE25__emplace_unique_key_argsIiJRKNS_21piecewise_construct_tENS_5tupleIJRKiEEENSG_IJEEEEEENS_4pairINS_15__tree_iteratorIS4_PNS_11__tree_nodeIS4_PvEElEEbEERKT_DpOT0_, symObjAddr: 0x7220, symBinAddr: 0x2EF30, symSize: 0x130 }
  - { offset: 0x54A84, size: 0x8, addend: 0x0, symName: __ZNK13MessageEntity18get_quoted_messageEv, symObjAddr: 0x2FA0, symBinAddr: 0x2B9B0, symSize: 0x6C0 }
  - { offset: 0x552FF, size: 0x8, addend: 0x0, symName: __ZNK13MessageEntity14get_text_linksEv, symObjAddr: 0x36A0, symBinAddr: 0x2C070, symSize: 0x4E0 }
  - { offset: 0x55833, size: 0x8, addend: 0x0, symName: __ZNSt3__16vectorIN6Pubnub8TextLinkENS_9allocatorIS2_EEE21__push_back_slow_pathIRKS2_EEPS2_OT_, symObjAddr: 0x7350, symBinAddr: 0x2F060, symSize: 0x200 }
  - { offset: 0x55D3A, size: 0x8, addend: 0x0, symName: __ZN13MessageEntity29from_base_and_updated_messageES_S_, symObjAddr: 0x3BF0, symBinAddr: 0x2C550, symSize: 0x260 }
  - { offset: 0x56146, size: 0x8, addend: 0x0, symName: __ZNSt3__16vectorIN6Pubnub13MessageActionENS_9allocatorIS2_EEE18__insert_with_sizeB8ne180100INS_11__wrap_iterIPS2_EES9_EES9_NS7_IPKS2_EET_T0_l, symObjAddr: 0x75B0, symBinAddr: 0x2F2C0, symSize: 0x330 }
  - { offset: 0x56618, size: 0x8, addend: 0x0, symName: '__ZNSt3__111__introsortINS_17_ClassicAlgPolicyERZN13MessageEntity29from_base_and_updated_messageES2_S2_E3$_0PN6Pubnub13MessageActionELb0EEEvT1_S8_T0_NS_15iterator_traitsIS8_E15difference_typeEb', symObjAddr: 0x7CB0, symBinAddr: 0x2F9C0, symSize: 0x1200 }
  - { offset: 0x56E03, size: 0x8, addend: 0x0, symName: __ZNSt3__16vectorIN6Pubnub13MessageActionENS_9allocatorIS2_EEE5eraseENS_11__wrap_iterIPKS2_EES9_, symObjAddr: 0x3E50, symBinAddr: 0x2C7B0, symSize: 0xF0 }
  - { offset: 0x576DD, size: 0x8, addend: 0x0, symName: __ZNSt3__16vectorIN6Pubnub13MessageActionENS_9allocatorIS2_EEEC2ERKS5_, symObjAddr: 0x4B70, symBinAddr: 0x2CBB0, symSize: 0xD0 }
  - { offset: 0x5789B, size: 0x8, addend: 0x0, symName: __ZNSt3__135__uninitialized_allocator_copy_implB8ne180100INS_9allocatorIN6Pubnub13MessageActionEEEPS3_S5_S5_EET2_RT_T0_T1_S6_, symObjAddr: 0x4C50, symBinAddr: 0x2CC90, symSize: 0xF0 }
  - { offset: 0x5793B, size: 0x8, addend: 0x0, symName: __ZNKSt3__16vectorIN6Pubnub13MessageActionENS_9allocatorIS2_EEE20__throw_length_errorB8ne180100Ev, symObjAddr: 0x4C40, symBinAddr: 0x2CC80, symSize: 0x10 }
  - { offset: 0x57950, size: 0x8, addend: 0x0, symName: __ZNSt3__135__uninitialized_allocator_copy_implB8ne180100INS_9allocatorIN6Pubnub13MessageActionEEEPS3_S5_S5_EET2_RT_T0_T1_S6_, symObjAddr: 0x4C50, symBinAddr: 0x2CC90, symSize: 0xF0 }
  - { offset: 0x5795A, size: 0x8, addend: 0x0, symName: __ZNSt3__16vectorIN6Pubnub13MessageActionENS_9allocatorIS2_EEEC2ERKS5_.cold.1, symObjAddr: 0x9560, symBinAddr: 0xDCF60, symSize: 0x68 }
  - { offset: 0x57ABD, size: 0x8, addend: 0x0, symName: __ZNSt3__128__exception_guard_exceptionsINS_29_AllocatorDestroyRangeReverseINS_9allocatorIN6Pubnub13MessageActionEEEPS4_EEED1B8ne180100Ev, symObjAddr: 0x4D40, symBinAddr: 0x2CD80, symSize: 0x70 }
  - { offset: 0x57C43, size: 0x8, addend: 0x0, symName: __ZNSt3__16vectorIN6Pubnub13MessageActionENS_9allocatorIS2_EEE26__swap_out_circular_bufferERNS_14__split_bufferIS2_RS4_EE, symObjAddr: 0x4F80, symBinAddr: 0x2CFC0, symSize: 0x140 }
  - { offset: 0x57DA9, size: 0x8, addend: 0x0, symName: __ZNSt3__114__split_bufferIN6Pubnub13MessageActionERNS_9allocatorIS2_EEED1Ev, symObjAddr: 0x50C0, symBinAddr: 0x2D100, symSize: 0x70 }
  - { offset: 0x57F94, size: 0x8, addend: 0x0, symName: __ZNKSt3__16vectorINS_4pairIN6Pubnub6StringE13MessageEntityEENS_9allocatorIS5_EEE20__throw_length_errorB8ne180100Ev, symObjAddr: 0x5450, symBinAddr: 0x2D490, symSize: 0x10 }
  - { offset: 0x57FA9, size: 0x8, addend: 0x0, symName: __ZNSt3__120back_insert_iteratorINS_6vectorIN6Pubnub13MessageActionENS_9allocatorIS3_EEEEEaSB8ne180100ERKS3_, symObjAddr: 0x5460, symBinAddr: 0x2D4A0, symSize: 0xC0 }
  - { offset: 0x57FB3, size: 0x8, addend: 0x0, symName: __ZNSt3__114__split_bufferINS_4pairIN6Pubnub6StringE13MessageEntityEERNS_9allocatorIS5_EEED1Ev, symObjAddr: 0x5400, symBinAddr: 0x2D440, symSize: 0x50 }
  - { offset: 0x5814C, size: 0x8, addend: 0x0, symName: '__ZNSt3__17__sort3B8ne180100INS_17_ClassicAlgPolicyERZNK13MessageEntity12current_textEvE3$_1PN6Pubnub13MessageActionEEEjT1_S8_S8_T0_', symObjAddr: 0x6810, symBinAddr: 0x2E850, symSize: 0xF0 }
  - { offset: 0x5823E, size: 0x8, addend: 0x0, symName: __ZNSt3__14swapB8ne180100IN6Pubnub13MessageActionEEENS_9enable_ifIXaasr21is_move_constructibleIT_EE5valuesr18is_move_assignableIS4_EE5valueEvE4typeERS4_S7_, symObjAddr: 0x6D10, symBinAddr: 0x2ED50, symSize: 0x120 }
  - { offset: 0x582C7, size: 0x8, addend: 0x0, symName: '__ZNSt3__127__insertion_sort_incompleteB8ne180100INS_17_ClassicAlgPolicyERZNK13MessageEntity12current_textEvE3$_1PN6Pubnub13MessageActionEEEbT1_S8_T0_', symObjAddr: 0x6900, symBinAddr: 0x2E940, symSize: 0x410 }
  - { offset: 0x58435, size: 0x8, addend: 0x0, symName: '__ZNSt3__17__sort4B8ne180100INS_17_ClassicAlgPolicyERZNK13MessageEntity12current_textEvE3$_1PN6Pubnub13MessageActionEEEvT1_S8_S8_S8_T0_', symObjAddr: 0x6E30, symBinAddr: 0x2EE70, symSize: 0xC0 }
  - { offset: 0x58532, size: 0x8, addend: 0x0, symName: '__ZNSt3__124__sort5_maybe_branchlessB8ne180100INS_17_ClassicAlgPolicyERZNK13MessageEntity12current_textEvE3$_1PN6Pubnub13MessageActionELi0EEEvT1_S8_S8_S8_S8_T0_', symObjAddr: 0x6720, symBinAddr: 0x2E760, symSize: 0xF0 }
  - { offset: 0x588F8, size: 0x8, addend: 0x0, symName: __ZNKSt3__16vectorIN6Pubnub8TextLinkENS_9allocatorIS2_EEE20__throw_length_errorB8ne180100Ev, symObjAddr: 0x75A0, symBinAddr: 0x2F2B0, symSize: 0x10 }
  - { offset: 0x5890D, size: 0x8, addend: 0x0, symName: __ZNSt3__16vectorIN6Pubnub13MessageActionENS_9allocatorIS2_EEE18__insert_with_sizeB8ne180100INS_11__wrap_iterIPS2_EES9_EES9_NS7_IPKS2_EET_T0_l, symObjAddr: 0x75B0, symBinAddr: 0x2F2C0, symSize: 0x330 }
  - { offset: 0x58917, size: 0x8, addend: 0x0, symName: __ZNSt3__114__split_bufferIN6Pubnub8TextLinkERNS_9allocatorIS2_EEED1Ev, symObjAddr: 0x7550, symBinAddr: 0x2F260, symSize: 0x50 }
  - { offset: 0x58AAC, size: 0x8, addend: 0x0, symName: __ZNSt3__16vectorIN6Pubnub13MessageActionENS_9allocatorIS2_EEE12__move_rangeEPS2_S6_S6_, symObjAddr: 0x78E0, symBinAddr: 0x2F5F0, symSize: 0x170 }
  - { offset: 0x58B9F, size: 0x8, addend: 0x0, symName: __ZNSt3__16vectorIN6Pubnub13MessageActionENS_9allocatorIS2_EEE26__swap_out_circular_bufferERNS_14__split_bufferIS2_RS4_EEPS2_, symObjAddr: 0x7A50, symBinAddr: 0x2F760, symSize: 0x170 }
  - { offset: 0x58D51, size: 0x8, addend: 0x0, symName: __ZNSt3__142__uninitialized_allocator_move_if_noexceptB8ne180100INS_9allocatorIN6Pubnub13MessageActionEEEPS3_S5_S5_EET2_RT_T0_T1_S6_, symObjAddr: 0x7BC0, symBinAddr: 0x2F8D0, symSize: 0xF0 }
  - { offset: 0x58EC9, size: 0x8, addend: 0x0, symName: '__ZNSt3__127__insertion_sort_incompleteB8ne180100INS_17_ClassicAlgPolicyERZN13MessageEntity29from_base_and_updated_messageES2_S2_E3$_0PN6Pubnub13MessageActionEEEbT1_S8_T0_', symObjAddr: 0x9090, symBinAddr: 0x30BC0, symSize: 0x410 }
  - { offset: 0x59216, size: 0x8, addend: 0x0, symName: __ZN16MembershipEntity31get_set_memberships_json_stringEN6Pubnub6StringE, symObjAddr: 0x0, symBinAddr: 0x30FD0, symSize: 0x4E0 }
  - { offset: 0x5A21A, size: 0x8, addend: 0x0, symName: __ZN16MembershipEntity9from_jsonE4Json, symObjAddr: 0x500, symBinAddr: 0x314B0, symSize: 0x2B0 }
  - { offset: 0x5A5AE, size: 0x8, addend: 0x0, symName: __ZN16MembershipEntity32from_base_and_updated_membershipES_S_, symObjAddr: 0x7B0, symBinAddr: 0x31760, symSize: 0x100 }
  - { offset: 0x5BC07, size: 0x8, addend: 0x0, symName: __ZN7Parsers10PubnubJson10is_messageEN6Pubnub6StringE, symObjAddr: 0x0, symBinAddr: 0x31860, symSize: 0x1D0 }
  - { offset: 0x5C39E, size: 0x8, addend: 0x0, symName: __ZN7Parsers10PubnubJson17is_message_updateEN6Pubnub6StringE, symObjAddr: 0x1F0, symBinAddr: 0x31A30, symSize: 0x1D0 }
  - { offset: 0x5C49E, size: 0x8, addend: 0x0, symName: __ZN7Parsers10PubnubJson17is_channel_updateEN6Pubnub6StringE, symObjAddr: 0x3C0, symBinAddr: 0x31C00, symSize: 0x310 }
  - { offset: 0x5C615, size: 0x8, addend: 0x0, symName: __ZN7Parsers10PubnubJson14is_user_updateEN6Pubnub6StringE, symObjAddr: 0x6D0, symBinAddr: 0x31F10, symSize: 0x310 }
  - { offset: 0x5C78C, size: 0x8, addend: 0x0, symName: __ZN7Parsers10PubnubJson8is_eventEN6Pubnub6StringE, symObjAddr: 0x9E0, symBinAddr: 0x32220, symSize: 0x7D0 }
  - { offset: 0x5CBB3, size: 0x8, addend: 0x0, symName: __ZN7Parsers10PubnubJson11is_presenceEN6Pubnub6StringE, symObjAddr: 0x11B0, symBinAddr: 0x329F0, symSize: 0x100 }
  - { offset: 0x5CC3C, size: 0x8, addend: 0x0, symName: __ZN7Parsers10PubnubJson20is_membership_updateEN6Pubnub6StringE, symObjAddr: 0x12B0, symBinAddr: 0x32AF0, symSize: 0x310 }
  - { offset: 0x5CE31, size: 0x8, addend: 0x0, symName: __ZN7Parsers10PubnubJson10to_messageE17pubnub_v2_message, symObjAddr: 0x15C0, symBinAddr: 0x32E00, symSize: 0x1E0 }
  - { offset: 0x5D056, size: 0x8, addend: 0x0, symName: __ZL24json_field_from_pn_block21pubnub_char_mem_blockN6Pubnub6StringE, symObjAddr: 0x17A0, symBinAddr: 0x32FE0, symSize: 0x110 }
  - { offset: 0x5D27D, size: 0x8, addend: 0x0, symName: __ZNSt3__14pairIN6Pubnub6StringE13MessageEntityEC2B8ne180100IS2_S3_Li0EEEOT_OT0_, symObjAddr: 0x4330, symBinAddr: 0x35060, symSize: 0xF0 }
  - { offset: 0x5D3F8, size: 0x8, addend: 0x0, symName: __ZN7Parsers10PubnubJson17to_message_updateE17pubnub_v2_message, symObjAddr: 0x1950, symBinAddr: 0x330F0, symSize: 0xB10 }
  - { offset: 0x5D954, size: 0x8, addend: 0x0, symName: __ZL24json_field_from_pn_block21pubnub_char_mem_blockN6Pubnub6StringES1_, symObjAddr: 0x2460, symBinAddr: 0x33C00, symSize: 0x240 }
  - { offset: 0x5DC3F, size: 0x8, addend: 0x0, symName: __ZNSt3__16vectorIN6Pubnub13MessageActionENS_9allocatorIS2_EEE21__push_back_slow_pathIS2_EEPS2_OT_, symObjAddr: 0x4600, symBinAddr: 0x35230, symSize: 0x1D0 }
  - { offset: 0x5E064, size: 0x8, addend: 0x0, symName: __ZN7Parsers10PubnubJson10to_channelE17pubnub_v2_message, symObjAddr: 0x2750, symBinAddr: 0x33E40, symSize: 0x220 }
  - { offset: 0x5E1F7, size: 0x8, addend: 0x0, symName: __ZN13ChannelEntityC2EOS_, symObjAddr: 0x4420, symBinAddr: 0x35150, symSize: 0xE0 }
  - { offset: 0x5E23A, size: 0x8, addend: 0x0, symName: __ZN7Parsers10PubnubJson7to_userE17pubnub_v2_message, symObjAddr: 0x29C0, symBinAddr: 0x34060, symSize: 0x230 }
  - { offset: 0x5E3E0, size: 0x8, addend: 0x0, symName: __ZN7Parsers10PubnubJson22membership_from_stringEN6Pubnub6StringE, symObjAddr: 0x2C40, symBinAddr: 0x34290, symSize: 0xF0 }
  - { offset: 0x5E4D3, size: 0x8, addend: 0x0, symName: __ZN7Parsers10PubnubJson9to_stringE17pubnub_v2_message, symObjAddr: 0x2D30, symBinAddr: 0x34380, symSize: 0x20 }
  - { offset: 0x5E4FF, size: 0x8, addend: 0x0, symName: __ZN7Parsers10PubnubJson8to_eventE17pubnub_v2_message, symObjAddr: 0x2D50, symBinAddr: 0x343A0, symSize: 0x490 }
  - { offset: 0x5E66E, size: 0x8, addend: 0x0, symName: __ZN7Parsers10PubnubJson10event_typeEN6Pubnub6StringE, symObjAddr: 0x31E0, symBinAddr: 0x34830, symSize: 0xF0 }
  - { offset: 0x5E754, size: 0x8, addend: 0x0, symName: __ZN7Parsers10PubnubJson24message_update_timetokenEN6Pubnub6StringE, symObjAddr: 0x32D0, symBinAddr: 0x34920, symSize: 0x150 }
  - { offset: 0x5E8A4, size: 0x8, addend: 0x0, symName: __ZN7Parsers10PubnubJson18membership_channelEN6Pubnub6StringE, symObjAddr: 0x3420, symBinAddr: 0x34A70, symSize: 0x1B0 }
  - { offset: 0x5EA5E, size: 0x8, addend: 0x0, symName: __ZN7Parsers10PubnubJson15membership_userEN6Pubnub6StringE, symObjAddr: 0x35D0, symBinAddr: 0x34C20, symSize: 0x1B0 }
  - { offset: 0x5EC18, size: 0x8, addend: 0x0, symName: __ZN7Parsers10PubnubJson23membership_custom_fieldEN6Pubnub6StringE, symObjAddr: 0x3780, symBinAddr: 0x34DD0, symSize: 0xF0 }
  - { offset: 0x5ECFE, size: 0x8, addend: 0x0, symName: __ZN7Parsers10PubnubJson23contains_parent_messageEN6Pubnub6StringE, symObjAddr: 0x3870, symBinAddr: 0x34EC0, symSize: 0x1A0 }
  - { offset: 0x5F9E9, size: 0x8, addend: 0x0, symName: __ZN4JsonC2EN6Pubnub6StringE, symObjAddr: 0x0, symBinAddr: 0x35400, symSize: 0xB0 }
  - { offset: 0x5FB20, size: 0x8, addend: 0x0, symName: __ZN8nlohmann16json_abi_v3_11_310basic_jsonINSt3__13mapENS2_6vectorENS2_12basic_stringIcNS2_11char_traitsIcEENS2_9allocatorIcEEEEbxydS8_NS0_14adl_serializerENS4_IhNS8_IhEEEEvE5parseIRN6Pubnub6StringEEESE_OT_NS2_8functionIFbiNS0_6detail13parse_event_tERSE_EEEbb, symObjAddr: 0xB0, symBinAddr: 0x354B0, symSize: 0x2C0 }
  - { offset: 0x60174, size: 0x8, addend: 0x0, symName: __ZN8nlohmann16json_abi_v3_11_36detail6parserINS0_10basic_jsonINSt3__13mapENS4_6vectorENS4_12basic_stringIcNS4_11char_traitsIcEENS4_9allocatorIcEEEEbxydSA_NS0_14adl_serializerENS6_IhNSA_IhEEEEvEENS1_22iterator_input_adapterIPKcEEEC2EOSK_NS4_8functionIFbiNS1_13parse_event_tERSG_EEEbb, symObjAddr: 0x39F0, symBinAddr: 0x37BF0, symSize: 0x130 }
  - { offset: 0x602B4, size: 0x8, addend: 0x0, symName: __ZN8nlohmann16json_abi_v3_11_36detail6parserINS0_10basic_jsonINSt3__13mapENS4_6vectorENS4_12basic_stringIcNS4_11char_traitsIcEENS4_9allocatorIcEEEEbxydSA_NS0_14adl_serializerENS6_IhNSA_IhEEEEvEENS1_22iterator_input_adapterIPKcEEE5parseEbRSG_, symObjAddr: 0x3020, symBinAddr: 0x37220, symSize: 0x8A0 }
  - { offset: 0x61730, size: 0x8, addend: 0x0, symName: __ZN8nlohmann16json_abi_v3_11_36detail6parserINS0_10basic_jsonINSt3__13mapENS4_6vectorENS4_12basic_stringIcNS4_11char_traitsIcEENS4_9allocatorIcEEEEbxydSA_NS0_14adl_serializerENS6_IhNSA_IhEEEEvEENS1_22iterator_input_adapterIPKcEEED1Ev, symObjAddr: 0x38C0, symBinAddr: 0x37AC0, symSize: 0x60 }
  - { offset: 0x61989, size: 0x8, addend: 0x0, symName: __ZN4JsonC1EN6Pubnub6StringE, symObjAddr: 0x370, symBinAddr: 0x35770, symSize: 0xB0 }
  - { offset: 0x61AD3, size: 0x8, addend: 0x0, symName: __ZN4JsonC2EN8nlohmann16json_abi_v3_11_310basic_jsonINSt3__13mapENS3_6vectorENS3_12basic_stringIcNS3_11char_traitsIcEENS3_9allocatorIcEEEEbxydS9_NS1_14adl_serializerENS5_IhNS9_IhEEEEvEE, symObjAddr: 0x420, symBinAddr: 0x35820, symSize: 0x10 }
  - { offset: 0x61F61, size: 0x8, addend: 0x0, symName: __ZN4JsonC1EN8nlohmann16json_abi_v3_11_310basic_jsonINSt3__13mapENS3_6vectorENS3_12basic_stringIcNS3_11char_traitsIcEENS3_9allocatorIcEEEEbxydS9_NS1_14adl_serializerENS5_IhNS9_IhEEEEvEE, symObjAddr: 0x430, symBinAddr: 0x35830, symSize: 0x10 }
  - { offset: 0x61FAF, size: 0x8, addend: 0x0, symName: __ZN4Json5parseEN6Pubnub6StringE, symObjAddr: 0x440, symBinAddr: 0x35840, symSize: 0xE0 }
  - { offset: 0x6212A, size: 0x8, addend: 0x0, symName: __ZN4Json6objectEv, symObjAddr: 0x520, symBinAddr: 0x35920, symSize: 0x70 }
  - { offset: 0x6220E, size: 0x8, addend: 0x0, symName: __ZN8nlohmann16json_abi_v3_11_310basic_jsonINSt3__13mapENS2_6vectorENS2_12basic_stringIcNS2_11char_traitsIcEENS2_9allocatorIcEEEEbxydS8_NS0_14adl_serializerENS4_IhNS8_IhEEEEvEC2ESt16initializer_listINS0_6detail8json_refISE_EEEbNSG_7value_tE, symObjAddr: 0xEEE0, symBinAddr: 0x41A60, symSize: 0x2C0 }
  - { offset: 0x62E36, size: 0x8, addend: 0x0, symName: __ZNK4JsonixEN6Pubnub6StringE, symObjAddr: 0x5B0, symBinAddr: 0x35990, symSize: 0xA0 }
  - { offset: 0x63093, size: 0x8, addend: 0x0, symName: __ZNK8nlohmann16json_abi_v3_11_310basic_jsonINSt3__13mapENS2_6vectorENS2_12basic_stringIcNS2_11char_traitsIcEENS2_9allocatorIcEEEEbxydS8_NS0_14adl_serializerENS4_IhNS8_IhEEEEvEixERKSA_, symObjAddr: 0x650, symBinAddr: 0x35A30, symSize: 0xD0 }
  - { offset: 0x631C1, size: 0x8, addend: 0x0, symName: __ZNSt3__16__treeINS_12__value_typeINS_12basic_stringIcNS_11char_traitsIcEENS_9allocatorIcEEEEN8nlohmann16json_abi_v3_11_310basic_jsonINS_3mapENS_6vectorES7_bxydS5_NS9_14adl_serializerENSC_IhNS5_IhEEEEvEEEENS_19__map_value_compareIS7_SH_NS_4lessIvEELb1EEENS5_ISH_EEE4findIS7_EENS_15__tree_iteratorISH_PNS_11__tree_nodeISH_PvEElEERKT_, symObjAddr: 0xF6A0, symBinAddr: 0x42010, symSize: 0x120 }
  - { offset: 0x63473, size: 0x8, addend: 0x0, symName: __ZN8nlohmann16json_abi_v3_11_36detail10type_error6createIPKNS0_10basic_jsonINSt3__13mapENS5_6vectorENS5_12basic_stringIcNS5_11char_traitsIcEENS5_9allocatorIcEEEEbxydSB_NS0_14adl_serializerENS7_IhNSB_IhEEEEvEELi0EEES2_iRKSD_T_, symObjAddr: 0x1DD0, symBinAddr: 0x36DE0, symSize: 0x190 }
  - { offset: 0x63CD8, size: 0x8, addend: 0x0, symName: __ZNK4JsonixEi, symObjAddr: 0x720, symBinAddr: 0x35B00, symSize: 0x70 }
  - { offset: 0x63DB3, size: 0x8, addend: 0x0, symName: __ZNK8nlohmann16json_abi_v3_11_310basic_jsonINSt3__13mapENS2_6vectorENS2_12basic_stringIcNS2_11char_traitsIcEENS2_9allocatorIcEEEEbxydS8_NS0_14adl_serializerENS4_IhNS8_IhEEEEvEixEm, symObjAddr: 0x790, symBinAddr: 0x35B70, symSize: 0xD0 }
  - { offset: 0x63FB7, size: 0x8, addend: 0x0, symName: __ZN4JsonaSEN6Pubnub6StringE, symObjAddr: 0x860, symBinAddr: 0x35C40, symSize: 0x120 }
  - { offset: 0x641F7, size: 0x8, addend: 0x0, symName: __ZNK4JsoncvN6Pubnub6StringEEv, symObjAddr: 0x980, symBinAddr: 0x35D60, symSize: 0x70 }
  - { offset: 0x643AD, size: 0x8, addend: 0x0, symName: __ZN8nlohmann16json_abi_v3_11_36detail9from_jsonINS0_10basic_jsonINSt3__13mapENS4_6vectorENS4_12basic_stringIcNS4_11char_traitsIcEENS4_9allocatorIcEEEEbxydSA_NS0_14adl_serializerENS6_IhNSA_IhEEEEvEEEEvRKT_RNSH_8string_tE, symObjAddr: 0x1D00, symBinAddr: 0x36D10, symSize: 0xD0 }
  - { offset: 0x644FF, size: 0x8, addend: 0x0, symName: __ZNK4Json8containsEN6Pubnub6StringE, symObjAddr: 0x9F0, symBinAddr: 0x35DD0, symSize: 0x80 }
  - { offset: 0x6475F, size: 0x8, addend: 0x0, symName: __ZNK4Json7is_nullEv, symObjAddr: 0xA70, symBinAddr: 0x35E50, symSize: 0x10 }
  - { offset: 0x64785, size: 0x8, addend: 0x0, symName: __ZNK4Json4dumpEv, symObjAddr: 0xA80, symBinAddr: 0x35E60, symSize: 0x70 }
  - { offset: 0x65944, size: 0x8, addend: 0x0, symName: __ZN4Json5eraseEN6Pubnub6StringE, symObjAddr: 0xDA0, symBinAddr: 0x35ED0, symSize: 0x60 }
  - { offset: 0x65AF9, size: 0x8, addend: 0x0, symName: __ZN8nlohmann16json_abi_v3_11_310basic_jsonINSt3__13mapENS2_6vectorENS2_12basic_stringIcNS2_11char_traitsIcEENS2_9allocatorIcEEEEbxydS8_NS0_14adl_serializerENS4_IhNS8_IhEEEEvE14erase_internalIRKSA_Li0EEEmOT_, symObjAddr: 0x11AD0, symBinAddr: 0x42130, symSize: 0xF0 }
  - { offset: 0x65C91, size: 0x8, addend: 0x0, symName: __ZN4Json4sizeEv, symObjAddr: 0xE00, symBinAddr: 0x35F30, symSize: 0x40 }
  - { offset: 0x65D8E, size: 0x8, addend: 0x0, symName: __ZNK4Json10get_stringEN6Pubnub6StringE, symObjAddr: 0xE40, symBinAddr: 0x35F70, symSize: 0x330 }
  - { offset: 0x669D8, size: 0x8, addend: 0x0, symName: __ZNK4Json8get_boolEN6Pubnub6StringE, symObjAddr: 0x1170, symBinAddr: 0x362A0, symSize: 0x1C0 }
  - { offset: 0x6702F, size: 0x8, addend: 0x0, symName: __ZN8nlohmann16json_abi_v3_11_36detail9from_jsonINS0_10basic_jsonINSt3__13mapENS4_6vectorENS4_12basic_stringIcNS4_11char_traitsIcEENS4_9allocatorIcEEEEbxydSA_NS0_14adl_serializerENS6_IhNSA_IhEEEEvEEEEvRKT_RNSH_9boolean_tE, symObjAddr: 0x24B0, symBinAddr: 0x37010, symSize: 0xC0 }
  - { offset: 0x6714B, size: 0x8, addend: 0x0, symName: __ZNK4Json7get_intEN6Pubnub6StringE, symObjAddr: 0x1330, symBinAddr: 0x36460, symSize: 0x1D0 }
  - { offset: 0x677A2, size: 0x8, addend: 0x0, symName: __ZN8nlohmann16json_abi_v3_11_36detail9from_jsonINS0_10basic_jsonINSt3__13mapENS4_6vectorENS4_12basic_stringIcNS4_11char_traitsIcEENS4_9allocatorIcEEEEbxydSA_NS0_14adl_serializerENS6_IhNSA_IhEEEEvEEiLi0EEEvRKT_RT0_, symObjAddr: 0x25F0, symBinAddr: 0x370D0, symSize: 0x100 }
  - { offset: 0x678A2, size: 0x8, addend: 0x0, symName: __ZNK4Json8is_arrayEv, symObjAddr: 0x1500, symBinAddr: 0x36630, symSize: 0x10 }
  - { offset: 0x678C8, size: 0x8, addend: 0x0, symName: __ZNK4Json9is_objectEv, symObjAddr: 0x1510, symBinAddr: 0x36640, symSize: 0x10 }
  - { offset: 0x678EE, size: 0x8, addend: 0x0, symName: __ZN4Json16insert_or_updateEN6Pubnub6StringES_, symObjAddr: 0x1520, symBinAddr: 0x36650, symSize: 0xC0 }
  - { offset: 0x6828D, size: 0x8, addend: 0x0, symName: __ZN4Json16insert_or_updateEN6Pubnub6StringES1_, symObjAddr: 0x16F0, symBinAddr: 0x36710, symSize: 0x100 }
  - { offset: 0x68788, size: 0x8, addend: 0x0, symName: __ZN4Json5beginEv, symObjAddr: 0x17F0, symBinAddr: 0x36810, symSize: 0x60 }
  - { offset: 0x68856, size: 0x8, addend: 0x0, symName: __ZN4Json8IteratorC1EN8nlohmann16json_abi_v3_11_36detail9iter_implINS2_10basic_jsonINSt3__13mapENS6_6vectorENS6_12basic_stringIcNS6_11char_traitsIcEENS6_9allocatorIcEEEEbxydSC_NS2_14adl_serializerENS8_IhNSC_IhEEEEvEEEE, symObjAddr: 0x1850, symBinAddr: 0x36870, symSize: 0x20 }
  - { offset: 0x688B8, size: 0x8, addend: 0x0, symName: __ZN4Json3endEv, symObjAddr: 0x1870, symBinAddr: 0x36890, symSize: 0x60 }
  - { offset: 0x6899C, size: 0x8, addend: 0x0, symName: __ZN4Json8IteratorC2EN8nlohmann16json_abi_v3_11_36detail9iter_implINS2_10basic_jsonINSt3__13mapENS6_6vectorENS6_12basic_stringIcNS6_11char_traitsIcEENS6_9allocatorIcEEEEbxydSC_NS2_14adl_serializerENS8_IhNSC_IhEEEEvEEEE, symObjAddr: 0x18D0, symBinAddr: 0x368F0, symSize: 0x20 }
  - { offset: 0x68A1F, size: 0x8, addend: 0x0, symName: __ZN4Json8IteratorppEv, symObjAddr: 0x18F0, symBinAddr: 0x36910, symSize: 0x80 }
  - { offset: 0x68BB0, size: 0x8, addend: 0x0, symName: __ZNK4Json8IteratorneERKS0_, symObjAddr: 0x1970, symBinAddr: 0x36990, symSize: 0x10 }
  - { offset: 0x68BE3, size: 0x8, addend: 0x0, symName: __ZNK8nlohmann16json_abi_v3_11_36detail9iter_implINS0_10basic_jsonINSt3__13mapENS4_6vectorENS4_12basic_stringIcNS4_11char_traitsIcEENS4_9allocatorIcEEEEbxydSA_NS0_14adl_serializerENS6_IhNSA_IhEEEEvEEEeqISH_LDn0EEEbRKT_, symObjAddr: 0x11E20, symBinAddr: 0x42220, symSize: 0xE0 }
  - { offset: 0x68D2B, size: 0x8, addend: 0x0, symName: __ZNK4Json8IteratordeEv, symObjAddr: 0x1980, symBinAddr: 0x369A0, symSize: 0x70 }
  - { offset: 0x68E06, size: 0x8, addend: 0x0, symName: __ZNK8nlohmann16json_abi_v3_11_36detail9iter_implINS0_10basic_jsonINSt3__13mapENS4_6vectorENS4_12basic_stringIcNS4_11char_traitsIcEENS4_9allocatorIcEEEEbxydSA_NS0_14adl_serializerENS6_IhNSA_IhEEEEvEEEdeEv, symObjAddr: 0x19F0, symBinAddr: 0x36A10, symSize: 0x120 }
  - { offset: 0x68F85, size: 0x8, addend: 0x0, symName: __ZNSt3__112basic_stringIcNS_11char_traitsIcEENS_9allocatorIcEEEC1B8ne180100ILi0EEEPKc, symObjAddr: 0x2150, symBinAddr: 0x36F70, symSize: 0xA0 }
  - { offset: 0x6917F, size: 0x8, addend: 0x0, symName: __ZN8nlohmann16json_abi_v3_11_36detail16invalid_iterator6createIPNS0_10basic_jsonINSt3__13mapENS5_6vectorENS5_12basic_stringIcNS5_11char_traitsIcEENS5_9allocatorIcEEEEbxydSB_NS0_14adl_serializerENS7_IhNSB_IhEEEEvEELi0EEES2_iRKSD_T_, symObjAddr: 0xAAD0, symBinAddr: 0x3E9D0, symSize: 0x180 }
  - { offset: 0x699EA, size: 0x8, addend: 0x0, symName: __ZNK4Json8Iterator5valueEv, symObjAddr: 0x1B10, symBinAddr: 0x36B30, symSize: 0x70 }
  - { offset: 0x69AF1, size: 0x8, addend: 0x0, symName: __ZNK4Json8Iterator3keyEv, symObjAddr: 0x1B80, symBinAddr: 0x36BA0, symSize: 0x80 }
  - { offset: 0x69CF4, size: 0x8, addend: 0x0, symName: __ZNK8nlohmann16json_abi_v3_11_36detail9iter_implINS0_10basic_jsonINSt3__13mapENS4_6vectorENS4_12basic_stringIcNS4_11char_traitsIcEENS4_9allocatorIcEEEEbxydSA_NS0_14adl_serializerENS6_IhNSA_IhEEEEvEEE3keyEv, symObjAddr: 0x1C00, symBinAddr: 0x36C20, symSize: 0xC0 }
  - { offset: 0x69EFA, size: 0x8, addend: 0x0, symName: __ZNK4Json6as_intEv, symObjAddr: 0x1CC0, symBinAddr: 0x36CE0, symSize: 0x30 }
  - { offset: 0x6AC11, size: 0x8, addend: 0x0, symName: __ZNSt3__114__split_bufferIN8nlohmann16json_abi_v3_11_310basic_jsonINS_3mapENS_6vectorENS_12basic_stringIcNS_11char_traitsIcEENS_9allocatorIcEEEEbxydS9_NS2_14adl_serializerENS5_IhNS9_IhEEEEvEERNS9_ISF_EEED1Ev, symObjAddr: 0x2DB0, symBinAddr: 0x371D0, symSize: 0x50 }
  - { offset: 0x6AC1B, size: 0x8, addend: 0x0, symName: __ZNSt3__114__split_bufferIN8nlohmann16json_abi_v3_11_310basic_jsonINS_3mapENS_6vectorENS_12basic_stringIcNS_11char_traitsIcEENS_9allocatorIcEEEEbxydS9_NS2_14adl_serializerENS5_IhNS9_IhEEEEvEERNS9_ISF_EEED1Ev, symObjAddr: 0x2DB0, symBinAddr: 0x371D0, symSize: 0x50 }
  - { offset: 0x6AE24, size: 0x8, addend: 0x0, symName: __ZN8nlohmann16json_abi_v3_11_36detail6parserINS0_10basic_jsonINSt3__13mapENS4_6vectorENS4_12basic_stringIcNS4_11char_traitsIcEENS4_9allocatorIcEEEEbxydSA_NS0_14adl_serializerENS6_IhNSA_IhEEEEvEENS1_22iterator_input_adapterIPKcEEE18sax_parse_internalINS1_19json_sax_dom_parserISG_EEEEbPT_, symObjAddr: 0x7C00, symBinAddr: 0x3BDD0, symSize: 0x10C0 }
  - { offset: 0x6C2AE, size: 0x8, addend: 0x0, symName: __ZN8nlohmann16json_abi_v3_11_36detail5lexerINS0_10basic_jsonINSt3__13mapENS4_6vectorENS4_12basic_stringIcNS4_11char_traitsIcEENS4_9allocatorIcEEEEbxydSA_NS0_14adl_serializerENS6_IhNSA_IhEEEEvEENS1_22iterator_input_adapterIPKcEEE4scanEv, symObjAddr: 0x3B60, symBinAddr: 0x37D60, symSize: 0x3F0 }
  - { offset: 0x6C454, size: 0x8, addend: 0x0, symName: __ZN8nlohmann16json_abi_v3_11_36detail28json_sax_dom_callback_parserINS0_10basic_jsonINSt3__13mapENS4_6vectorENS4_12basic_stringIcNS4_11char_traitsIcEENS4_9allocatorIcEEEEbxydSA_NS0_14adl_serializerENS6_IhNSA_IhEEEEvEEEC2ERSG_NS4_8functionIFbiNS1_13parse_event_tESI_EEEb, symObjAddr: 0x8D10, symBinAddr: 0x3CEE0, symSize: 0x1C0 }
  - { offset: 0x6C873, size: 0x8, addend: 0x0, symName: __ZN8nlohmann16json_abi_v3_11_36detail6parserINS0_10basic_jsonINSt3__13mapENS4_6vectorENS4_12basic_stringIcNS4_11char_traitsIcEENS4_9allocatorIcEEEEbxydSA_NS0_14adl_serializerENS6_IhNSA_IhEEEEvEENS1_22iterator_input_adapterIPKcEEE18sax_parse_internalINS1_28json_sax_dom_callback_parserISG_EEEEbPT_, symObjAddr: 0x63D0, symBinAddr: 0x3A5D0, symSize: 0x10D0 }
  - { offset: 0x6DCB6, size: 0x8, addend: 0x0, symName: __ZN8nlohmann16json_abi_v3_11_36detail6parserINS0_10basic_jsonINSt3__13mapENS4_6vectorENS4_12basic_stringIcNS4_11char_traitsIcEENS4_9allocatorIcEEEEbxydSA_NS0_14adl_serializerENS6_IhNSA_IhEEEEvEENS1_22iterator_input_adapterIPKcEEE17exception_messageENS1_10lexer_baseISG_E10token_typeERKSC_, symObjAddr: 0x77E0, symBinAddr: 0x3B9E0, symSize: 0x3F0 }
  - { offset: 0x6E932, size: 0x8, addend: 0x0, symName: __ZN8nlohmann16json_abi_v3_11_36detail11parse_error6createIDnLi0EEES2_iRKNS1_10position_tERKNSt3__112basic_stringIcNS7_11char_traitsIcEENS7_9allocatorIcEEEET_, symObjAddr: 0x75D0, symBinAddr: 0x3B7D0, symSize: 0x210 }
  - { offset: 0x6F2CE, size: 0x8, addend: 0x0, symName: __ZN8nlohmann16json_abi_v3_11_36detail28json_sax_dom_callback_parserINS0_10basic_jsonINSt3__13mapENS4_6vectorENS4_12basic_stringIcNS4_11char_traitsIcEENS4_9allocatorIcEEEEbxydSA_NS0_14adl_serializerENS6_IhNSA_IhEEEEvEEED2Ev, symObjAddr: 0xC8C0, symBinAddr: 0x3FDE0, symSize: 0xA0 }
  - { offset: 0x6F5BF, size: 0x8, addend: 0x0, symName: __ZN8nlohmann16json_abi_v3_11_310basic_jsonINSt3__13mapENS2_6vectorENS2_12basic_stringIcNS2_11char_traitsIcEENS2_9allocatorIcEEEEbxydS8_NS0_14adl_serializerENS4_IhNS8_IhEEEEvE6createISA_JRA1_KcEEEPT_DpOT0_, symObjAddr: 0x3920, symBinAddr: 0x37B20, symSize: 0xD0 }
  - { offset: 0x6F90C, size: 0x8, addend: 0x0, symName: __ZN8nlohmann16json_abi_v3_11_36detail5lexerINS0_10basic_jsonINSt3__13mapENS4_6vectorENS4_12basic_stringIcNS4_11char_traitsIcEENS4_9allocatorIcEEEEbxydSA_NS0_14adl_serializerENS6_IhNSA_IhEEEEvEENS1_22iterator_input_adapterIPKcEEED1Ev, symObjAddr: 0x3B20, symBinAddr: 0x37D20, symSize: 0x40 }
  - { offset: 0x6FAEA, size: 0x8, addend: 0x0, symName: __ZN8nlohmann16json_abi_v3_11_36detail5lexerINS0_10basic_jsonINSt3__13mapENS4_6vectorENS4_12basic_stringIcNS4_11char_traitsIcEENS4_9allocatorIcEEEEbxydSA_NS0_14adl_serializerENS6_IhNSA_IhEEEEvEENS1_22iterator_input_adapterIPKcEEE3getEv, symObjAddr: 0x5FF0, symBinAddr: 0x3A1F0, symSize: 0x2C0 }
  - { offset: 0x6FDE7, size: 0x8, addend: 0x0, symName: __ZN8nlohmann16json_abi_v3_11_36detail5lexerINS0_10basic_jsonINSt3__13mapENS4_6vectorENS4_12basic_stringIcNS4_11char_traitsIcEENS4_9allocatorIcEEEEbxydSA_NS0_14adl_serializerENS6_IhNSA_IhEEEEvEENS1_22iterator_input_adapterIPKcEEE15skip_whitespaceEv, symObjAddr: 0x3F50, symBinAddr: 0x38150, symSize: 0x370 }
  - { offset: 0x700DA, size: 0x8, addend: 0x0, symName: __ZN8nlohmann16json_abi_v3_11_36detail5lexerINS0_10basic_jsonINSt3__13mapENS4_6vectorENS4_12basic_stringIcNS4_11char_traitsIcEENS4_9allocatorIcEEEEbxydSA_NS0_14adl_serializerENS6_IhNSA_IhEEEEvEENS1_22iterator_input_adapterIPKcEEE12scan_commentEv, symObjAddr: 0x42C0, symBinAddr: 0x384C0, symSize: 0xE0 }
  - { offset: 0x70177, size: 0x8, addend: 0x0, symName: __ZN8nlohmann16json_abi_v3_11_36detail5lexerINS0_10basic_jsonINSt3__13mapENS4_6vectorENS4_12basic_stringIcNS4_11char_traitsIcEENS4_9allocatorIcEEEEbxydSA_NS0_14adl_serializerENS6_IhNSA_IhEEEEvEENS1_22iterator_input_adapterIPKcEEE11scan_numberEv, symObjAddr: 0x5960, symBinAddr: 0x39B60, symSize: 0x690 }
  - { offset: 0x70A2E, size: 0x8, addend: 0x0, symName: __ZN8nlohmann16json_abi_v3_11_36detail5lexerINS0_10basic_jsonINSt3__13mapENS4_6vectorENS4_12basic_stringIcNS4_11char_traitsIcEENS4_9allocatorIcEEEEbxydSA_NS0_14adl_serializerENS6_IhNSA_IhEEEEvEENS1_22iterator_input_adapterIPKcEEE11scan_stringEv, symObjAddr: 0x43A0, symBinAddr: 0x385A0, symSize: 0x15C0 }
  - { offset: 0x718C7, size: 0x8, addend: 0x0, symName: __ZNKSt3__16vectorIcNS_9allocatorIcEEE20__throw_length_errorB8ne180100Ev, symObjAddr: 0x62B0, symBinAddr: 0x3A4B0, symSize: 0x10 }
  - { offset: 0x718DC, size: 0x8, addend: 0x0, symName: __ZN8nlohmann16json_abi_v3_11_36detail5lexerINS0_10basic_jsonINSt3__13mapENS4_6vectorENS4_12basic_stringIcNS4_11char_traitsIcEENS4_9allocatorIcEEEEbxydSA_NS0_14adl_serializerENS6_IhNSA_IhEEEEvEENS1_22iterator_input_adapterIPKcEEE13get_codepointEv, symObjAddr: 0x62C0, symBinAddr: 0x3A4C0, symSize: 0x110 }
  - { offset: 0x71904, size: 0x8, addend: 0x0, symName: __ZN8nlohmann16json_abi_v3_11_36detail5lexerINS0_10basic_jsonINSt3__13mapENS4_6vectorENS4_12basic_stringIcNS4_11char_traitsIcEENS4_9allocatorIcEEEEbxydSA_NS0_14adl_serializerENS6_IhNSA_IhEEEEvEENS1_22iterator_input_adapterIPKcEEE13get_codepointEv, symObjAddr: 0x62C0, symBinAddr: 0x3A4C0, symSize: 0x110 }
  - { offset: 0x71A2C, size: 0x8, addend: 0x0, symName: __ZN8nlohmann16json_abi_v3_11_36detail28json_sax_dom_callback_parserINS0_10basic_jsonINSt3__13mapENS4_6vectorENS4_12basic_stringIcNS4_11char_traitsIcEENS4_9allocatorIcEEEEbxydSA_NS0_14adl_serializerENS6_IhNSA_IhEEEEvEEE11start_arrayEm, symObjAddr: 0x9850, symBinAddr: 0x3DA20, symSize: 0x3B0 }
  - { offset: 0x71FB7, size: 0x8, addend: 0x0, symName: __ZNSt3__16vectorIbNS_9allocatorIbEEE7reserveEm, symObjAddr: 0x8ED0, symBinAddr: 0x3D0A0, symSize: 0x120 }
  - { offset: 0x722AB, size: 0x8, addend: 0x0, symName: __ZN8nlohmann16json_abi_v3_11_36detail28json_sax_dom_callback_parserINS0_10basic_jsonINSt3__13mapENS4_6vectorENS4_12basic_stringIcNS4_11char_traitsIcEENS4_9allocatorIcEEEEbxydSA_NS0_14adl_serializerENS6_IhNSA_IhEEEEvEEE12start_objectEm, symObjAddr: 0x9000, symBinAddr: 0x3D1D0, symSize: 0x3B0 }
  - { offset: 0x72836, size: 0x8, addend: 0x0, symName: __ZN8nlohmann16json_abi_v3_11_36detail28json_sax_dom_callback_parserINS0_10basic_jsonINSt3__13mapENS4_6vectorENS4_12basic_stringIcNS4_11char_traitsIcEENS4_9allocatorIcEEEEbxydSA_NS0_14adl_serializerENS6_IhNSA_IhEEEEvEEE3keyERSC_, symObjAddr: 0x9610, symBinAddr: 0x3D7E0, symSize: 0x240 }
  - { offset: 0x72D10, size: 0x8, addend: 0x0, symName: __ZN8nlohmann16json_abi_v3_11_36detail28json_sax_dom_callback_parserINS0_10basic_jsonINSt3__13mapENS4_6vectorENS4_12basic_stringIcNS4_11char_traitsIcEENS4_9allocatorIcEEEEbxydSA_NS0_14adl_serializerENS6_IhNSA_IhEEEEvEEE10end_objectEv, symObjAddr: 0x93B0, symBinAddr: 0x3D580, symSize: 0x260 }
  - { offset: 0x73268, size: 0x8, addend: 0x0, symName: __ZN8nlohmann16json_abi_v3_11_36detail28json_sax_dom_callback_parserINS0_10basic_jsonINSt3__13mapENS4_6vectorENS4_12basic_stringIcNS4_11char_traitsIcEENS4_9allocatorIcEEEEbxydSA_NS0_14adl_serializerENS6_IhNSA_IhEEEEvEEE9end_arrayEv, symObjAddr: 0x9C00, symBinAddr: 0x3DDD0, symSize: 0x130 }
  - { offset: 0x734D1, size: 0x8, addend: 0x0, symName: __ZN8nlohmann16json_abi_v3_11_36detail28json_sax_dom_callback_parserINS0_10basic_jsonINSt3__13mapENS4_6vectorENS4_12basic_stringIcNS4_11char_traitsIcEENS4_9allocatorIcEEEEbxydSA_NS0_14adl_serializerENS6_IhNSA_IhEEEEvEEE12handle_valueIRdEENS4_4pairIbPSG_EEOT_b, symObjAddr: 0xB760, symBinAddr: 0x3EDD0, symSize: 0x200 }
  - { offset: 0x73911, size: 0x8, addend: 0x0, symName: __ZN8nlohmann16json_abi_v3_11_36detail28json_sax_dom_callback_parserINS0_10basic_jsonINSt3__13mapENS4_6vectorENS4_12basic_stringIcNS4_11char_traitsIcEENS4_9allocatorIcEEEEbxydSA_NS0_14adl_serializerENS6_IhNSA_IhEEEEvEEE12handle_valueIRSC_EENS4_4pairIbPSG_EEOT_b, symObjAddr: 0xBF60, symBinAddr: 0x3F5D0, symSize: 0x280 }
  - { offset: 0x73F19, size: 0x8, addend: 0x0, symName: __ZN8nlohmann16json_abi_v3_11_36detail28json_sax_dom_callback_parserINS0_10basic_jsonINSt3__13mapENS4_6vectorENS4_12basic_stringIcNS4_11char_traitsIcEENS4_9allocatorIcEEEEbxydSA_NS0_14adl_serializerENS6_IhNSA_IhEEEEvEEE12handle_valueIDnEENS4_4pairIbPSG_EEOT_b, symObjAddr: 0xBB60, symBinAddr: 0x3F1D0, symSize: 0x200 }
  - { offset: 0x74345, size: 0x8, addend: 0x0, symName: __ZN8nlohmann16json_abi_v3_11_36detail28json_sax_dom_callback_parserINS0_10basic_jsonINSt3__13mapENS4_6vectorENS4_12basic_stringIcNS4_11char_traitsIcEENS4_9allocatorIcEEEEbxydSA_NS0_14adl_serializerENS6_IhNSA_IhEEEEvEEE12handle_valueIRbEENS4_4pairIbPSG_EEOT_b, symObjAddr: 0xB960, symBinAddr: 0x3EFD0, symSize: 0x200 }
  - { offset: 0x74785, size: 0x8, addend: 0x0, symName: __ZN8nlohmann16json_abi_v3_11_36detail28json_sax_dom_callback_parserINS0_10basic_jsonINSt3__13mapENS4_6vectorENS4_12basic_stringIcNS4_11char_traitsIcEENS4_9allocatorIcEEEEbxydSA_NS0_14adl_serializerENS6_IhNSA_IhEEEEvEEE12handle_valueIRyEENS4_4pairIbPSG_EEOT_b, symObjAddr: 0xC1E0, symBinAddr: 0x3F850, symSize: 0x200 }
  - { offset: 0x74BC5, size: 0x8, addend: 0x0, symName: __ZN8nlohmann16json_abi_v3_11_36detail28json_sax_dom_callback_parserINS0_10basic_jsonINSt3__13mapENS4_6vectorENS4_12basic_stringIcNS4_11char_traitsIcEENS4_9allocatorIcEEEEbxydSA_NS0_14adl_serializerENS6_IhNSA_IhEEEEvEEE12handle_valueIRxEENS4_4pairIbPSG_EEOT_b, symObjAddr: 0xBD60, symBinAddr: 0x3F3D0, symSize: 0x200 }
  - { offset: 0x75005, size: 0x8, addend: 0x0, symName: __ZNK8nlohmann16json_abi_v3_11_36detail5lexerINS0_10basic_jsonINSt3__13mapENS4_6vectorENS4_12basic_stringIcNS4_11char_traitsIcEENS4_9allocatorIcEEEEbxydSA_NS0_14adl_serializerENS6_IhNSA_IhEEEEvEENS1_22iterator_input_adapterIPKcEEE16get_token_stringEv, symObjAddr: 0x74F0, symBinAddr: 0x3B6F0, symSize: 0xE0 }
  - { offset: 0x751BF, size: 0x8, addend: 0x0, symName: __ZN8nlohmann16json_abi_v3_11_36detail28json_sax_dom_callback_parserINS0_10basic_jsonINSt3__13mapENS4_6vectorENS4_12basic_stringIcNS4_11char_traitsIcEENS4_9allocatorIcEEEEbxydSA_NS0_14adl_serializerENS6_IhNSA_IhEEEEvEEE11parse_errorINS1_11parse_errorEEEbmRKSC_RKT_, symObjAddr: 0x74A0, symBinAddr: 0x3B6A0, symSize: 0x50 }
  - { offset: 0x751DE, size: 0x8, addend: 0x0, symName: __ZN8nlohmann16json_abi_v3_11_36detail6concatINSt3__112basic_stringIcNS3_11char_traitsIcEENS3_9allocatorIcEEEEJRA26_KcS9_cEEET_DpOT0_, symObjAddr: 0x9F10, symBinAddr: 0x3E0E0, symSize: 0xB0 }
  - { offset: 0x75425, size: 0x8, addend: 0x0, symName: __ZN8nlohmann16json_abi_v3_11_36detail12out_of_range6createIDnLi0EEES2_iRKNSt3__112basic_stringIcNS4_11char_traitsIcEENS4_9allocatorIcEEEET_, symObjAddr: 0x9D80, symBinAddr: 0x3DF50, symSize: 0x190 }
  - { offset: 0x75C8A, size: 0x8, addend: 0x0, symName: __ZN8nlohmann16json_abi_v3_11_36detail28json_sax_dom_callback_parserINS0_10basic_jsonINSt3__13mapENS4_6vectorENS4_12basic_stringIcNS4_11char_traitsIcEENS4_9allocatorIcEEEEbxydSA_NS0_14adl_serializerENS6_IhNSA_IhEEEEvEEE11parse_errorINS1_12out_of_rangeEEEbmRKSC_RKT_, symObjAddr: 0x9D30, symBinAddr: 0x3DF00, symSize: 0x50 }
  - { offset: 0x75CA9, size: 0x8, addend: 0x0, symName: __ZNKSt3__16vectorIbNS_9allocatorIbEEE20__throw_length_errorB8ne180100Ev, symObjAddr: 0x8FF0, symBinAddr: 0x3D1C0, symSize: 0x10 }
  - { offset: 0x75CBE, size: 0x8, addend: 0x0, symName: __ZN8nlohmann16json_abi_v3_11_36detail28json_sax_dom_callback_parserINS0_10basic_jsonINSt3__13mapENS4_6vectorENS4_12basic_stringIcNS4_11char_traitsIcEENS4_9allocatorIcEEEEbxydSA_NS0_14adl_serializerENS6_IhNSA_IhEEEEvEEE12start_objectEm, symObjAddr: 0x9000, symBinAddr: 0x3D1D0, symSize: 0x3B0 }
  - { offset: 0x75CC8, size: 0x8, addend: 0x0, symName: __ZN8nlohmann16json_abi_v3_11_36detail11parse_errorC1ERKS2_, symObjAddr: 0xC3E0, symBinAddr: 0x3FA50, symSize: 0x50 }
  - { offset: 0x75D15, size: 0x8, addend: 0x0, symName: __ZN8nlohmann16json_abi_v3_11_36detail11parse_error15position_stringERKNS1_10position_tE, symObjAddr: 0xC610, symBinAddr: 0x3FC40, symSize: 0xC0 }
  - { offset: 0x7602A, size: 0x8, addend: 0x0, symName: __ZN8nlohmann16json_abi_v3_11_36detail6concatINSt3__112basic_stringIcNS3_11char_traitsIcEENS3_9allocatorIcEEEEJS9_RA12_KcS9_RA3_SA_S9_RKS9_EEET_DpOT0_, symObjAddr: 0xC470, symBinAddr: 0x3FAA0, symSize: 0x1A0 }
  - { offset: 0x764B7, size: 0x8, addend: 0x0, symName: __ZN8nlohmann16json_abi_v3_11_36detail6concatINSt3__112basic_stringIcNS3_11char_traitsIcEENS3_9allocatorIcEEEEJPKcRA15_SA_S9_cEEET_DpOT0_, symObjAddr: 0xC7E0, symBinAddr: 0x3FD00, symSize: 0xE0 }
  - { offset: 0x7676B, size: 0x8, addend: 0x0, symName: __ZN8nlohmann16json_abi_v3_11_36detail19json_sax_dom_parserINS0_10basic_jsonINSt3__13mapENS4_6vectorENS4_12basic_stringIcNS4_11char_traitsIcEENS4_9allocatorIcEEEEbxydSA_NS0_14adl_serializerENS6_IhNSA_IhEEEEvEEE11start_arrayEm, symObjAddr: 0xCC60, symBinAddr: 0x40180, symSize: 0x300 }
  - { offset: 0x76BC0, size: 0x8, addend: 0x0, symName: __ZN8nlohmann16json_abi_v3_11_36detail19json_sax_dom_parserINS0_10basic_jsonINSt3__13mapENS4_6vectorENS4_12basic_stringIcNS4_11char_traitsIcEENS4_9allocatorIcEEEEbxydSA_NS0_14adl_serializerENS6_IhNSA_IhEEEEvEEE12start_objectEm, symObjAddr: 0xC960, symBinAddr: 0x3FE80, symSize: 0x300 }
  - { offset: 0x77010, size: 0x8, addend: 0x0, symName: __ZNSt3__16__treeINS_12__value_typeINS_12basic_stringIcNS_11char_traitsIcEENS_9allocatorIcEEEEN8nlohmann16json_abi_v3_11_310basic_jsonINS_3mapENS_6vectorES7_bxydS5_NS9_14adl_serializerENSC_IhNS5_IhEEEEvEEEENS_19__map_value_compareIS7_SH_NS_4lessIvEELb1EEENS5_ISH_EEE25__emplace_unique_key_argsIS7_JRKNS_21piecewise_construct_tENS_5tupleIJRKS7_EEENSS_IJEEEEEENS_4pairINS_15__tree_iteratorISH_PNS_11__tree_nodeISH_PvEElEEbEERKT_DpOT0_, symObjAddr: 0xB310, symBinAddr: 0x3EBE0, symSize: 0x1B0 }
  - { offset: 0x77455, size: 0x8, addend: 0x0, symName: __ZN8nlohmann16json_abi_v3_11_36detail19json_sax_dom_parserINS0_10basic_jsonINSt3__13mapENS4_6vectorENS4_12basic_stringIcNS4_11char_traitsIcEENS4_9allocatorIcEEEEbxydSA_NS0_14adl_serializerENS6_IhNSA_IhEEEEvEEE12handle_valueIRSC_EEPSG_OT_, symObjAddr: 0xDE60, symBinAddr: 0x41380, symSize: 0x270 }
  - { offset: 0x77D3C, size: 0x8, addend: 0x0, symName: __ZN8nlohmann16json_abi_v3_11_36detail19json_sax_dom_parserINS0_10basic_jsonINSt3__13mapENS4_6vectorENS4_12basic_stringIcNS4_11char_traitsIcEENS4_9allocatorIcEEEEbxydSA_NS0_14adl_serializerENS6_IhNSA_IhEEEEvEEE12handle_valueIRbEEPSG_OT_, symObjAddr: 0xD790, symBinAddr: 0x40CB0, symSize: 0xF0 }
  - { offset: 0x780B5, size: 0x8, addend: 0x0, symName: __ZN8nlohmann16json_abi_v3_11_36detail19json_sax_dom_parserINS0_10basic_jsonINSt3__13mapENS4_6vectorENS4_12basic_stringIcNS4_11char_traitsIcEENS4_9allocatorIcEEEEbxydSA_NS0_14adl_serializerENS6_IhNSA_IhEEEEvEEE12handle_valueIRyEEPSG_OT_, symObjAddr: 0xE2F0, symBinAddr: 0x41810, symSize: 0xF0 }
  - { offset: 0x7842E, size: 0x8, addend: 0x0, symName: __ZN8nlohmann16json_abi_v3_11_36detail19json_sax_dom_parserINS0_10basic_jsonINSt3__13mapENS4_6vectorENS4_12basic_stringIcNS4_11char_traitsIcEENS4_9allocatorIcEEEEbxydSA_NS0_14adl_serializerENS6_IhNSA_IhEEEEvEEE12handle_valueIRdEEPSG_OT_, symObjAddr: 0xD540, symBinAddr: 0x40A60, symSize: 0xF0 }
  - { offset: 0x787A7, size: 0x8, addend: 0x0, symName: __ZN8nlohmann16json_abi_v3_11_36detail19json_sax_dom_parserINS0_10basic_jsonINSt3__13mapENS4_6vectorENS4_12basic_stringIcNS4_11char_traitsIcEENS4_9allocatorIcEEEEbxydSA_NS0_14adl_serializerENS6_IhNSA_IhEEEEvEEE12handle_valueIRxEEPSG_OT_, symObjAddr: 0xDC10, symBinAddr: 0x41130, symSize: 0xF0 }
  - { offset: 0x78B20, size: 0x8, addend: 0x0, symName: __ZN8nlohmann16json_abi_v3_11_36detail19json_sax_dom_parserINS0_10basic_jsonINSt3__13mapENS4_6vectorENS4_12basic_stringIcNS4_11char_traitsIcEENS4_9allocatorIcEEEEbxydSA_NS0_14adl_serializerENS6_IhNSA_IhEEEEvEEE12handle_valueIDnEEPSG_OT_, symObjAddr: 0xD9E0, symBinAddr: 0x40F00, symSize: 0xE0 }
  - { offset: 0x78E5D, size: 0x8, addend: 0x0, symName: __ZN8nlohmann16json_abi_v3_11_36detail19json_sax_dom_parserINS0_10basic_jsonINSt3__13mapENS4_6vectorENS4_12basic_stringIcNS4_11char_traitsIcEENS4_9allocatorIcEEEEbxydSA_NS0_14adl_serializerENS6_IhNSA_IhEEEEvEEE11parse_errorINS1_11parse_errorEEEbmRKSC_RKT_, symObjAddr: 0x8CC0, symBinAddr: 0x3CE90, symSize: 0x50 }
  - { offset: 0x78E7C, size: 0x8, addend: 0x0, symName: __ZN8nlohmann16json_abi_v3_11_36detail19json_sax_dom_parserINS0_10basic_jsonINSt3__13mapENS4_6vectorENS4_12basic_stringIcNS4_11char_traitsIcEENS4_9allocatorIcEEEEbxydSA_NS0_14adl_serializerENS6_IhNSA_IhEEEEvEEE11parse_errorINS1_12out_of_rangeEEEbmRKSC_RKT_, symObjAddr: 0xCF60, symBinAddr: 0x40480, symSize: 0x50 }
  - { offset: 0x78FBB, size: 0x8, addend: 0x0, symName: __ZN8nlohmann16json_abi_v3_11_36detail28json_sax_dom_callback_parserINS0_10basic_jsonINSt3__13mapENS4_6vectorENS4_12basic_stringIcNS4_11char_traitsIcEENS4_9allocatorIcEEEEbxydSA_NS0_14adl_serializerENS6_IhNSA_IhEEEEvEEE12handle_valueINS1_7value_tEEENS4_4pairIbPSG_EEOT_b, symObjAddr: 0x9FF0, symBinAddr: 0x3E190, symSize: 0x2C0 }
  - { offset: 0x7975A, size: 0x8, addend: 0x0, symName: __ZN8nlohmann16json_abi_v3_11_36detail12out_of_range6createIPNS0_10basic_jsonINSt3__13mapENS5_6vectorENS5_12basic_stringIcNS5_11char_traitsIcEENS5_9allocatorIcEEEEbxydSB_NS0_14adl_serializerENS7_IhNSB_IhEEEEvEELi0EEES2_iRKSD_T_, symObjAddr: 0xA2B0, symBinAddr: 0x3E450, symSize: 0x190 }
  - { offset: 0x79FD6, size: 0x8, addend: 0x0, symName: __ZNKSt3__16vectorIPN8nlohmann16json_abi_v3_11_310basic_jsonINS_3mapES0_NS_12basic_stringIcNS_11char_traitsIcEENS_9allocatorIcEEEEbxydS8_NS2_14adl_serializerENS0_IhNS8_IhEEEEvEENS8_ISF_EEE20__throw_length_errorB8ne180100Ev, symObjAddr: 0xA6A0, symBinAddr: 0x3E5E0, symSize: 0x10 }
  - { offset: 0x7A03D, size: 0x8, addend: 0x0, symName: __ZNK8nlohmann16json_abi_v3_11_36detail9iter_implINS0_10basic_jsonINSt3__13mapENS4_6vectorENS4_12basic_stringIcNS4_11char_traitsIcEENS4_9allocatorIcEEEEbxydSA_NS0_14adl_serializerENS6_IhNSA_IhEEEEvEEEptEv, symObjAddr: 0xA6F0, symBinAddr: 0x3E5F0, symSize: 0xD0 }
  - { offset: 0x7A186, size: 0x8, addend: 0x0, symName: __ZN8nlohmann16json_abi_v3_11_310basic_jsonINSt3__13mapENS2_6vectorENS2_12basic_stringIcNS2_11char_traitsIcEENS2_9allocatorIcEEEEbxydS8_NS0_14adl_serializerENS4_IhNS8_IhEEEEvE5eraseINS0_6detail9iter_implISE_EELi0EEET_SJ_, symObjAddr: 0xA7C0, symBinAddr: 0x3E6C0, symSize: 0x310 }
  - { offset: 0x7A88C, size: 0x8, addend: 0x0, symName: __ZN8nlohmann16json_abi_v3_11_36detail12out_of_rangeC1ERKS2_, symObjAddr: 0xB720, symBinAddr: 0x3ED90, symSize: 0x40 }
  - { offset: 0x7AB78, size: 0x8, addend: 0x0, symName: __ZNSt3__16__treeINS_12__value_typeINS_12basic_stringIcNS_11char_traitsIcEENS_9allocatorIcEEEEN8nlohmann16json_abi_v3_11_310basic_jsonINS_3mapENS_6vectorES7_bxydS5_NS9_14adl_serializerENSC_IhNS5_IhEEEEvEEEENS_19__map_value_compareIS7_SH_NS_4lessIvEELb1EEENS5_ISH_EEE5eraseENS_21__tree_const_iteratorISH_PNS_11__tree_nodeISH_PvEElEE, symObjAddr: 0xAED0, symBinAddr: 0x3EB50, symSize: 0x90 }
  - { offset: 0x7B48F, size: 0x8, addend: 0x0, symName: __ZN8nlohmann16json_abi_v3_11_36detail19json_sax_dom_parserINS0_10basic_jsonINSt3__13mapENS4_6vectorENS4_12basic_stringIcNS4_11char_traitsIcEENS4_9allocatorIcEEEEbxydSA_NS0_14adl_serializerENS6_IhNSA_IhEEEEvEEE12handle_valueINS1_7value_tEEEPSG_OT_, symObjAddr: 0xCFB0, symBinAddr: 0x404D0, symSize: 0x240 }
  - { offset: 0x7BC2E, size: 0x8, addend: 0x0, symName: __ZNSt3__16vectorIN8nlohmann16json_abi_v3_11_310basic_jsonINS_3mapES0_NS_12basic_stringIcNS_11char_traitsIcEENS_9allocatorIcEEEEbxydS8_NS2_14adl_serializerENS0_IhNS8_IhEEEEvEENS8_ISE_EEE22__construct_one_at_endB8ne180100IJNS2_6detail7value_tEEEEvDpOT_, symObjAddr: 0xD1F0, symBinAddr: 0x40710, symSize: 0xF0 }
  - { offset: 0x7BFEE, size: 0x8, addend: 0x0, symName: __ZNSt3__16vectorIN8nlohmann16json_abi_v3_11_310basic_jsonINS_3mapES0_NS_12basic_stringIcNS_11char_traitsIcEENS_9allocatorIcEEEEbxydS8_NS2_14adl_serializerENS0_IhNS8_IhEEEEvEENS8_ISE_EEE24__emplace_back_slow_pathIJNS2_6detail7value_tEEEEPSE_DpOT_, symObjAddr: 0xD2E0, symBinAddr: 0x40800, symSize: 0x260 }
  - { offset: 0x7C6A8, size: 0x8, addend: 0x0, symName: __ZNSt3__16vectorIN8nlohmann16json_abi_v3_11_310basic_jsonINS_3mapES0_NS_12basic_stringIcNS_11char_traitsIcEENS_9allocatorIcEEEEbxydS8_NS2_14adl_serializerENS0_IhNS8_IhEEEEvEENS8_ISE_EEE24__emplace_back_slow_pathIJRdEEEPSE_DpOT_, symObjAddr: 0xD630, symBinAddr: 0x40B50, symSize: 0x160 }
  - { offset: 0x7CA93, size: 0x8, addend: 0x0, symName: __ZNSt3__16vectorIN8nlohmann16json_abi_v3_11_310basic_jsonINS_3mapES0_NS_12basic_stringIcNS_11char_traitsIcEENS_9allocatorIcEEEEbxydS8_NS2_14adl_serializerENS0_IhNS8_IhEEEEvEENS8_ISE_EEE24__emplace_back_slow_pathIJRbEEEPSE_DpOT_, symObjAddr: 0xD880, symBinAddr: 0x40DA0, symSize: 0x160 }
  - { offset: 0x7CE7E, size: 0x8, addend: 0x0, symName: __ZNSt3__16vectorIN8nlohmann16json_abi_v3_11_310basic_jsonINS_3mapES0_NS_12basic_stringIcNS_11char_traitsIcEENS_9allocatorIcEEEEbxydS8_NS2_14adl_serializerENS0_IhNS8_IhEEEEvEENS8_ISE_EEE24__emplace_back_slow_pathIJDnEEEPSE_DpOT_, symObjAddr: 0xDAC0, symBinAddr: 0x40FE0, symSize: 0x150 }
  - { offset: 0x7D255, size: 0x8, addend: 0x0, symName: __ZNSt3__16vectorIN8nlohmann16json_abi_v3_11_310basic_jsonINS_3mapES0_NS_12basic_stringIcNS_11char_traitsIcEENS_9allocatorIcEEEEbxydS8_NS2_14adl_serializerENS0_IhNS8_IhEEEEvEENS8_ISE_EEE24__emplace_back_slow_pathIJRxEEEPSE_DpOT_, symObjAddr: 0xDD00, symBinAddr: 0x41220, symSize: 0x160 }
  - { offset: 0x7D640, size: 0x8, addend: 0x0, symName: __ZNSt3__16vectorIN8nlohmann16json_abi_v3_11_310basic_jsonINS_3mapES0_NS_12basic_stringIcNS_11char_traitsIcEENS_9allocatorIcEEEEbxydS8_NS2_14adl_serializerENS0_IhNS8_IhEEEEvEENS8_ISE_EEE24__emplace_back_slow_pathIJRSA_EEEPSE_DpOT_, symObjAddr: 0xE0D0, symBinAddr: 0x415F0, symSize: 0x220 }
  - { offset: 0x7DBFF, size: 0x8, addend: 0x0, symName: __ZNSt3__16vectorIN8nlohmann16json_abi_v3_11_310basic_jsonINS_3mapES0_NS_12basic_stringIcNS_11char_traitsIcEENS_9allocatorIcEEEEbxydS8_NS2_14adl_serializerENS0_IhNS8_IhEEEEvEENS8_ISE_EEE24__emplace_back_slow_pathIJRyEEEPSE_DpOT_, symObjAddr: 0xE3E0, symBinAddr: 0x41900, symSize: 0x160 }
  - { offset: 0x7E3D1, size: 0x8, addend: 0x0, symName: __ZN8nlohmann16json_abi_v3_11_310basic_jsonINSt3__13mapENS2_6vectorENS2_12basic_stringIcNS2_11char_traitsIcEENS2_9allocatorIcEEEEbxydS8_NS0_14adl_serializerENS4_IhNS8_IhEEEEvEC2ESt16initializer_listINS0_6detail8json_refISE_EEEbNSG_7value_tE, symObjAddr: 0xEEE0, symBinAddr: 0x41A60, symSize: 0x2C0 }
  - { offset: 0x7EA14, size: 0x8, addend: 0x0, symName: __ZNSt3__16__treeINS_12__value_typeINS_12basic_stringIcNS_11char_traitsIcEENS_9allocatorIcEEEEN8nlohmann16json_abi_v3_11_310basic_jsonINS_3mapENS_6vectorES7_bxydS5_NS9_14adl_serializerENSC_IhNS5_IhEEEEvEEEENS_19__map_value_compareIS7_SH_NS_4lessIvEELb1EEENS5_ISH_EEE25__emplace_unique_key_argsIS7_JS7_SG_EEENS_4pairINS_15__tree_iteratorISH_PNS_11__tree_nodeISH_PvEElEEbEERKT_DpOT0_, symObjAddr: 0xF330, symBinAddr: 0x41D20, symSize: 0x1A0 }
  - { offset: 0x7ECE0, size: 0x8, addend: 0x0, symName: __ZNSt3__16vectorIN8nlohmann16json_abi_v3_11_310basic_jsonINS_3mapES0_NS_12basic_stringIcNS_11char_traitsIcEENS_9allocatorIcEEEEbxydS8_NS2_14adl_serializerENS0_IhNS8_IhEEEEvEENS8_ISE_EEE16__init_with_sizeB8ne180100IPKNS2_6detail8json_refISE_EESM_EEvT_T0_m, symObjAddr: 0xF4D0, symBinAddr: 0x41EC0, symSize: 0x150 }
  - { offset: 0x7FCE7, size: 0x8, addend: 0x0, symName: __ZN8Presence19users_from_responseERK4Json, symObjAddr: 0x0, symBinAddr: 0x42300, symSize: 0x1C0 }
  - { offset: 0x7FEC7, size: 0x8, addend: 0x0, symName: __ZNSt3__16vectorIN6Pubnub6StringENS_9allocatorIS2_EEE21__push_back_slow_pathIS2_EEPS2_OT_, symObjAddr: 0xDA0, symBinAddr: 0x426F0, symSize: 0x1C0 }
  - { offset: 0x80988, size: 0x8, addend: 0x0, symName: __ZN8Presence22channels_from_responseERK4Json, symObjAddr: 0x250, symBinAddr: 0x424C0, symSize: 0x230 }
  - { offset: 0x815D4, size: 0x8, addend: 0x0, symName: __ZN18AccessManagerLogic5can_iEN6Pubnub13AccessManager10PermissionENS1_12ResourceTypeERK4JsonRKNS0_6StringE, symObjAddr: 0x0, symBinAddr: 0x428B0, symSize: 0x5D0 }
  - { offset: 0x82303, size: 0x8, addend: 0x0, symName: __ZNSt3__111basic_regexIcNS_12regex_traitsIcEEEC2B8ne180100EPKcNS_15regex_constants18syntax_option_typeE, symObjAddr: 0xFE0, symBinAddr: 0x42F10, symSize: 0xC0 }
  - { offset: 0x82409, size: 0x8, addend: 0x0, symName: __ZNKSt3__111basic_regexIcNS_12regex_traitsIcEEE8__searchINS_9allocatorINS_9sub_matchIPKcEEEEEEbS8_S8_RNS_13match_resultsIS8_T_EENS_15regex_constants15match_flag_typeE, symObjAddr: 0xAE20, symBinAddr: 0x4C2D0, symSize: 0x330 }
  - { offset: 0x82664, size: 0x8, addend: 0x0, symName: __ZNSt3__127__throw_bad_optional_accessB8ne180100Ev, symObjAddr: 0x640, symBinAddr: 0x42ED0, symSize: 0x40 }
  - { offset: 0x826E2, size: 0x8, addend: 0x0, symName: __ZNSt3__111basic_regexIcNS_12regex_traitsIcEEED1Ev, symObjAddr: 0x5F0, symBinAddr: 0x42E80, symSize: 0x50 }
  - { offset: 0x82FBA, size: 0x8, addend: 0x0, symName: __ZNSt3__111basic_regexIcNS_12regex_traitsIcEEE7__parseIPKcEET_S7_S7_, symObjAddr: 0x10A0, symBinAddr: 0x42FD0, symSize: 0x340 }
  - { offset: 0x83568, size: 0x8, addend: 0x0, symName: __ZNSt3__119__throw_regex_errorB8ne180100ILNS_15regex_constants10error_typeE17EEEvv, symObjAddr: 0x13E0, symBinAddr: 0x43310, symSize: 0x50 }
  - { offset: 0x8366F, size: 0x8, addend: 0x0, symName: __ZNSt3__111basic_regexIcNS_12regex_traitsIcEEE13__parse_egrepIPKcEET_S7_S7_, symObjAddr: 0x1AC0, symBinAddr: 0x439F0, symSize: 0x1E0 }
  - { offset: 0x83928, size: 0x8, addend: 0x0, symName: __ZNSt3__111basic_regexIcNS_12regex_traitsIcEEE24__parse_extended_reg_expIPKcEET_S7_S7_, symObjAddr: 0x1750, symBinAddr: 0x43680, symSize: 0x190 }
  - { offset: 0x83AC0, size: 0x8, addend: 0x0, symName: __ZNSt3__111basic_regexIcNS_12regex_traitsIcEEE19__parse_alternativeIPKcEET_S7_S7_, symObjAddr: 0x1EC0, symBinAddr: 0x43D60, symSize: 0x90 }
  - { offset: 0x83B06, size: 0x8, addend: 0x0, symName: __ZNSt3__111basic_regexIcNS_12regex_traitsIcEEE21__parse_basic_reg_expIPKcEET_S7_S7_, symObjAddr: 0x1600, symBinAddr: 0x43530, symSize: 0x150 }
  - { offset: 0x83C7D, size: 0x8, addend: 0x0, symName: __ZNSt3__111basic_regexIcNS_12regex_traitsIcEEE12__parse_grepIPKcEET_S7_S7_, symObjAddr: 0x18E0, symBinAddr: 0x43810, symSize: 0x1E0 }
  - { offset: 0x83F36, size: 0x8, addend: 0x0, symName: __ZNSt3__119__throw_regex_errorB8ne180100ILNS_15regex_constants10error_typeE14EEEvv, symObjAddr: 0x1CA0, symBinAddr: 0x43BD0, symSize: 0x50 }
  - { offset: 0x83F4D, size: 0x8, addend: 0x0, symName: __ZNSt3__111basic_regexIcNS_12regex_traitsIcEEE16__parse_ecma_expIPKcEET_S7_S7_, symObjAddr: 0x1430, symBinAddr: 0x43360, symSize: 0x1D0 }
  - { offset: 0x84198, size: 0x8, addend: 0x0, symName: __ZNSt3__111basic_regexIcNS_12regex_traitsIcEEE12__parse_termIPKcEET_S7_S7_, symObjAddr: 0x1F50, symBinAddr: 0x43DF0, symSize: 0x80 }
  - { offset: 0x84219, size: 0x8, addend: 0x0, symName: __ZNSt3__111basic_regexIcNS_12regex_traitsIcEEE18__parse_nondupl_REIPKcEET_S7_S7_, symObjAddr: 0xA240, symBinAddr: 0x4B760, symSize: 0x1C0 }
  - { offset: 0x8449B, size: 0x8, addend: 0x0, symName: __ZNSt3__111basic_regexIcNS_12regex_traitsIcEEE22__parse_RE_dupl_symbolIPKcEET_S7_S7_PNS_16__owns_one_stateIcEEjj, symObjAddr: 0xA400, symBinAddr: 0x4B920, symSize: 0x240 }
  - { offset: 0x84732, size: 0x8, addend: 0x0, symName: __ZNSt3__119__throw_regex_errorB8ne180100ILNS_15regex_constants10error_typeE15EEEvv, symObjAddr: 0xA1F0, symBinAddr: 0x4B710, symSize: 0x50 }
  - { offset: 0x84749, size: 0x8, addend: 0x0, symName: __ZNSt3__111basic_regexIcNS_12regex_traitsIcEEE22__parse_ERE_expressionIPKcEET_S7_S7_, symObjAddr: 0xA820, symBinAddr: 0x4BCD0, symSize: 0x260 }
  - { offset: 0x849C3, size: 0x8, addend: 0x0, symName: __ZNKSt3__111__end_stateIcE6__execERNS_7__stateIcEE, symObjAddr: 0x1D10, symBinAddr: 0x43C20, symSize: 0x10 }
  - { offset: 0x849D4, size: 0x8, addend: 0x0, symName: __ZNKSt3__16__nodeIcE12__exec_splitEbRNS_7__stateIcEE, symObjAddr: 0x1D20, symBinAddr: 0x43C30, symSize: 0x10 }
  - { offset: 0x849E5, size: 0x8, addend: 0x0, symName: __ZNKSt3__16__nodeIcE6__execERNS_7__stateIcEE, symObjAddr: 0x1D30, symBinAddr: 0x43C40, symSize: 0x10 }
  - { offset: 0x849FC, size: 0x8, addend: 0x0, symName: __ZNSt3__120__shared_ptr_pointerIPNS_13__empty_stateIcEENS_10shared_ptrIS2_E27__shared_ptr_default_deleteIS2_S2_EENS_9allocatorIS2_EEED1Ev, symObjAddr: 0x1D40, symBinAddr: 0x43C50, symSize: 0x10 }
  - { offset: 0x84A28, size: 0x8, addend: 0x0, symName: __ZNSt3__120__shared_ptr_pointerIPNS_13__empty_stateIcEENS_10shared_ptrIS2_E27__shared_ptr_default_deleteIS2_S2_EENS_9allocatorIS2_EEED0Ev, symObjAddr: 0x1D50, symBinAddr: 0x43C60, symSize: 0x20 }
  - { offset: 0x84A63, size: 0x8, addend: 0x0, symName: __ZNSt3__120__shared_ptr_pointerIPNS_13__empty_stateIcEENS_10shared_ptrIS2_E27__shared_ptr_default_deleteIS2_S2_EENS_9allocatorIS2_EEE16__on_zero_sharedEv, symObjAddr: 0x1D70, symBinAddr: 0x43C80, symSize: 0x20 }
  - { offset: 0x84AA0, size: 0x8, addend: 0x0, symName: __ZNKSt3__120__shared_ptr_pointerIPNS_13__empty_stateIcEENS_10shared_ptrIS2_E27__shared_ptr_default_deleteIS2_S2_EENS_9allocatorIS2_EEE13__get_deleterERKSt9type_info, symObjAddr: 0x1D90, symBinAddr: 0x43CA0, symSize: 0x20 }
  - { offset: 0x84AE2, size: 0x8, addend: 0x0, symName: __ZNSt3__120__shared_ptr_pointerIPNS_13__empty_stateIcEENS_10shared_ptrIS2_E27__shared_ptr_default_deleteIS2_S2_EENS_9allocatorIS2_EEE21__on_zero_shared_weakEv, symObjAddr: 0x1DB0, symBinAddr: 0x43CC0, symSize: 0x10 }
  - { offset: 0x84B49, size: 0x8, addend: 0x0, symName: __ZNSt3__113__empty_stateIcED1Ev, symObjAddr: 0x1DC0, symBinAddr: 0x43CD0, symSize: 0x30 }
  - { offset: 0x84B91, size: 0x8, addend: 0x0, symName: __ZNSt3__113__empty_stateIcED0Ev, symObjAddr: 0x1DF0, symBinAddr: 0x43D00, symSize: 0x40 }
  - { offset: 0x84BF5, size: 0x8, addend: 0x0, symName: __ZNKSt3__113__empty_stateIcE6__execERNS_7__stateIcEE, symObjAddr: 0x1E30, symBinAddr: 0x43D40, symSize: 0x20 }
  - { offset: 0x84C22, size: 0x8, addend: 0x0, symName: __ZNSt3__111basic_regexIcNS_12regex_traitsIcEEE23__parse_ERE_dupl_symbolIPKcEET_S7_S7_PNS_16__owns_one_stateIcEEjj, symObjAddr: 0x2550, symBinAddr: 0x443F0, symSize: 0x3B0 }
  - { offset: 0x84E8C, size: 0x8, addend: 0x0, symName: __ZNSt3__111basic_regexIcNS_12regex_traitsIcEEE17__parse_assertionIPKcEET_S7_S7_, symObjAddr: 0x1FD0, symBinAddr: 0x43E70, symSize: 0x290 }
  - { offset: 0x8518D, size: 0x8, addend: 0x0, symName: __ZNSt3__111basic_regexIcNS_12regex_traitsIcEEE12__parse_atomIPKcEET_S7_S7_, symObjAddr: 0x2260, symBinAddr: 0x44100, symSize: 0x2F0 }
  - { offset: 0x8539E, size: 0x8, addend: 0x0, symName: __ZNSt3__111basic_regexIcNS_12regex_traitsIcEEEC1B8ne180100Ev, symObjAddr: 0x2900, symBinAddr: 0x447A0, symSize: 0x60 }
  - { offset: 0x8541A, size: 0x8, addend: 0x0, symName: __ZNSt3__111basic_regexIcNS_12regex_traitsIcEEE16__push_lookaheadERKS3_bj, symObjAddr: 0x2960, symBinAddr: 0x44800, symSize: 0xC0 }
  - { offset: 0x85545, size: 0x8, addend: 0x0, symName: __ZNSt3__119__throw_regex_errorB8ne180100ILNS_15regex_constants10error_typeE6EEEvv, symObjAddr: 0x2A20, symBinAddr: 0x448C0, symSize: 0x50 }
  - { offset: 0x8558C, size: 0x8, addend: 0x0, symName: __ZNSt3__111basic_regexIcNS_12regex_traitsIcEEE26__parse_bracket_expressionIPKcEET_S7_S7_, symObjAddr: 0x4130, symBinAddr: 0x45EF0, symSize: 0x140 }
  - { offset: 0x85641, size: 0x8, addend: 0x0, symName: __ZNSt3__111basic_regexIcNS_12regex_traitsIcEEE19__parse_atom_escapeIPKcEET_S7_S7_, symObjAddr: 0x4020, symBinAddr: 0x45DE0, symSize: 0x110 }
  - { offset: 0x856ED, size: 0x8, addend: 0x0, symName: __ZNSt3__111basic_regexIcNS_12regex_traitsIcEEE25__parse_pattern_characterIPKcEET_S7_S7_, symObjAddr: 0x42C0, symBinAddr: 0x46080, symSize: 0x1B0 }
  - { offset: 0x8570C, size: 0x8, addend: 0x0, symName: __ZNSt3__119__throw_regex_errorB8ne180100ILNS_15regex_constants10error_typeE11EEEvv, symObjAddr: 0x4270, symBinAddr: 0x46030, symSize: 0x50 }
  - { offset: 0x85747, size: 0x8, addend: 0x0, symName: __ZNSt3__111basic_regexIcNS_12regex_traitsIcEEE11__push_loopEmmPNS_16__owns_one_stateIcEEmmb, symObjAddr: 0x9AC0, symBinAddr: 0x4B0D0, symSize: 0x140 }
  - { offset: 0x85977, size: 0x8, addend: 0x0, symName: __ZNSt3__119__throw_regex_errorB8ne180100ILNS_15regex_constants10error_typeE8EEEvv, symObjAddr: 0x9C00, symBinAddr: 0x4B210, symSize: 0x50 }
  - { offset: 0x85988, size: 0x8, addend: 0x0, symName: __ZNSt3__119__throw_regex_errorB8ne180100ILNS_15regex_constants10error_typeE7EEEvv, symObjAddr: 0x9C50, symBinAddr: 0x4B260, symSize: 0x50 }
  - { offset: 0x859D5, size: 0x8, addend: 0x0, symName: __ZNKSt3__120__l_anchor_multilineIcE6__execERNS_7__stateIcEE, symObjAddr: 0x2AE0, symBinAddr: 0x44910, symSize: 0x60 }
  - { offset: 0x859FA, size: 0x8, addend: 0x0, symName: __ZNKSt3__120__r_anchor_multilineIcE6__execERNS_7__stateIcEE, symObjAddr: 0x2BB0, symBinAddr: 0x44970, symSize: 0x50 }
  - { offset: 0x85A25, size: 0x8, addend: 0x0, symName: __ZNSt3__115__word_boundaryIcNS_12regex_traitsIcEEED1Ev, symObjAddr: 0x2C00, symBinAddr: 0x449C0, symSize: 0x50 }
  - { offset: 0x85A9E, size: 0x8, addend: 0x0, symName: __ZNSt3__115__word_boundaryIcNS_12regex_traitsIcEEED0Ev, symObjAddr: 0x2C50, symBinAddr: 0x44A10, symSize: 0x50 }
  - { offset: 0x85B39, size: 0x8, addend: 0x0, symName: __ZNKSt3__115__word_boundaryIcNS_12regex_traitsIcEEE6__execERNS_7__stateIcEE, symObjAddr: 0x2CA0, symBinAddr: 0x44A60, symSize: 0x100 }
  - { offset: 0x85C0F, size: 0x8, addend: 0x0, symName: __ZNSt3__111__lookaheadIcNS_12regex_traitsIcEEED1Ev, symObjAddr: 0x2DA0, symBinAddr: 0x44B60, symSize: 0x90 }
  - { offset: 0x85D2A, size: 0x8, addend: 0x0, symName: __ZNSt3__111__lookaheadIcNS_12regex_traitsIcEEED0Ev, symObjAddr: 0x2E30, symBinAddr: 0x44BF0, symSize: 0x90 }
  - { offset: 0x85E79, size: 0x8, addend: 0x0, symName: __ZNKSt3__111__lookaheadIcNS_12regex_traitsIcEEE6__execERNS_7__stateIcEE, symObjAddr: 0x2EC0, symBinAddr: 0x44C80, symSize: 0x1A0 }
  - { offset: 0x86217, size: 0x8, addend: 0x0, symName: __ZNSt3__16vectorINS_9sub_matchIPKcEENS_9allocatorIS4_EEE6assignEmRKS4_, symObjAddr: 0x3550, symBinAddr: 0x45310, symSize: 0x230 }
  - { offset: 0x86540, size: 0x8, addend: 0x0, symName: __ZNKSt3__111basic_regexIcNS_12regex_traitsIcEEE21__match_at_start_ecmaINS_9allocatorINS_9sub_matchIPKcEEEEEEbS8_S8_RNS_13match_resultsIS8_T_EENS_15regex_constants15match_flag_typeEb, symObjAddr: 0x3060, symBinAddr: 0x44E20, symSize: 0x4F0 }
  - { offset: 0x8722F, size: 0x8, addend: 0x0, symName: __ZNSt3__16vectorINS_7__stateIcEENS_9allocatorIS2_EEE21__push_back_slow_pathIS2_EEPS2_OT_, symObjAddr: 0x38F0, symBinAddr: 0x456B0, symSize: 0x240 }
  - { offset: 0x877E0, size: 0x8, addend: 0x0, symName: __ZNSt3__16vectorINS_9sub_matchIPKcEENS_9allocatorIS4_EEE8__appendEmRKS4_, symObjAddr: 0x3B40, symBinAddr: 0x45900, symSize: 0x1C0 }
  - { offset: 0x87B20, size: 0x8, addend: 0x0, symName: __ZNSt3__16vectorINS_4pairImPKcEENS_9allocatorIS4_EEE8__appendEm, symObjAddr: 0x3D00, symBinAddr: 0x45AC0, symSize: 0x150 }
  - { offset: 0x87E79, size: 0x8, addend: 0x0, symName: __ZNSt3__17__stateIcEC2ERKS1_, symObjAddr: 0x3E60, symBinAddr: 0x45C20, symSize: 0x1C0 }
  - { offset: 0x8821A, size: 0x8, addend: 0x0, symName: __ZNSt3__119__throw_regex_errorB8ne180100ILNS_15regex_constants10error_typeE12EEEvv, symObjAddr: 0x37D0, symBinAddr: 0x45590, symSize: 0x50 }
  - { offset: 0x8822B, size: 0x8, addend: 0x0, symName: __ZNSt3__119__throw_regex_errorB8ne180100ILNS_15regex_constants10error_typeE16EEEvv, symObjAddr: 0x3820, symBinAddr: 0x455E0, symSize: 0x50 }
  - { offset: 0x8823C, size: 0x8, addend: 0x0, symName: __ZNSt3__17__stateIcED1Ev, symObjAddr: 0x3790, symBinAddr: 0x45550, symSize: 0x40 }
  - { offset: 0x88416, size: 0x8, addend: 0x0, symName: __ZNSt3__16vectorINS_7__stateIcEENS_9allocatorIS2_EEED1B8ne180100Ev, symObjAddr: 0x3870, symBinAddr: 0x45630, symSize: 0x80 }
  - { offset: 0x88747, size: 0x8, addend: 0x0, symName: __ZNKSt3__16vectorINS_9sub_matchIPKcEENS_9allocatorIS4_EEE20__throw_length_errorB8ne180100Ev, symObjAddr: 0x3780, symBinAddr: 0x45540, symSize: 0x10 }
  - { offset: 0x8875C, size: 0x8, addend: 0x0, symName: __ZNSt3__17__stateIcED1Ev, symObjAddr: 0x3790, symBinAddr: 0x45550, symSize: 0x40 }
  - { offset: 0x887DE, size: 0x8, addend: 0x0, symName: __ZNKSt3__16vectorINS_7__stateIcEENS_9allocatorIS2_EEE20__throw_length_errorB8ne180100Ev, symObjAddr: 0x3B30, symBinAddr: 0x458F0, symSize: 0x10 }
  - { offset: 0x887F3, size: 0x8, addend: 0x0, symName: __ZNSt3__16vectorINS_9sub_matchIPKcEENS_9allocatorIS4_EEE8__appendEmRKS4_, symObjAddr: 0x3B40, symBinAddr: 0x45900, symSize: 0x1C0 }
  - { offset: 0x888FF, size: 0x8, addend: 0x0, symName: __ZNKSt3__16vectorINS_4pairImPKcEENS_9allocatorIS4_EEE20__throw_length_errorB8ne180100Ev, symObjAddr: 0x3E50, symBinAddr: 0x45C10, symSize: 0x10 }
  - { offset: 0x88914, size: 0x8, addend: 0x0, symName: __ZNSt3__17__stateIcEC2ERKS1_, symObjAddr: 0x3E60, symBinAddr: 0x45C20, symSize: 0x1C0 }
  - { offset: 0x889AE, size: 0x8, addend: 0x0, symName: __ZNSt3__111basic_regexIcNS_12regex_traitsIcEEE11__push_charEc, symObjAddr: 0x4C10, symBinAddr: 0x46960, symSize: 0x140 }
  - { offset: 0x88BA1, size: 0x8, addend: 0x0, symName: __ZNSt3__111basic_regexIcNS_12regex_traitsIcEEE15__push_back_refEi, symObjAddr: 0x4DA0, symBinAddr: 0x46AF0, symSize: 0xD0 }
  - { offset: 0x88CCD, size: 0x8, addend: 0x0, symName: __ZNSt3__111basic_regexIcNS_12regex_traitsIcEEE30__parse_character_class_escapeIPKcEET_S7_S7_, symObjAddr: 0x4530, symBinAddr: 0x46280, symSize: 0x2E0 }
  - { offset: 0x88F4E, size: 0x8, addend: 0x0, symName: __ZNSt3__111basic_regexIcNS_12regex_traitsIcEEE24__parse_character_escapeIPKcEET_S7_S7_PNS_12basic_stringIcNS_11char_traitsIcEENS_9allocatorIcEEEE, symObjAddr: 0x4810, symBinAddr: 0x46560, symSize: 0x400 }
  - { offset: 0x8918C, size: 0x8, addend: 0x0, symName: __ZNSt3__119__throw_regex_errorB8ne180100ILNS_15regex_constants10error_typeE4EEEvv, symObjAddr: 0x4D50, symBinAddr: 0x46AA0, symSize: 0x50 }
  - { offset: 0x8919D, size: 0x8, addend: 0x0, symName: __ZNSt3__119__throw_regex_errorB8ne180100ILNS_15regex_constants10error_typeE3EEEvv, symObjAddr: 0x44E0, symBinAddr: 0x46230, symSize: 0x50 }
  - { offset: 0x891C6, size: 0x8, addend: 0x0, symName: __ZNSt3__120__bracket_expressionIcNS_12regex_traitsIcEEEC2B8ne180100ERKS2_PNS_6__nodeIcEEbbb, symObjAddr: 0x5B10, symBinAddr: 0x47780, symSize: 0x1A0 }
  - { offset: 0x8964A, size: 0x8, addend: 0x0, symName: __ZNSt3__120__bracket_expressionIcNS_12regex_traitsIcEEE10__add_charB8ne180100Ec, symObjAddr: 0x5490, symBinAddr: 0x47100, symSize: 0x680 }
  - { offset: 0x89C64, size: 0x8, addend: 0x0, symName: __ZNSt3__111basic_regexIcNS_12regex_traitsIcEEE23__parse_expression_termIPKcEET_S7_S7_PNS_20__bracket_expressionIcS2_EE, symObjAddr: 0x70D0, symBinAddr: 0x48D20, symSize: 0x480 }
  - { offset: 0x8A624, size: 0x8, addend: 0x0, symName: __ZNSt3__119__throw_regex_errorB8ne180100ILNS_15regex_constants10error_typeE5EEEvv, symObjAddr: 0x7080, symBinAddr: 0x48CD0, symSize: 0x50 }
  - { offset: 0x8A6A1, size: 0x8, addend: 0x0, symName: __ZNSt3__118__match_char_icaseIcNS_12regex_traitsIcEEED1Ev, symObjAddr: 0x4E70, symBinAddr: 0x46BC0, symSize: 0x50 }
  - { offset: 0x8A71A, size: 0x8, addend: 0x0, symName: __ZNSt3__118__match_char_icaseIcNS_12regex_traitsIcEEED0Ev, symObjAddr: 0x4EC0, symBinAddr: 0x46C10, symSize: 0x50 }
  - { offset: 0x8A7A3, size: 0x8, addend: 0x0, symName: __ZNKSt3__118__match_char_icaseIcNS_12regex_traitsIcEEE6__execERNS_7__stateIcEE, symObjAddr: 0x4F10, symBinAddr: 0x46C60, symSize: 0x50 }
  - { offset: 0x8A806, size: 0x8, addend: 0x0, symName: __ZNSt3__120__match_char_collateIcNS_12regex_traitsIcEEED1Ev, symObjAddr: 0x4F60, symBinAddr: 0x46CB0, symSize: 0x50 }
  - { offset: 0x8A87F, size: 0x8, addend: 0x0, symName: __ZNSt3__120__match_char_collateIcNS_12regex_traitsIcEEED0Ev, symObjAddr: 0x4FB0, symBinAddr: 0x46D00, symSize: 0x50 }
  - { offset: 0x8A908, size: 0x8, addend: 0x0, symName: __ZNKSt3__120__match_char_collateIcNS_12regex_traitsIcEEE6__execERNS_7__stateIcEE, symObjAddr: 0x5000, symBinAddr: 0x46D50, symSize: 0x40 }
  - { offset: 0x8A92F, size: 0x8, addend: 0x0, symName: __ZNKSt3__112__match_charIcE6__execERNS_7__stateIcEE, symObjAddr: 0x50B0, symBinAddr: 0x46D90, symSize: 0x40 }
  - { offset: 0x8A95C, size: 0x8, addend: 0x0, symName: __ZNSt3__116__back_ref_icaseIcNS_12regex_traitsIcEEED1Ev, symObjAddr: 0x50F0, symBinAddr: 0x46DD0, symSize: 0x50 }
  - { offset: 0x8A9D5, size: 0x8, addend: 0x0, symName: __ZNSt3__116__back_ref_icaseIcNS_12regex_traitsIcEEED0Ev, symObjAddr: 0x5140, symBinAddr: 0x46E20, symSize: 0x50 }
  - { offset: 0x8AA5E, size: 0x8, addend: 0x0, symName: __ZNKSt3__116__back_ref_icaseIcNS_12regex_traitsIcEEE6__execERNS_7__stateIcEE, symObjAddr: 0x5190, symBinAddr: 0x46E70, symSize: 0xD0 }
  - { offset: 0x8AB0C, size: 0x8, addend: 0x0, symName: __ZNSt3__118__back_ref_collateIcNS_12regex_traitsIcEEED1Ev, symObjAddr: 0x5260, symBinAddr: 0x46F40, symSize: 0x50 }
  - { offset: 0x8AB85, size: 0x8, addend: 0x0, symName: __ZNSt3__118__back_ref_collateIcNS_12regex_traitsIcEEED0Ev, symObjAddr: 0x52B0, symBinAddr: 0x46F90, symSize: 0x50 }
  - { offset: 0x8AC0E, size: 0x8, addend: 0x0, symName: __ZNKSt3__118__back_ref_collateIcNS_12regex_traitsIcEEE6__execERNS_7__stateIcEE, symObjAddr: 0x5300, symBinAddr: 0x46FE0, symSize: 0x80 }
  - { offset: 0x8AC62, size: 0x8, addend: 0x0, symName: __ZNKSt3__110__back_refIcE6__execERNS_7__stateIcEE, symObjAddr: 0x53F0, symBinAddr: 0x47060, symSize: 0xA0 }
  - { offset: 0x8ADCA, size: 0x8, addend: 0x0, symName: __ZNSt3__119__throw_regex_errorB8ne180100ILNS_15regex_constants10error_typeE5EEEvv, symObjAddr: 0x7080, symBinAddr: 0x48CD0, symSize: 0x50 }
  - { offset: 0x8AE46, size: 0x8, addend: 0x0, symName: __ZNSt3__16vectorINS_12basic_stringIcNS_11char_traitsIcEENS_9allocatorIcEEEENS4_IS6_EEED1B8ne180100Ev, symObjAddr: 0x5CB0, symBinAddr: 0x47920, symSize: 0x70 }
  - { offset: 0x8AFE9, size: 0x8, addend: 0x0, symName: __ZNSt3__16vectorINS_4pairINS_12basic_stringIcNS_11char_traitsIcEENS_9allocatorIcEEEES7_EENS5_IS8_EEED1B8ne180100Ev, symObjAddr: 0x5D20, symBinAddr: 0x47990, symSize: 0x90 }
  - { offset: 0x8B2AF, size: 0x8, addend: 0x0, symName: __ZNSt3__120__bracket_expressionIcNS_12regex_traitsIcEEED1Ev, symObjAddr: 0x5DB0, symBinAddr: 0x47A20, symSize: 0x10 }
  - { offset: 0x8B2CE, size: 0x8, addend: 0x0, symName: __ZNSt3__120__bracket_expressionIcNS_12regex_traitsIcEEED2Ev, symObjAddr: 0x6A40, symBinAddr: 0x486B0, symSize: 0x150 }
  - { offset: 0x8B9ED, size: 0x8, addend: 0x0, symName: __ZNSt3__120__bracket_expressionIcNS_12regex_traitsIcEEED0Ev, symObjAddr: 0x5DC0, symBinAddr: 0x47A30, symSize: 0x20 }
  - { offset: 0x8BAFF, size: 0x8, addend: 0x0, symName: __ZNKSt3__120__bracket_expressionIcNS_12regex_traitsIcEEE6__execERNS_7__stateIcEE, symObjAddr: 0x5DE0, symBinAddr: 0x47A50, symSize: 0xC20 }
  - { offset: 0x8C8F9, size: 0x8, addend: 0x0, symName: __ZNKSt3__112regex_traitsIcE20__lookup_collatenameIPcEENS_12basic_stringIcNS_11char_traitsIcEENS_9allocatorIcEEEET_SA_c, symObjAddr: 0x6CB0, symBinAddr: 0x48920, symSize: 0x230 }
  - { offset: 0x8D03E, size: 0x8, addend: 0x0, symName: __ZNKSt3__112regex_traitsIcE9transformIPcEENS_12basic_stringIcNS_11char_traitsIcEENS_9allocatorIcEEEET_SA_, symObjAddr: 0x6B90, symBinAddr: 0x48800, symSize: 0x120 }
  - { offset: 0x8D3CC, size: 0x8, addend: 0x0, symName: __ZNKSt3__112regex_traitsIcE19__transform_primaryIPcEENS_12basic_stringIcNS_11char_traitsIcEENS_9allocatorIcEEEET_SA_c, symObjAddr: 0x6EF0, symBinAddr: 0x48B50, symSize: 0x180 }
  - { offset: 0x8D7FF, size: 0x8, addend: 0x0, symName: __ZNSt3__14pairINS_12basic_stringIcNS_11char_traitsIcEENS_9allocatorIcEEEES6_ED1Ev, symObjAddr: 0x6A00, symBinAddr: 0x48670, symSize: 0x40 }
  - { offset: 0x8D9E1, size: 0x8, addend: 0x0, symName: __ZNKSt3__112regex_traitsIcE19__transform_primaryIPcEENS_12basic_stringIcNS_11char_traitsIcEENS_9allocatorIcEEEET_SA_c, symObjAddr: 0x6EF0, symBinAddr: 0x48B50, symSize: 0x180 }
  - { offset: 0x8DA83, size: 0x8, addend: 0x0, symName: __ZNSt3__111basic_regexIcNS_12regex_traitsIcEEE25__parse_equivalence_classIPKcEET_S7_S7_PNS_20__bracket_expressionIcS2_EE, symObjAddr: 0x7550, symBinAddr: 0x491A0, symSize: 0x260 }
  - { offset: 0x8E10C, size: 0x8, addend: 0x0, symName: __ZNSt3__111basic_regexIcNS_12regex_traitsIcEEE18__parse_awk_escapeIPKcEET_S7_S7_PNS_12basic_stringIcNS_11char_traitsIcEENS_9allocatorIcEEEE, symObjAddr: 0x7A20, symBinAddr: 0x49670, symSize: 0x320 }
  - { offset: 0x8E1A0, size: 0x8, addend: 0x0, symName: __ZNKSt3__112regex_traitsIcE18__lookup_classnameIPKcEEjT_S5_bc, symObjAddr: 0x8E50, symBinAddr: 0x4A660, symSize: 0x130 }
  - { offset: 0x8E592, size: 0x8, addend: 0x0, symName: __ZNSt3__111basic_regexIcNS_12regex_traitsIcEEE24__parse_collating_symbolIPKcEET_S7_S7_RNS_12basic_stringIcNS_11char_traitsIcEENS_9allocatorIcEEEE, symObjAddr: 0x77B0, symBinAddr: 0x49400, symSize: 0xE0 }
  - { offset: 0x8E7A5, size: 0x8, addend: 0x0, symName: __ZNSt3__111basic_regexIcNS_12regex_traitsIcEEE20__parse_class_escapeIPKcEET_S7_S7_RNS_12basic_stringIcNS_11char_traitsIcEENS_9allocatorIcEEEEPNS_20__bracket_expressionIcS2_EE, symObjAddr: 0x7890, symBinAddr: 0x494E0, symSize: 0x190 }
  - { offset: 0x8E869, size: 0x8, addend: 0x0, symName: __ZNSt3__120__bracket_expressionIcNS_12regex_traitsIcEEE13__add_digraphB8ne180100Ecc, symObjAddr: 0x8230, symBinAddr: 0x49E80, symSize: 0x4E0 }
  - { offset: 0x8F0B8, size: 0x8, addend: 0x0, symName: __ZNSt3__120__bracket_expressionIcNS_12regex_traitsIcEEE11__add_rangeB8ne180100ENS_12basic_stringIcNS_11char_traitsIcEENS_9allocatorIcEEEES9_, symObjAddr: 0x7D40, symBinAddr: 0x49990, symSize: 0x4F0 }
  - { offset: 0x8FF0F, size: 0x8, addend: 0x0, symName: __ZNSt3__119__throw_regex_errorB8ne180100ILNS_15regex_constants10error_typeE2EEEvv, symObjAddr: 0x8E00, symBinAddr: 0x4A610, symSize: 0x50 }
  - { offset: 0x90521, size: 0x8, addend: 0x0, symName: __ZNSt3__16vectorINS_12basic_stringIcNS_11char_traitsIcEENS_9allocatorIcEEEENS4_IS6_EEE21__push_back_slow_pathIRKS6_EEPS6_OT_, symObjAddr: 0x8B10, symBinAddr: 0x4A3B0, symSize: 0x1F0 }
  - { offset: 0x90A0E, size: 0x8, addend: 0x0, symName: __ZNSt3__119__throw_regex_errorB8ne180100ILNS_15regex_constants10error_typeE1EEEvv, symObjAddr: 0x8710, symBinAddr: 0x4A360, symSize: 0x50 }
  - { offset: 0x90A25, size: 0x8, addend: 0x0, symName: __ZNSt3__120__bracket_expressionIcNS_12regex_traitsIcEEE14__add_neg_charB8ne180100Ec, symObjAddr: 0x8F80, symBinAddr: 0x4A790, symSize: 0x680 }
  - { offset: 0x9123A, size: 0x8, addend: 0x0, symName: __ZNSt3__16vectorINS_4pairINS_12basic_stringIcNS_11char_traitsIcEENS_9allocatorIcEEEES7_EENS5_IS8_EEE21__push_back_slow_pathIS8_EEPS8_OT_, symObjAddr: 0x9770, symBinAddr: 0x4AE60, symSize: 0x1F0 }
  - { offset: 0x9175C, size: 0x8, addend: 0x0, symName: __ZNSt3__119__throw_regex_errorB8ne180100ILNS_15regex_constants10error_typeE9EEEvv, symObjAddr: 0x9720, symBinAddr: 0x4AE10, symSize: 0x50 }
  - { offset: 0x917F7, size: 0x8, addend: 0x0, symName: __ZNKSt3__16vectorINS_4pairIccEENS_9allocatorIS2_EEE20__throw_length_errorB8ne180100Ev, symObjAddr: 0x9970, symBinAddr: 0x4B060, symSize: 0x10 }
  - { offset: 0x91906, size: 0x8, addend: 0x0, symName: __ZNKSt3__16vectorINS_12basic_stringIcNS_11char_traitsIcEENS_9allocatorIcEEEENS4_IS6_EEE20__throw_length_errorB8ne180100Ev, symObjAddr: 0x8DF0, symBinAddr: 0x4A600, symSize: 0x10 }
  - { offset: 0x9191B, size: 0x8, addend: 0x0, symName: __ZNSt3__119__throw_regex_errorB8ne180100ILNS_15regex_constants10error_typeE2EEEvv, symObjAddr: 0x8E00, symBinAddr: 0x4A610, symSize: 0x50 }
  - { offset: 0x91925, size: 0x8, addend: 0x0, symName: __ZNSt3__114__split_bufferINS_12basic_stringIcNS_11char_traitsIcEENS_9allocatorIcEEEERNS4_IS6_EEED1Ev, symObjAddr: 0x8D90, symBinAddr: 0x4A5A0, symSize: 0x60 }
  - { offset: 0x91B8A, size: 0x8, addend: 0x0, symName: __ZNKSt3__16vectorINS_4pairINS_12basic_stringIcNS_11char_traitsIcEENS_9allocatorIcEEEES7_EENS5_IS8_EEE20__throw_length_errorB8ne180100Ev, symObjAddr: 0x9960, symBinAddr: 0x4B050, symSize: 0x10 }
  - { offset: 0x91B9F, size: 0x8, addend: 0x0, symName: __ZNKSt3__16vectorINS_4pairIccEENS_9allocatorIS2_EEE20__throw_length_errorB8ne180100Ev, symObjAddr: 0x9970, symBinAddr: 0x4B060, symSize: 0x10 }
  - { offset: 0x91BA9, size: 0x8, addend: 0x0, symName: __ZNKSt3__128__begin_marked_subexpressionIcE6__execERNS_7__stateIcEE, symObjAddr: 0x99F0, symBinAddr: 0x4B070, symSize: 0x30 }
  - { offset: 0x91BE5, size: 0x8, addend: 0x0, symName: __ZNKSt3__126__end_marked_subexpressionIcE6__execERNS_7__stateIcEE, symObjAddr: 0x9A90, symBinAddr: 0x4B0A0, symSize: 0x30 }
  - { offset: 0x91C51, size: 0x8, addend: 0x0, symName: __ZNSt3__16__loopIcED0Ev, symObjAddr: 0x9CF0, symBinAddr: 0x4B300, symSize: 0x60 }
  - { offset: 0x91CDC, size: 0x8, addend: 0x0, symName: __ZNSt3__16__loopIcED1Ev, symObjAddr: 0x9CA0, symBinAddr: 0x4B2B0, symSize: 0x50 }
  - { offset: 0x91D5D, size: 0x8, addend: 0x0, symName: __ZNKSt3__16__loopIcE6__execERNS_7__stateIcEE, symObjAddr: 0x9D50, symBinAddr: 0x4B360, symSize: 0x1D0 }
  - { offset: 0x91E15, size: 0x8, addend: 0x0, symName: __ZNKSt3__16__loopIcE12__exec_splitEbRNS_7__stateIcEE, symObjAddr: 0x9F20, symBinAddr: 0x4B530, symSize: 0xC0 }
  - { offset: 0x91E91, size: 0x8, addend: 0x0, symName: __ZNSt3__117__owns_two_statesIcED1Ev, symObjAddr: 0x9FE0, symBinAddr: 0x4B5F0, symSize: 0x50 }
  - { offset: 0x91EEA, size: 0x8, addend: 0x0, symName: __ZNSt3__117__owns_two_statesIcED0Ev, symObjAddr: 0xA030, symBinAddr: 0x4B640, symSize: 0x60 }
  - { offset: 0x91F53, size: 0x8, addend: 0x0, symName: __ZNKSt3__117__repeat_one_loopIcE6__execERNS_7__stateIcEE, symObjAddr: 0xA0B0, symBinAddr: 0x4B6A0, symSize: 0x20 }
  - { offset: 0x91F7A, size: 0x8, addend: 0x0, symName: __ZNKSt3__111__alternateIcE6__execERNS_7__stateIcEE, symObjAddr: 0xA180, symBinAddr: 0x4B6C0, symSize: 0x10 }
  - { offset: 0x91F8B, size: 0x8, addend: 0x0, symName: __ZNKSt3__111__alternateIcE12__exec_splitEbRNS_7__stateIcEE, symObjAddr: 0xA190, symBinAddr: 0x4B6D0, symSize: 0x20 }
  - { offset: 0x91F9C, size: 0x8, addend: 0x0, symName: __ZNKSt3__121__empty_non_own_stateIcE6__execERNS_7__stateIcEE, symObjAddr: 0xA1D0, symBinAddr: 0x4B6F0, symSize: 0x20 }
  - { offset: 0x91FDB, size: 0x8, addend: 0x0, symName: __ZNSt3__111basic_regexIcNS_12regex_traitsIcEEE32__parse_one_char_or_coll_elem_REIPKcEET_S7_S7_, symObjAddr: 0xA640, symBinAddr: 0x4BB60, symSize: 0xF0 }
  - { offset: 0x9210D, size: 0x8, addend: 0x0, symName: __ZNKSt3__111__match_anyIcE6__execERNS_7__stateIcEE, symObjAddr: 0xA7A0, symBinAddr: 0x4BC50, symSize: 0x40 }
  - { offset: 0x92134, size: 0x8, addend: 0x0, symName: __ZNSt3__111basic_regexIcNS_12regex_traitsIcEEE15__test_back_refEc, symObjAddr: 0xA7E0, symBinAddr: 0x4BC90, symSize: 0x40 }
  - { offset: 0x921BD, size: 0x8, addend: 0x0, symName: __ZNSt3__111basic_regexIcNS_12regex_traitsIcEEE20__parse_ORD_CHAR_EREIPKcEET_S7_S7_, symObjAddr: 0xAA80, symBinAddr: 0x4BF30, symSize: 0x1B0 }
  - { offset: 0x921DC, size: 0x8, addend: 0x0, symName: __ZNSt3__111basic_regexIcNS_12regex_traitsIcEEE23__parse_QUOTED_CHAR_EREIPKcEET_S7_S7_, symObjAddr: 0xAC30, symBinAddr: 0x4C0E0, symSize: 0x1F0 }
  - { offset: 0x92287, size: 0x8, addend: 0x0, symName: __ZNKSt3__111basic_regexIcNS_12regex_traitsIcEEE27__match_at_start_posix_subsINS_9allocatorINS_9sub_matchIPKcEEEEEEbS8_S8_RNS_13match_resultsIS8_T_EENS_15regex_constants15match_flag_typeEb, symObjAddr: 0xBB90, symBinAddr: 0x4D040, symSize: 0x6F0 }
  - { offset: 0x93788, size: 0x8, addend: 0x0, symName: __ZNKSt3__111basic_regexIcNS_12regex_traitsIcEEE29__match_at_start_posix_nosubsINS_9allocatorINS_9sub_matchIPKcEEEEEEbS8_S8_RNS_13match_resultsIS8_T_EENS_15regex_constants15match_flag_typeEb, symObjAddr: 0xB150, symBinAddr: 0x4C600, symSize: 0xA40 }
  - { offset: 0x94CA7, size: 0x8, addend: 0x0, symName: __ZNSt3__15dequeINS_7__stateIcEENS_9allocatorIS2_EEE19__add_back_capacityEv, symObjAddr: 0xC450, symBinAddr: 0x4D900, symSize: 0x720 }
  - { offset: 0x958ED, size: 0x8, addend: 0x0, symName: __ZNSt3__15dequeINS_7__stateIcEENS_9allocatorIS2_EEE20__add_front_capacityEv, symObjAddr: 0xCF20, symBinAddr: 0x4E020, symSize: 0x410 }
  - { offset: 0x961A0, size: 0x8, addend: 0x0, symName: __ZNSt3__15dequeINS_7__stateIcEENS_9allocatorIS2_EEED1B8ne180100Ev, symObjAddr: 0xC3E0, symBinAddr: 0x4D890, symSize: 0x70 }
  - { offset: 0x96356, size: 0x8, addend: 0x0, symName: __ZNSt3__16vectorINS_9sub_matchIPKcEENS_9allocatorIS4_EEE18__assign_with_sizeB8ne180100IPS4_S9_EEvT_T0_l, symObjAddr: 0xD500, symBinAddr: 0x4E430, symSize: 0x1F0 }
  - { offset: 0x967A1, size: 0x8, addend: 0x0, symName: __ZNSt3__16vectorINS_4pairImPKcEENS_9allocatorIS4_EEE18__assign_with_sizeB8ne180100IPS4_S9_EEvT_T0_l, symObjAddr: 0xD6F0, symBinAddr: 0x4E620, symSize: 0x1BF }
  - { offset: 0x96BB0, size: 0x8, addend: 0x0, symName: __ZNSt3__15dequeINS_7__stateIcEENS_9allocatorIS2_EEE5clearEv, symObjAddr: 0xC280, symBinAddr: 0x4D730, symSize: 0x160 }
  - { offset: 0x974A8, size: 0x8, addend: 0x0, symName: __ZN6Typing5startEv, symObjAddr: 0x0, symBinAddr: 0x4E7E0, symSize: 0x10 }
  - { offset: 0x974B9, size: 0x8, addend: 0x0, symName: __ZN6Typing4stopEv, symObjAddr: 0x10, symBinAddr: 0x4E7F0, symSize: 0x10 }
  - { offset: 0x974CA, size: 0x8, addend: 0x0, symName: __ZNK6Typing7is_sentEv, symObjAddr: 0x20, symBinAddr: 0x4E800, symSize: 0x10 }
  - { offset: 0x974FF, size: 0x8, addend: 0x0, symName: __ZN6Typing20add_typing_indicatorERKN6Pubnub6StringE, symObjAddr: 0x30, symBinAddr: 0x4E810, symSize: 0x50 }
  - { offset: 0x9780D, size: 0x8, addend: 0x0, symName: __ZN6Typing23remove_typing_indicatorERKN6Pubnub6StringE, symObjAddr: 0x80, symBinAddr: 0x4E860, symSize: 0x170 }
  - { offset: 0x97A6F, size: 0x8, addend: 0x0, symName: __ZNK6Typing21get_typing_indicatorsEv, symObjAddr: 0x1F0, symBinAddr: 0x4E9D0, symSize: 0x10 }
  - { offset: 0x97A9E, size: 0x8, addend: 0x0, symName: __ZNK6Typing25contains_typing_indicatorERKN6Pubnub6StringE, symObjAddr: 0x200, symBinAddr: 0x4E9E0, symSize: 0xA0 }
  - { offset: 0x97B70, size: 0x8, addend: 0x0, symName: __ZN6Typing7payloadEb, symObjAddr: 0x2A0, symBinAddr: 0x4EA80, symSize: 0xF0 }
  - { offset: 0x97BD4, size: 0x8, addend: 0x0, symName: __ZN6Typing23typing_value_from_eventERKN6Pubnub5EventE, symObjAddr: 0x390, symBinAddr: 0x4EB70, symSize: 0x140 }
  - { offset: 0x98C3E, size: 0x8, addend: 0x0, symName: __ZN9Timetoken3nowEv, symObjAddr: 0x0, symBinAddr: 0x4ECB0, symSize: 0x70 }
  - { offset: 0x98C93, size: 0x8, addend: 0x0, symName: __ZN9Timetoken3nowEv, symObjAddr: 0x0, symBinAddr: 0x4ECB0, symSize: 0x70 }
  - { offset: 0x98E7A, size: 0x8, addend: 0x0, symName: __ZN9Timetoken11now_numericEv, symObjAddr: 0x70, symBinAddr: 0x4ED20, symSize: 0x20 }
  - { offset: 0x98EBB, size: 0x8, addend: 0x0, symName: __ZN9Timetoken11increase_byERKN6Pubnub6StringEi, symObjAddr: 0x90, symBinAddr: 0x4ED40, symSize: 0xB0 }
  - { offset: 0x99128, size: 0x8, addend: 0x0, symName: __ZN9Timetoken7to_longERKN6Pubnub6StringE, symObjAddr: 0x140, symBinAddr: 0x4EDF0, symSize: 0x60 }
  - { offset: 0x992C9, size: 0x8, addend: 0x0, symName: __ZN9Timetoken15increase_by_oneERKN6Pubnub6StringE, symObjAddr: 0x1A0, symBinAddr: 0x4EE50, symSize: 0x1D }
  - { offset: 0x9931B, size: 0x8, addend: 0x0, symName: __ZN12Restrictions21remove_member_payloadERKN6Pubnub6StringE, symObjAddr: 0x0, symBinAddr: 0x4EE70, symSize: 0xC0 }
  - { offset: 0x9934F, size: 0x8, addend: 0x0, symName: __ZN12Restrictions25lift_restrictions_payloadERKN6Pubnub6StringES3_, symObjAddr: 0xC0, symBinAddr: 0x4EF30, symSize: 0x140 }
  - { offset: 0x99395, size: 0x8, addend: 0x0, symName: __ZN12Restrictions23restrict_member_payloadERKN6Pubnub6StringE, symObjAddr: 0x200, symBinAddr: 0x4F070, symSize: 0xBD }
  - { offset: 0x993F4, size: 0x8, addend: 0x0, symName: __ZN31MessageDraftMentionTargetEntity4userERKN6Pubnub6StringE, symObjAddr: 0x50, symBinAddr: 0x4F1F0, symSize: 0x20 }
  - { offset: 0x99405, size: 0x8, addend: 0x0, symName: __ZN31MessageDraftMentionTargetEntity7channelERKN6Pubnub6StringE, symObjAddr: 0x70, symBinAddr: 0x4F210, symSize: 0x20 }
  - { offset: 0x99416, size: 0x8, addend: 0x0, symName: __ZN31MessageDraftMentionTargetEntity3urlERKN6Pubnub6StringE, symObjAddr: 0x90, symBinAddr: 0x4F230, symSize: 0x20 }
  - { offset: 0x99427, size: 0x8, addend: 0x0, symName: __ZNK25MessageDraftMentionEntity13end_exclusiveEv, symObjAddr: 0xB0, symBinAddr: 0x4F250, symSize: 0x10 }
  - { offset: 0x99468, size: 0x8, addend: 0x0, symName: __ZN32MessageDraftMessageElementEntity10plain_textERKN6Pubnub6StringE, symObjAddr: 0xC0, symBinAddr: 0x4F260, symSize: 0x20 }
  - { offset: 0x99564, size: 0x8, addend: 0x0, symName: __ZN32MessageDraftMessageElementEntity4linkERKN6Pubnub6StringERK31MessageDraftMentionTargetEntity, symObjAddr: 0xE0, symBinAddr: 0x4F280, symSize: 0x50 }
  - { offset: 0x99769, size: 0x8, addend: 0x0, symName: __ZNK18MessageDraftEntity11insert_textEmRKN6Pubnub6StringE, symObjAddr: 0x130, symBinAddr: 0x4F2D0, symSize: 0x240 }
  - { offset: 0x99BBA, size: 0x8, addend: 0x0, symName: __ZNSt3__16vectorI25MessageDraftMentionEntityNS_9allocatorIS1_EEE21__push_back_slow_pathIRKS1_EEPS1_OT_, symObjAddr: 0xE120, symBinAddr: 0x53310, symSize: 0x210 }
  - { offset: 0x9A074, size: 0x8, addend: 0x0, symName: __ZNSt3__16vectorI25MessageDraftMentionEntityNS_9allocatorIS1_EEE16__init_with_sizeB8ne180100IPS1_S6_EEvT_T0_m, symObjAddr: 0xE390, symBinAddr: 0x53580, symSize: 0x130 }
  - { offset: 0x9A35A, size: 0x8, addend: 0x0, symName: __ZNSt3__16vectorI25MessageDraftMentionEntityNS_9allocatorIS1_EEED1B8ne180100Ev, symObjAddr: 0x370, symBinAddr: 0x4F510, symSize: 0x70 }
  - { offset: 0x9A4B7, size: 0x8, addend: 0x0, symName: __ZNK18MessageDraftEntity11remove_textEmm, symObjAddr: 0x3E0, symBinAddr: 0x4F580, symSize: 0x1F0 }
  - { offset: 0x9A89A, size: 0x8, addend: 0x0, symName: __ZNK18MessageDraftEntity11add_mentionEmmRK31MessageDraftMentionTargetEntity, symObjAddr: 0x5D0, symBinAddr: 0x4F770, symSize: 0x1E0 }
  - { offset: 0x9ACAC, size: 0x8, addend: 0x0, symName: __ZNSt3__16vectorI25MessageDraftMentionEntityNS_9allocatorIS1_EEE21__push_back_slow_pathIS1_EEPS1_OT_, symObjAddr: 0xE530, symBinAddr: 0x53720, symSize: 0x210 }
  - { offset: 0x9B166, size: 0x8, addend: 0x0, symName: '__ZNSt3__111__introsortINS_17_ClassicAlgPolicyERZNK18MessageDraftEntity11add_mentionEmmRK31MessageDraftMentionTargetEntityE3$_0P25MessageDraftMentionEntityLb0EEEvT1_SA_T0_NS_15iterator_traitsISA_E15difference_typeEb', symObjAddr: 0xE740, symBinAddr: 0x53930, symSize: 0xCF0 }
  - { offset: 0x9C182, size: 0x8, addend: 0x0, symName: __ZNK18MessageDraftEntity14remove_mentionEm, symObjAddr: 0x7B0, symBinAddr: 0x4F950, symSize: 0x1D0 }
  - { offset: 0x9C53E, size: 0x8, addend: 0x0, symName: '__ZNSt3__111__introsortINS_17_ClassicAlgPolicyERZNK18MessageDraftEntity14remove_mentionEmE3$_1P25MessageDraftMentionEntityLb0EEEvT1_S7_T0_NS_15iterator_traitsIS7_E15difference_typeEb', symObjAddr: 0xFD20, symBinAddr: 0x54F10, symSize: 0xCF0 }
  - { offset: 0x9D65C, size: 0x8, addend: 0x0, symName: __ZNK18MessageDraftEntity6updateERKN6Pubnub6StringE, symObjAddr: 0x980, symBinAddr: 0x4FB20, symSize: 0x470 }
  - { offset: 0x9E477, size: 0x8, addend: 0x0, symName: __ZN16diff_match_patchINSt3__112basic_stringIcNS0_11char_traitsIcEENS0_9allocatorIcEEEE23diff_match_patch_traitsIcEE9diff_mainERKS6_SB_bmRNS0_4listINS9_4DiffENS4_ISD_EEEE, symObjAddr: 0x11300, symBinAddr: 0x564F0, symSize: 0xB30 }
  - { offset: 0xA07AE, size: 0x8, addend: 0x0, symName: __ZN16diff_match_patchINSt3__112basic_stringIcNS0_11char_traitsIcEENS0_9allocatorIcEEEE23diff_match_patch_traitsIcEE20diff_cleanupSemanticERNS0_4listINS9_4DiffENS4_ISB_EEEE, symObjAddr: 0xDF0, symBinAddr: 0x4FF90, symSize: 0xF30 }
  - { offset: 0xA30E2, size: 0x8, addend: 0x0, symName: __ZNSt3__14listIN16diff_match_patchINS_12basic_stringIcNS_11char_traitsIcEENS_9allocatorIcEEEE23diff_match_patch_traitsIcEE4DiffENS5_ISB_EEED1Ev, symObjAddr: 0x1D90, symBinAddr: 0x50EC0, symSize: 0x80 }
  - { offset: 0xA32D9, size: 0x8, addend: 0x0, symName: __ZNK18MessageDraftEntity6updateERKN6Pubnub6StringE.cold.2, symObjAddr: 0x1EE10, symBinAddr: 0xDD020, symSize: 0x4B }
  - { offset: 0xA3487, size: 0x8, addend: 0x0, symName: __ZNK18MessageDraftEntity6updateERKN6Pubnub6StringE.cold.1, symObjAddr: 0x1EDC0, symBinAddr: 0xDCFD0, symSize: 0x50 }
  - { offset: 0xA38FE, size: 0x8, addend: 0x0, symName: __ZN16diff_match_patchINSt3__112basic_stringIcNS0_11char_traitsIcEENS0_9allocatorIcEEEE23diff_match_patch_traitsIcEE17diff_cleanupMergeERNS0_4listINS9_4DiffENS4_ISB_EEEE, symObjAddr: 0x12AA0, symBinAddr: 0x57C90, symSize: 0x1640 }
  - { offset: 0xA7B07, size: 0x8, addend: 0x0, symName: __ZN16diff_match_patchINSt3__112basic_stringIcNS0_11char_traitsIcEENS0_9allocatorIcEEEE23diff_match_patch_traitsIcEE28diff_cleanupSemanticLosslessERNS0_4listINS9_4DiffENS4_ISB_EEEE, symObjAddr: 0x177D0, symBinAddr: 0x5C850, symSize: 0xE00 }
  - { offset: 0xAA20F, size: 0x8, addend: 0x0, symName: __ZN16diff_match_patchINSt3__112basic_stringIcNS0_11char_traitsIcEENS0_9allocatorIcEEEE23diff_match_patch_traitsIcEE18diff_commonOverlapERKS6_SB_, symObjAddr: 0x185D0, symBinAddr: 0x5D650, symSize: 0x8F0 }
  - { offset: 0xAB887, size: 0x8, addend: 0x0, symName: __ZNKSt3__16vectorINS_15__list_iteratorIN16diff_match_patchINS_12basic_stringIcNS_11char_traitsIcEENS_9allocatorIcEEEE23diff_match_patch_traitsIcEE4DiffEPvEENS6_ISE_EEE20__throw_length_errorB8ne180100Ev, symObjAddr: 0x18EC0, symBinAddr: 0x5DF40, symSize: 0x10 }
  - { offset: 0xAB89C, size: 0x8, addend: 0x0, symName: __ZN16diff_match_patchINSt3__112basic_stringIcNS0_11char_traitsIcEENS0_9allocatorIcEEEE23diff_match_patch_traitsIcEE25diff_cleanupSemanticScoreERKS6_SB_, symObjAddr: 0x18ED0, symBinAddr: 0x5DF50, symSize: 0x340 }
  - { offset: 0xAB8BE, size: 0x8, addend: 0x0, symName: __ZNKSt3__112basic_stringIcNS_11char_traitsIcEENS_9allocatorIcEEE20__throw_out_of_rangeB8ne180100Ev, symObjAddr: 0x9C70, symBinAddr: 0x53280, symSize: 0x10 }
  - { offset: 0xAB8D3, size: 0x8, addend: 0x0, symName: __ZNSt3__120__throw_out_of_rangeB8ne180100EPKc, symObjAddr: 0x9C80, symBinAddr: 0x53290, symSize: 0x50 }
  - { offset: 0xAB8DD, size: 0x8, addend: 0x0, symName: __ZNK18MessageDraftEntity24insert_suggested_mentionERK34MessageDraftSuggestedMentionEntityRKN6Pubnub6StringE, symObjAddr: 0x1E10, symBinAddr: 0x50F40, symSize: 0x160 }
  - { offset: 0xABE25, size: 0x8, addend: 0x0, symName: __ZNK18MessageDraftEntity20suggest_raw_mentionsEv, symObjAddr: 0x1F70, symBinAddr: 0x510A0, symSize: 0x1200 }
  - { offset: 0xAF75C, size: 0x8, addend: 0x0, symName: __ZNSt3__114regex_iteratorINS_11__wrap_iterIPcEEcNS_12regex_traitsIcEEEC2ES3_S3_RKNS_11basic_regexIcS5_EENS_15regex_constants15match_flag_typeE, symObjAddr: 0x19210, symBinAddr: 0x5E290, symSize: 0x130 }
  - { offset: 0xAFC05, size: 0x8, addend: 0x0, symName: __ZNSt3__120regex_token_iteratorINS_11__wrap_iterIPcEEcNS_12regex_traitsIcEEEC2ERKS6_, symObjAddr: 0x1C560, symBinAddr: 0x5EB50, symSize: 0x2F0 }
  - { offset: 0xB006A, size: 0x8, addend: 0x0, symName: __ZNKSt3__120regex_token_iteratorINS_11__wrap_iterIPcEEcNS_12regex_traitsIcEEEeqERKS6_, symObjAddr: 0x1C850, symBinAddr: 0x5EE40, symSize: 0x140 }
  - { offset: 0xB023B, size: 0x8, addend: 0x0, symName: __ZNSt3__120regex_token_iteratorINS_11__wrap_iterIPcEEcNS_12regex_traitsIcEEEppEv, symObjAddr: 0x1C990, symBinAddr: 0x5EF80, symSize: 0x2D0 }
  - { offset: 0xB0794, size: 0x8, addend: 0x0, symName: __ZNSt3__16vectorI25MessageDraftMentionEntityNS_9allocatorIS1_EEE7reserveEm, symObjAddr: 0x31B0, symBinAddr: 0x522E0, symSize: 0x1B0 }
  - { offset: 0xB0BB7, size: 0x8, addend: 0x0, symName: __ZNSt3__16vectorI25MessageDraftMentionEntityNS_9allocatorIS1_EEE18__insert_with_sizeB8ne180100INS_11__wrap_iterIPS1_EES8_EES8_NS6_IPKS1_EET_T0_l, symObjAddr: 0x1CE90, symBinAddr: 0x5F480, symSize: 0x410 }
  - { offset: 0xB135F, size: 0x8, addend: 0x0, symName: '__ZNSt3__111__introsortINS_17_ClassicAlgPolicyERZNK18MessageDraftEntity20suggest_raw_mentionsEvE3$_2P25MessageDraftMentionEntityLb0EEEvT1_S7_T0_NS_15iterator_traitsIS7_E15difference_typeEb', symObjAddr: 0x1D420, symBinAddr: 0x5FA10, symSize: 0xCF0 }
  - { offset: 0xB235D, size: 0x8, addend: 0x0, symName: __ZNSt3__120regex_token_iteratorINS_11__wrap_iterIPcEEcNS_12regex_traitsIcEEED1Ev, symObjAddr: 0x3170, symBinAddr: 0x522A0, symSize: 0x40 }
  - { offset: 0xB2613, size: 0x8, addend: 0x0, symName: __ZNKSt3__16vectorI25MessageDraftMentionEntityNS_9allocatorIS1_EEE20__throw_length_errorB8ne180100Ev, symObjAddr: 0xE380, symBinAddr: 0x53570, symSize: 0x10 }
  - { offset: 0xB2628, size: 0x8, addend: 0x0, symName: __ZNSt3__16vectorI25MessageDraftMentionEntityNS_9allocatorIS1_EEE16__init_with_sizeB8ne180100IPS1_S6_EEvT_T0_m, symObjAddr: 0xE390, symBinAddr: 0x53580, symSize: 0x130 }
  - { offset: 0xB2632, size: 0x8, addend: 0x0, symName: __ZNSt3__114__split_bufferI25MessageDraftMentionEntityRNS_9allocatorIS1_EEED1Ev, symObjAddr: 0xE330, symBinAddr: 0x53520, symSize: 0x50 }
  - { offset: 0xB2845, size: 0x8, addend: 0x0, symName: __ZNK18MessageDraftEntity20get_message_elementsEv, symObjAddr: 0x3360, symBinAddr: 0x52490, symSize: 0x430 }
  - { offset: 0xB33ED, size: 0x8, addend: 0x0, symName: __ZNSt3__16vectorI32MessageDraftMessageElementEntityNS_9allocatorIS1_EEE21__push_back_slow_pathIS1_EEPS1_OT_, symObjAddr: 0x1EA00, symBinAddr: 0x60FF0, symSize: 0x1E0 }
  - { offset: 0xB3874, size: 0x8, addend: 0x0, symName: __ZN32MessageDraftMessageElementEntityD1Ev, symObjAddr: 0x3790, symBinAddr: 0x528C0, symSize: 0x30 }
  - { offset: 0xB3934, size: 0x8, addend: 0x0, symName: __ZNSt3__16vectorI32MessageDraftMessageElementEntityNS_9allocatorIS1_EEED1B8ne180100Ev, symObjAddr: 0x37C0, symBinAddr: 0x528F0, symSize: 0x80 }
  - { offset: 0xB3B65, size: 0x8, addend: 0x0, symName: __ZNK18MessageDraftEntity6renderEv, symObjAddr: 0x3840, symBinAddr: 0x52970, symSize: 0x7E0 }
  - { offset: 0xB3FC2, size: 0x8, addend: 0x0, symName: __ZNK18MessageDraftEntity17validate_mentionsEv, symObjAddr: 0x4020, symBinAddr: 0x53150, symSize: 0xA0 }
  - { offset: 0xB3FE1, size: 0x8, addend: 0x0, symName: __ZNK18MessageDraftEntity26validate_suggested_mentionERK34MessageDraftSuggestedMentionEntity, symObjAddr: 0x40C0, symBinAddr: 0x531F0, symSize: 0x90 }
  - { offset: 0xB5604, size: 0x8, addend: 0x0, symName: __ZNSt3__120__throw_out_of_rangeB8ne180100EPKc, symObjAddr: 0x9C80, symBinAddr: 0x53290, symSize: 0x50 }
  - { offset: 0xB5623, size: 0x8, addend: 0x0, symName: __ZNSt12out_of_rangeC1B8ne180100EPKc, symObjAddr: 0x9CD0, symBinAddr: 0x532E0, symSize: 0x30 }
  - { offset: 0xB56D3, size: 0x8, addend: 0x0, symName: __ZNSt3__128__exception_guard_exceptionsINS_6vectorI25MessageDraftMentionEntityNS_9allocatorIS2_EEE16__destroy_vectorEED1B8ne180100Ev, symObjAddr: 0xE4C0, symBinAddr: 0x536B0, symSize: 0x70 }
  - { offset: 0xB5892, size: 0x8, addend: 0x0, symName: '__ZNSt3__17__sort3B8ne180100INS_17_ClassicAlgPolicyERZNK18MessageDraftEntity11add_mentionEmmRK31MessageDraftMentionTargetEntityE3$_0P25MessageDraftMentionEntityEEjT1_SA_SA_T0_', symObjAddr: 0xF660, symBinAddr: 0x54850, symSize: 0x280 }
  - { offset: 0xB6031, size: 0x8, addend: 0x0, symName: '__ZNSt3__127__insertion_sort_incompleteB8ne180100INS_17_ClassicAlgPolicyERZNK18MessageDraftEntity11add_mentionEmmRK31MessageDraftMentionTargetEntityE3$_0P25MessageDraftMentionEntityEEbT1_SA_T0_', symObjAddr: 0xF8E0, symBinAddr: 0x54AD0, symSize: 0x290 }
  - { offset: 0xB6398, size: 0x8, addend: 0x0, symName: '__ZNSt3__17__sort4B8ne180100INS_17_ClassicAlgPolicyERZNK18MessageDraftEntity11add_mentionEmmRK31MessageDraftMentionTargetEntityE3$_0P25MessageDraftMentionEntityEEvT1_SA_SA_SA_T0_', symObjAddr: 0xFB70, symBinAddr: 0x54D60, symSize: 0x1B0 }
  - { offset: 0xB6864, size: 0x8, addend: 0x0, symName: '__ZNSt3__124__sort5_maybe_branchlessB8ne180100INS_17_ClassicAlgPolicyERZNK18MessageDraftEntity11add_mentionEmmRK31MessageDraftMentionTargetEntityE3$_0P25MessageDraftMentionEntityLi0EEEvT1_SA_SA_SA_SA_T0_', symObjAddr: 0xF430, symBinAddr: 0x54620, symSize: 0x230 }
  - { offset: 0xB6EB1, size: 0x8, addend: 0x0, symName: '__ZNSt3__17__sort3B8ne180100INS_17_ClassicAlgPolicyERZNK18MessageDraftEntity14remove_mentionEmE3$_1P25MessageDraftMentionEntityEEjT1_S7_S7_T0_', symObjAddr: 0x10C40, symBinAddr: 0x55E30, symSize: 0x280 }
  - { offset: 0xB7650, size: 0x8, addend: 0x0, symName: '__ZNSt3__127__insertion_sort_incompleteB8ne180100INS_17_ClassicAlgPolicyERZNK18MessageDraftEntity14remove_mentionEmE3$_1P25MessageDraftMentionEntityEEbT1_S7_T0_', symObjAddr: 0x10EC0, symBinAddr: 0x560B0, symSize: 0x290 }
  - { offset: 0xB79B7, size: 0x8, addend: 0x0, symName: '__ZNSt3__17__sort4B8ne180100INS_17_ClassicAlgPolicyERZNK18MessageDraftEntity14remove_mentionEmE3$_1P25MessageDraftMentionEntityEEvT1_S7_S7_S7_T0_', symObjAddr: 0x11150, symBinAddr: 0x56340, symSize: 0x1B0 }
  - { offset: 0xB7E83, size: 0x8, addend: 0x0, symName: '__ZNSt3__124__sort5_maybe_branchlessB8ne180100INS_17_ClassicAlgPolicyERZNK18MessageDraftEntity14remove_mentionEmE3$_1P25MessageDraftMentionEntityLi0EEEvT1_S7_S7_S7_S7_T0_', symObjAddr: 0x10A10, symBinAddr: 0x55C00, symSize: 0x230 }
  - { offset: 0xB84A6, size: 0x8, addend: 0x0, symName: __ZN16diff_match_patchINSt3__112basic_stringIcNS0_11char_traitsIcEENS0_9allocatorIcEEEE23diff_match_patch_traitsIcEE12diff_computeES6_S6_bmRNS0_4listINS9_4DiffENS4_ISB_EEEE, symObjAddr: 0x11E30, symBinAddr: 0x57020, symSize: 0xC70 }
  - { offset: 0xBAF30, size: 0x8, addend: 0x0, symName: __ZN16diff_match_patchINSt3__112basic_stringIcNS0_11char_traitsIcEENS0_9allocatorIcEEEE23diff_match_patch_traitsIcEE14diff_halfMatchERKS6_SB_RNS9_15HalfMatchResultE, symObjAddr: 0x140E0, symBinAddr: 0x592D0, symSize: 0x900 }
  - { offset: 0xBC06E, size: 0x8, addend: 0x0, symName: __ZN16diff_match_patchINSt3__112basic_stringIcNS0_11char_traitsIcEENS0_9allocatorIcEEEE23diff_match_patch_traitsIcEE11diff_bisectERKS6_SB_mRNS0_4listINS9_4DiffENS4_ISD_EEEE, symObjAddr: 0x14ED0, symBinAddr: 0x5A0C0, symSize: 0x840 }
  - { offset: 0xBCCE5, size: 0x8, addend: 0x0, symName: __ZN16diff_match_patchINSt3__112basic_stringIcNS0_11char_traitsIcEENS0_9allocatorIcEEEE23diff_match_patch_traitsIcEE13diff_lineModeES6_S6_mRNS0_4listINS9_4DiffENS4_ISB_EEEE, symObjAddr: 0x14A60, symBinAddr: 0x59C50, symSize: 0x470 }
  - { offset: 0xBDBBD, size: 0x8, addend: 0x0, symName: __ZN16diff_match_patchINSt3__112basic_stringIcNS0_11char_traitsIcEENS0_9allocatorIcEEEE23diff_match_patch_traitsIcEE15HalfMatchResultD1Ev, symObjAddr: 0x149E0, symBinAddr: 0x59BD0, symSize: 0x80 }
  - { offset: 0xBDFA9, size: 0x8, addend: 0x0, symName: __ZNSt3__1plB8ne180100IcNS_11char_traitsIcEENS_9allocatorIcEEEENS_12basic_stringIT_T0_T1_EERKS9_SB_, symObjAddr: 0x176A0, symBinAddr: 0x5C720, symSize: 0x130 }
  - { offset: 0xBE2AE, size: 0x8, addend: 0x0, symName: __ZN23diff_match_patch_traitsIcE2csEPKw, symObjAddr: 0x17570, symBinAddr: 0x5C5F0, symSize: 0x130 }
  - { offset: 0xBE444, size: 0x8, addend: 0x0, symName: __ZN16diff_match_patchINSt3__112basic_stringIcNS0_11char_traitsIcEENS0_9allocatorIcEEEE23diff_match_patch_traitsIcEE15diff_halfMatchIERKS6_SB_iRNS9_15HalfMatchResultE, symObjAddr: 0x15710, symBinAddr: 0x5A900, symSize: 0x1030 }
  - { offset: 0xC0D42, size: 0x8, addend: 0x0, symName: __ZN16diff_match_patchINSt3__112basic_stringIcNS0_11char_traitsIcEENS0_9allocatorIcEEEE23diff_match_patch_traitsIcEE17diff_linesToCharsERS6_SA_RNS9_5LinesE, symObjAddr: 0x16740, symBinAddr: 0x5B930, symSize: 0x1C0 }
  - { offset: 0xC1239, size: 0x8, addend: 0x0, symName: __ZN16diff_match_patchINSt3__112basic_stringIcNS0_11char_traitsIcEENS0_9allocatorIcEEEE23diff_match_patch_traitsIcEE17diff_charsToLinesERNS0_4listINS9_4DiffENS4_ISB_EEEERKNS9_5LinesE, symObjAddr: 0x16900, symBinAddr: 0x5BAF0, symSize: 0x150 }
  - { offset: 0xC14FD, size: 0x8, addend: 0x0, symName: __ZN16diff_match_patchINSt3__112basic_stringIcNS0_11char_traitsIcEENS0_9allocatorIcEEEE23diff_match_patch_traitsIcEE5LinesD1Ev, symObjAddr: 0x16A50, symBinAddr: 0x5BC40, symSize: 0x60 }
  - { offset: 0xC1740, size: 0x8, addend: 0x0, symName: __ZN16diff_match_patchINSt3__112basic_stringIcNS0_11char_traitsIcEENS0_9allocatorIcEEEE23diff_match_patch_traitsIcEE16diff_bisectSplitERKS6_SB_iimRNS0_4listINS9_4DiffENS4_ISD_EEEE, symObjAddr: 0x16FF0, symBinAddr: 0x5C080, symSize: 0x570 }
  - { offset: 0xC279F, size: 0x8, addend: 0x0, symName: __ZN23diff_match_patch_traitsIcE2csEPKw, symObjAddr: 0x17570, symBinAddr: 0x5C5F0, symSize: 0x130 }
  - { offset: 0xC285D, size: 0x8, addend: 0x0, symName: __ZN16diff_match_patchINSt3__112basic_stringIcNS0_11char_traitsIcEENS0_9allocatorIcEEEE23diff_match_patch_traitsIcEE22diff_linesToCharsMungeERKS6_RNS0_3mapINS9_7LinePtrEmNS0_4lessISD_EENS4_INS0_4pairIKSD_mEEEEEE, symObjAddr: 0x16AB0, symBinAddr: 0x5BCA0, symSize: 0x140 }
  - { offset: 0xC2B26, size: 0x8, addend: 0x0, symName: __ZNSt3__16vectorIN16diff_match_patchINS_12basic_stringIcNS_11char_traitsIcEENS_9allocatorIcEEEE23diff_match_patch_traitsIcEE7LinePtrENS5_ISB_EEE8__appendEm, symObjAddr: 0x16E50, symBinAddr: 0x5BEE0, symSize: 0x150 }
  - { offset: 0xC2EAD, size: 0x8, addend: 0x0, symName: __ZNSt3__16__treeINS_12__value_typeIN16diff_match_patchINS_12basic_stringIcNS_11char_traitsIcEENS_9allocatorIcEEEE23diff_match_patch_traitsIcEE7LinePtrEmEENS_19__map_value_compareISC_SD_NS_4lessISC_EELb1EEENS6_ISD_EEE7destroyEPNS_11__tree_nodeISD_PvEE, symObjAddr: 0x16FB0, symBinAddr: 0x5C040, symSize: 0x40 }
  - { offset: 0xC2F81, size: 0x8, addend: 0x0, symName: __ZNSt3__16__treeINS_12__value_typeIN16diff_match_patchINS_12basic_stringIcNS_11char_traitsIcEENS_9allocatorIcEEEE23diff_match_patch_traitsIcEE7LinePtrEmEENS_19__map_value_compareISC_SD_NS_4lessISC_EELb1EEENS6_ISD_EEE25__emplace_unique_key_argsISC_JNS_4pairISC_mEEEEENSL_INS_15__tree_iteratorISD_PNS_11__tree_nodeISD_PvEElEEbEERKT_DpOT0_, symObjAddr: 0x16BF0, symBinAddr: 0x5BDE0, symSize: 0x100 }
  - { offset: 0xC332A, size: 0x8, addend: 0x0, symName: __ZNKSt3__16vectorIN16diff_match_patchINS_12basic_stringIcNS_11char_traitsIcEENS_9allocatorIcEEEE23diff_match_patch_traitsIcEE7LinePtrENS5_ISB_EEE20__throw_length_errorB8ne180100Ev, symObjAddr: 0x16FA0, symBinAddr: 0x5C030, symSize: 0x10 }
  - { offset: 0xC333F, size: 0x8, addend: 0x0, symName: __ZNSt3__16__treeINS_12__value_typeIN16diff_match_patchINS_12basic_stringIcNS_11char_traitsIcEENS_9allocatorIcEEEE23diff_match_patch_traitsIcEE7LinePtrEmEENS_19__map_value_compareISC_SD_NS_4lessISC_EELb1EEENS6_ISD_EEE7destroyEPNS_11__tree_nodeISD_PvEE, symObjAddr: 0x16FB0, symBinAddr: 0x5C040, symSize: 0x40 }
  - { offset: 0xC3392, size: 0x8, addend: 0x0, symName: __ZN16diff_match_patchINSt3__112basic_stringIcNS0_11char_traitsIcEENS0_9allocatorIcEEEE23diff_match_patch_traitsIcEE25diff_cleanupSemanticScoreERKS6_SB_, symObjAddr: 0x18ED0, symBinAddr: 0x5DF50, symSize: 0x340 }
  - { offset: 0xC38E0, size: 0x8, addend: 0x0, symName: __ZNSt3__113match_resultsINS_11__wrap_iterIPcEENS_9allocatorINS_9sub_matchIS3_EEEEE8__assignB8ne180100IPKcNS4_INS5_ISB_EEEEEEvS3_S3_RKNS0_IT_T0_EEb, symObjAddr: 0x19670, symBinAddr: 0x5E3C0, symSize: 0x1C0 }
  - { offset: 0xC515F, size: 0x8, addend: 0x0, symName: __ZNSt3__16vectorINS_9sub_matchINS_11__wrap_iterIPcEEEENS_9allocatorIS5_EEE8__appendEm, symObjAddr: 0x1BF90, symBinAddr: 0x5E580, symSize: 0x1C0 }
  - { offset: 0xC6CB5, size: 0x8, addend: 0x0, symName: __ZNKSt3__16vectorINS_9sub_matchINS_11__wrap_iterIPcEEEENS_9allocatorIS5_EEE20__throw_length_errorB8ne180100Ev, symObjAddr: 0x1C150, symBinAddr: 0x5E740, symSize: 0x10 }
  - { offset: 0xC6CCA, size: 0x8, addend: 0x0, symName: __ZNKSt3__19sub_matchINS_11__wrap_iterIPcEEE7compareB8ne180100ERKS4_, symObjAddr: 0x1C160, symBinAddr: 0x5E750, symSize: 0x400 }
  - { offset: 0xC6CD4, size: 0x8, addend: 0x0, symName: __ZNKSt3__19sub_matchINS_11__wrap_iterIPcEEE7compareB8ne180100ERKS4_, symObjAddr: 0x1C160, symBinAddr: 0x5E750, symSize: 0x400 }
  - { offset: 0xC754D, size: 0x8, addend: 0x0, symName: __ZNSt3__114regex_iteratorINS_11__wrap_iterIPcEEcNS_12regex_traitsIcEEEppEv, symObjAddr: 0x1CC60, symBinAddr: 0x5F250, symSize: 0x230 }
  - { offset: 0xC7D7A, size: 0x8, addend: 0x0, symName: __ZNSt3__16vectorI25MessageDraftMentionEntityNS_9allocatorIS1_EEE26__swap_out_circular_bufferERNS_14__split_bufferIS1_RS3_EEPS1_, symObjAddr: 0x1D2A0, symBinAddr: 0x5F890, symSize: 0x180 }
  - { offset: 0xC811B, size: 0x8, addend: 0x0, symName: '__ZNSt3__17__sort3B8ne180100INS_17_ClassicAlgPolicyERZNK18MessageDraftEntity20suggest_raw_mentionsEvE3$_2P25MessageDraftMentionEntityEEjT1_S7_S7_T0_', symObjAddr: 0x1E340, symBinAddr: 0x60930, symSize: 0x280 }
  - { offset: 0xC88BA, size: 0x8, addend: 0x0, symName: '__ZNSt3__127__insertion_sort_incompleteB8ne180100INS_17_ClassicAlgPolicyERZNK18MessageDraftEntity20suggest_raw_mentionsEvE3$_2P25MessageDraftMentionEntityEEbT1_S7_T0_', symObjAddr: 0x1E5C0, symBinAddr: 0x60BB0, symSize: 0x290 }
  - { offset: 0xC8C21, size: 0x8, addend: 0x0, symName: '__ZNSt3__17__sort4B8ne180100INS_17_ClassicAlgPolicyERZNK18MessageDraftEntity20suggest_raw_mentionsEvE3$_2P25MessageDraftMentionEntityEEvT1_S7_S7_S7_T0_', symObjAddr: 0x1E850, symBinAddr: 0x60E40, symSize: 0x1B0 }
  - { offset: 0xC90ED, size: 0x8, addend: 0x0, symName: '__ZNSt3__124__sort5_maybe_branchlessB8ne180100INS_17_ClassicAlgPolicyERZNK18MessageDraftEntity20suggest_raw_mentionsEvE3$_2P25MessageDraftMentionEntityLi0EEEvT1_S7_S7_S7_S7_T0_', symObjAddr: 0x1E110, symBinAddr: 0x60700, symSize: 0x230 }
  - { offset: 0xC9740, size: 0x8, addend: 0x0, symName: __ZNSt3__16vectorI32MessageDraftMessageElementEntityNS_9allocatorIS1_EEE26__swap_out_circular_bufferERNS_14__split_bufferIS1_RS3_EE, symObjAddr: 0x1EBE0, symBinAddr: 0x611D0, symSize: 0x160 }
  - { offset: 0xC9ACC, size: 0x8, addend: 0x0, symName: __ZNKSt3__16vectorI32MessageDraftMessageElementEntityNS_9allocatorIS1_EEE20__throw_length_errorB8ne180100Ev, symObjAddr: 0x1EDB0, symBinAddr: 0x613A0, symSize: 0x10 }
  - { offset: 0xC9AE1, size: 0x8, addend: 0x0, symName: __ZNK18MessageDraftEntity6updateERKN6Pubnub6StringE.cold.1, symObjAddr: 0x1EDC0, symBinAddr: 0xDCFD0, symSize: 0x50 }
  - { offset: 0xC9AEB, size: 0x8, addend: 0x0, symName: __ZNSt3__114__split_bufferI32MessageDraftMessageElementEntityRNS_9allocatorIS1_EEED1Ev, symObjAddr: 0x1ED40, symBinAddr: 0x61330, symSize: 0x70 }
  - { offset: 0xC9D1C, size: 0x8, addend: 0x0, symName: __ZN6Quotes3addERKN6Pubnub6StringES3_, symObjAddr: 0x0, symBinAddr: 0x61470, symSize: 0xE0 }
  - { offset: 0xC9D35, size: 0x8, addend: 0x0, symName: __ZN6Quotes3addERKN6Pubnub6StringES3_, symObjAddr: 0x0, symBinAddr: 0x61470, symSize: 0xE0 }
  - { offset: 0xC9D96, size: 0x8, addend: 0x0, symName: __ZN6Quotes9is_quotedERKN6Pubnub6StringES3_, symObjAddr: 0xE0, symBinAddr: 0x61550, symSize: 0x70 }
  - { offset: 0xC9DA7, size: 0x8, addend: 0x0, symName: __ZN6Quotes13add_uncheckedERKN6Pubnub6StringES3_, symObjAddr: 0x150, symBinAddr: 0x615C0, symSize: 0x60 }
  - { offset: 0xC9DD9, size: 0x8, addend: 0x0, symName: __ZN6Quotes6removeERKN6Pubnub6StringES3_, symObjAddr: 0x1B0, symBinAddr: 0x61620, symSize: 0xB0 }
  - { offset: 0xC9E13, size: 0x8, addend: 0x0, symName: __ZN6Quotes16remove_uncheckedERKN6Pubnub6StringES3_, symObjAddr: 0x260, symBinAddr: 0x616D0, symSize: 0x31 }
  - { offset: 0xC9EB7, size: 0x8, addend: 0x0, symName: __ZN11ChatServiceC2ENSt3__110shared_ptrI5MutexI6PubNubEEE, symObjAddr: 0x0, symBinAddr: 0x61710, symSize: 0x130 }
  - { offset: 0xCA20B, size: 0x8, addend: 0x0, symName: __ZN11ChatServiceC1ENSt3__110shared_ptrI5MutexI6PubNubEEE, symObjAddr: 0x2F0, symBinAddr: 0x61840, symSize: 0x10 }
  - { offset: 0xCA58A, size: 0x8, addend: 0x0, symName: __ZN11ChatService13init_servicesERKN6Pubnub10ChatConfigE, symObjAddr: 0x300, symBinAddr: 0x61850, symSize: 0x750 }
  - { offset: 0xCBCCF, size: 0x8, addend: 0x0, symName: __ZNSt3__115allocate_sharedB8ne180100I14ChannelServiceNS_9allocatorIS1_EEJRNS_10shared_ptrI5MutexI6PubNubEEENS_8weak_ptrI11ChatServiceEERKfEvEENS4_IT_EERKT0_DpOT1_, symObjAddr: 0x4580, symBinAddr: 0x64F00, symSize: 0x100 }
  - { offset: 0xCC045, size: 0x8, addend: 0x0, symName: __ZNSt3__115allocate_sharedB8ne180100I11UserServiceNS_9allocatorIS1_EEJRNS_10shared_ptrI5MutexI6PubNubEEENS_8weak_ptrI11ChatServiceEERKiEvEENS4_IT_EERKT0_DpOT1_, symObjAddr: 0x4840, symBinAddr: 0x65180, symSize: 0x100 }
  - { offset: 0xCC3BB, size: 0x8, addend: 0x0, symName: __ZNSt3__115allocate_sharedB8ne180100I14MessageServiceNS_9allocatorIS1_EEJRNS_10shared_ptrI5MutexI6PubNubEEENS_8weak_ptrI11ChatServiceEEEvEENS4_IT_EERKT0_DpOT1_, symObjAddr: 0x4B10, symBinAddr: 0x65450, symSize: 0xF0 }
  - { offset: 0xCC731, size: 0x8, addend: 0x0, symName: __ZNSt3__115allocate_sharedB8ne180100I17MembershipServiceNS_9allocatorIS1_EEJRNS_10shared_ptrI5MutexI6PubNubEEENS_8weak_ptrI11ChatServiceEEEvEENS4_IT_EERKT0_DpOT1_, symObjAddr: 0x4D80, symBinAddr: 0x656C0, symSize: 0xF0 }
  - { offset: 0xCCAA7, size: 0x8, addend: 0x0, symName: __ZNSt3__115allocate_sharedB8ne180100I15PresenceServiceNS_9allocatorIS1_EEJRNS_10shared_ptrI5MutexI6PubNubEEENS_8weak_ptrI11ChatServiceEEEvEENS4_IT_EERKT0_DpOT1_, symObjAddr: 0x5070, symBinAddr: 0x659B0, symSize: 0xF0 }
  - { offset: 0xCCE1D, size: 0x8, addend: 0x0, symName: __ZNSt3__115allocate_sharedB8ne180100I19RestrictionsServiceNS_9allocatorIS1_EEJRNS_10shared_ptrI5MutexI6PubNubEEENS_8weak_ptrI11ChatServiceEEEvEENS4_IT_EERKT0_DpOT1_, symObjAddr: 0x52E0, symBinAddr: 0x65C20, symSize: 0xF0 }
  - { offset: 0xCD193, size: 0x8, addend: 0x0, symName: __ZNSt3__120__shared_ptr_emplaceI20AccessManagerServiceNS_9allocatorIS1_EEEC2B8ne180100IJRNS_10shared_ptrI5MutexI6PubNubEEEES3_Li0EEES3_DpOT_, symObjAddr: 0x5550, symBinAddr: 0x65E90, symSize: 0xA0 }
  - { offset: 0xCD341, size: 0x8, addend: 0x0, symName: __ZNSt3__19allocatorI15CallbackServiceE9constructB8ne180100IS1_JR20EntityServicesBundleRNS_10shared_ptrIK15PresenceServiceEERNS6_I5MutexI6PubNubEEEEEEvPT_DpOT0_, symObjAddr: 0x5700, symBinAddr: 0x66040, symSize: 0x170 }
  - { offset: 0xCD7C4, size: 0x8, addend: 0x0, symName: __ZN20EntityServicesBundleD1Ev, symObjAddr: 0xA50, symBinAddr: 0x61FA0, symSize: 0x60 }
  - { offset: 0xCD929, size: 0x8, addend: 0x0, symName: __ZN11ChatService13create_pubnubERKN6Pubnub6StringES3_S3_S3_, symObjAddr: 0xAB0, symBinAddr: 0x62000, symSize: 0xA0 }
  - { offset: 0xCDB29, size: 0x8, addend: 0x0, symName: __ZN5MutexI6PubNubEC2IJRKN6Pubnub6StringES6_S6_S6_EEEDpOT_, symObjAddr: 0x5EF0, symBinAddr: 0x66670, symSize: 0x110 }
  - { offset: 0xCDB70, size: 0x8, addend: 0x0, symName: __ZNK11ChatService15emit_chat_eventEN6Pubnub22pubnub_chat_event_typeERKNS0_6StringES4_NS0_11EventMethodE, symObjAddr: 0xB50, symBinAddr: 0x620A0, symSize: 0x380 }
  - { offset: 0xCDE40, size: 0x8, addend: 0x0, symName: __ZNK11ChatService18get_events_historyERKN6Pubnub6StringES3_S3_i, symObjAddr: 0xED0, symBinAddr: 0x62420, symSize: 0x1080 }
  - { offset: 0xCF199, size: 0x8, addend: 0x0, symName: __ZNSt3__16vectorIN6Pubnub5EventENS_9allocatorIS2_EEE21__push_back_slow_pathIRKS2_EEPS2_OT_, symObjAddr: 0x6260, symBinAddr: 0x669E0, symSize: 0x1F0 }
  - { offset: 0xCF5CB, size: 0x8, addend: 0x0, symName: __ZNSt3__16vectorIN6Pubnub5EventENS_9allocatorIS2_EEE16__init_with_sizeB8ne180100IPS2_S7_EEvT_T0_m, symObjAddr: 0x6000, symBinAddr: 0x66780, symSize: 0x120 }
  - { offset: 0xCF88E, size: 0x8, addend: 0x0, symName: __ZN6Pubnub5EventD1Ev, symObjAddr: 0x2020, symBinAddr: 0x634A0, symSize: 0x40 }
  - { offset: 0xCFC80, size: 0x8, addend: 0x0, symName: __ZNK11ChatService25get_current_user_mentionsERKN6Pubnub6StringES3_i, symObjAddr: 0x20E0, symBinAddr: 0x634E0, symSize: 0xF90 }
  - { offset: 0xD1B1C, size: 0x8, addend: 0x0, symName: __ZNSt3__16vectorIN6Pubnub5EventENS_9allocatorIS2_EEE5eraseENS_11__wrap_iterIPKS2_EES9_, symObjAddr: 0x3070, symBinAddr: 0x64470, symSize: 0x120 }
  - { offset: 0xD216E, size: 0x8, addend: 0x0, symName: __ZN6Pubnub15UserMentionDataC2EOS0_, symObjAddr: 0x7810, symBinAddr: 0x66E90, symSize: 0x1C0 }
  - { offset: 0xD23C3, size: 0x8, addend: 0x0, symName: __ZNSt3__16vectorIN6Pubnub15UserMentionDataENS_9allocatorIS2_EEE21__push_back_slow_pathIS2_EEPS2_OT_, symObjAddr: 0x7610, symBinAddr: 0x66C90, symSize: 0x200 }
  - { offset: 0xD2774, size: 0x8, addend: 0x0, symName: __ZNSt3__16vectorIN6Pubnub15UserMentionDataENS_9allocatorIS2_EEE16__init_with_sizeB8ne180100IPS2_S7_EEvT_T0_m, symObjAddr: 0x4110, symBinAddr: 0x64B10, symSize: 0x110 }
  - { offset: 0xD2ACC, size: 0x8, addend: 0x0, symName: __ZN6Pubnub15UserMentionDataD1Ev, symObjAddr: 0x4500, symBinAddr: 0x64E80, symSize: 0x80 }
  - { offset: 0xD2CB3, size: 0x8, addend: 0x0, symName: '__ZZZNK11ChatService25get_current_user_mentionsERKN6Pubnub6StringES3_iENK3$_1clERKNS0_5EventEENUlvE_D1Ev', symObjAddr: 0x6570, symBinAddr: 0x66C50, symSize: 0x40 }
  - { offset: 0xD2F2C, size: 0x8, addend: 0x0, symName: __ZNK11ChatService17listen_for_eventsERKN6Pubnub6StringENS0_22pubnub_chat_event_typeENSt3__18functionIFvRKNS0_5EventEEEE, symObjAddr: 0x3200, symBinAddr: 0x64590, symSize: 0x2D0 }
  - { offset: 0xD33F8, size: 0x8, addend: 0x0, symName: __ZNK11ChatService24register_logger_callbackENSt3__18functionIFvN6Pubnub12pn_log_levelEPKcEEE, symObjAddr: 0x3540, symBinAddr: 0x64860, symSize: 0x100 }
  - { offset: 0xD3568, size: 0x8, addend: 0x0, symName: __ZNK11ChatService30add_connection_status_listenerENSt3__18functionIFvN6Pubnub20pn_connection_statusENS2_20ConnectionStatusDataEEEE, symObjAddr: 0x3640, symBinAddr: 0x64960, symSize: 0xF0 }
  - { offset: 0xD36BC, size: 0x8, addend: 0x0, symName: __ZNK11ChatService33remove_connection_status_listenerEv, symObjAddr: 0x3730, symBinAddr: 0x64A50, symSize: 0x20 }
  - { offset: 0xD36E2, size: 0x8, addend: 0x0, symName: __ZNK11ChatService23reconnect_subscriptionsEv, symObjAddr: 0x3750, symBinAddr: 0x64A70, symSize: 0x50 }
  - { offset: 0xD3816, size: 0x8, addend: 0x0, symName: __ZNK11ChatService24disconnect_subscriptionsEv, symObjAddr: 0x37A0, symBinAddr: 0x64AC0, symSize: 0x50 }
  - { offset: 0xD415D, size: 0x8, addend: 0x0, symName: __ZN6Pubnub15UserMentionDataC2ERKS0_, symObjAddr: 0x42C0, symBinAddr: 0x64CC0, symSize: 0x1C0 }
  - { offset: 0xD438C, size: 0x8, addend: 0x0, symName: __ZNKSt3__16vectorIN6Pubnub15UserMentionDataENS_9allocatorIS2_EEE20__throw_length_errorB8ne180100Ev, symObjAddr: 0x42B0, symBinAddr: 0x64CB0, symSize: 0x10 }
  - { offset: 0xD43A1, size: 0x8, addend: 0x0, symName: __ZN6Pubnub15UserMentionDataC2ERKS0_, symObjAddr: 0x42C0, symBinAddr: 0x64CC0, symSize: 0x1C0 }
  - { offset: 0xD43AB, size: 0x8, addend: 0x0, symName: __ZNSt3__128__exception_guard_exceptionsINS_6vectorIN6Pubnub15UserMentionDataENS_9allocatorIS3_EEE16__destroy_vectorEED1B8ne180100Ev, symObjAddr: 0x4220, symBinAddr: 0x64C20, symSize: 0x90 }
  - { offset: 0xD4543, size: 0x8, addend: 0x0, symName: __ZNSt3__19allocatorI14ChannelServiceE9constructB8ne180100IS1_JRNS_10shared_ptrI5MutexI6PubNubEEENS_8weak_ptrI11ChatServiceEERKfEEEvPT_DpOT0_, symObjAddr: 0x4750, symBinAddr: 0x650D0, symSize: 0xB0 }
  - { offset: 0xD46A5, size: 0x8, addend: 0x0, symName: __ZNSt3__120__shared_ptr_emplaceI14ChannelServiceNS_9allocatorIS1_EEED1Ev, symObjAddr: 0x4680, symBinAddr: 0x65000, symSize: 0x20 }
  - { offset: 0xD46D1, size: 0x8, addend: 0x0, symName: __ZNSt3__120__shared_ptr_emplaceI14ChannelServiceNS_9allocatorIS1_EEED0Ev, symObjAddr: 0x46A0, symBinAddr: 0x65020, symSize: 0x30 }
  - { offset: 0xD473C, size: 0x8, addend: 0x0, symName: __ZNSt3__120__shared_ptr_emplaceI14ChannelServiceNS_9allocatorIS1_EEE16__on_zero_sharedEv, symObjAddr: 0x46D0, symBinAddr: 0x65050, symSize: 0x70 }
  - { offset: 0xD4861, size: 0x8, addend: 0x0, symName: __ZNSt3__120__shared_ptr_emplaceI14ChannelServiceNS_9allocatorIS1_EEE21__on_zero_shared_weakEv, symObjAddr: 0x4740, symBinAddr: 0x650C0, symSize: 0x10 }
  - { offset: 0xD49B7, size: 0x8, addend: 0x0, symName: __ZNSt3__19allocatorI11UserServiceE9constructB8ne180100IS1_JRNS_10shared_ptrI5MutexI6PubNubEEENS_8weak_ptrI11ChatServiceEERKiEEEvPT_DpOT0_, symObjAddr: 0x49C0, symBinAddr: 0x65300, symSize: 0xB0 }
  - { offset: 0xD4B19, size: 0x8, addend: 0x0, symName: __ZNSt3__120__shared_ptr_emplaceI11UserServiceNS_9allocatorIS1_EEED1Ev, symObjAddr: 0x4940, symBinAddr: 0x65280, symSize: 0x20 }
  - { offset: 0xD4B45, size: 0x8, addend: 0x0, symName: __ZNSt3__120__shared_ptr_emplaceI11UserServiceNS_9allocatorIS1_EEED0Ev, symObjAddr: 0x4960, symBinAddr: 0x652A0, symSize: 0x30 }
  - { offset: 0xD4B8C, size: 0x8, addend: 0x0, symName: __ZNSt3__120__shared_ptr_emplaceI11UserServiceNS_9allocatorIS1_EEE16__on_zero_sharedEv, symObjAddr: 0x4990, symBinAddr: 0x652D0, symSize: 0x20 }
  - { offset: 0xD4BEB, size: 0x8, addend: 0x0, symName: __ZNSt3__19allocatorI11UserServiceE7destroyB8ne180100EPS1_, symObjAddr: 0x4A70, symBinAddr: 0x653B0, symSize: 0xA0 }
  - { offset: 0xD4D71, size: 0x8, addend: 0x0, symName: __ZNSt3__120__shared_ptr_emplaceI11UserServiceNS_9allocatorIS1_EEE21__on_zero_shared_weakEv, symObjAddr: 0x49B0, symBinAddr: 0x652F0, symSize: 0x10 }
  - { offset: 0xD4EDF, size: 0x8, addend: 0x0, symName: __ZNSt3__19allocatorI14MessageServiceE9constructB8ne180100IS1_JRNS_10shared_ptrI5MutexI6PubNubEEENS_8weak_ptrI11ChatServiceEEEEEvPT_DpOT0_, symObjAddr: 0x4CD0, symBinAddr: 0x65610, symSize: 0xB0 }
  - { offset: 0xD5041, size: 0x8, addend: 0x0, symName: __ZNSt3__120__shared_ptr_emplaceI14MessageServiceNS_9allocatorIS1_EEED1Ev, symObjAddr: 0x4C00, symBinAddr: 0x65540, symSize: 0x20 }
  - { offset: 0xD506D, size: 0x8, addend: 0x0, symName: __ZNSt3__120__shared_ptr_emplaceI14MessageServiceNS_9allocatorIS1_EEED0Ev, symObjAddr: 0x4C20, symBinAddr: 0x65560, symSize: 0x30 }
  - { offset: 0xD50CC, size: 0x8, addend: 0x0, symName: __ZNSt3__120__shared_ptr_emplaceI14MessageServiceNS_9allocatorIS1_EEE16__on_zero_sharedEv, symObjAddr: 0x4C50, symBinAddr: 0x65590, symSize: 0x70 }
  - { offset: 0xD51F1, size: 0x8, addend: 0x0, symName: __ZNSt3__120__shared_ptr_emplaceI14MessageServiceNS_9allocatorIS1_EEE21__on_zero_shared_weakEv, symObjAddr: 0x4CC0, symBinAddr: 0x65600, symSize: 0x10 }
  - { offset: 0xD5305, size: 0x8, addend: 0x0, symName: __ZNSt3__19allocatorI17MembershipServiceE9constructB8ne180100IS1_JRNS_10shared_ptrI5MutexI6PubNubEEENS_8weak_ptrI11ChatServiceEEEEEvPT_DpOT0_, symObjAddr: 0x4F40, symBinAddr: 0x65880, symSize: 0x130 }
  - { offset: 0xD55E3, size: 0x8, addend: 0x0, symName: __ZNSt3__120__shared_ptr_emplaceI17MembershipServiceNS_9allocatorIS1_EEED1Ev, symObjAddr: 0x4E70, symBinAddr: 0x657B0, symSize: 0x20 }
  - { offset: 0xD560F, size: 0x8, addend: 0x0, symName: __ZNSt3__120__shared_ptr_emplaceI17MembershipServiceNS_9allocatorIS1_EEED0Ev, symObjAddr: 0x4E90, symBinAddr: 0x657D0, symSize: 0x30 }
  - { offset: 0xD566E, size: 0x8, addend: 0x0, symName: __ZNSt3__120__shared_ptr_emplaceI17MembershipServiceNS_9allocatorIS1_EEE16__on_zero_sharedEv, symObjAddr: 0x4EC0, symBinAddr: 0x65800, symSize: 0x70 }
  - { offset: 0xD5793, size: 0x8, addend: 0x0, symName: __ZNSt3__120__shared_ptr_emplaceI17MembershipServiceNS_9allocatorIS1_EEE21__on_zero_shared_weakEv, symObjAddr: 0x4F30, symBinAddr: 0x65870, symSize: 0x10 }
  - { offset: 0xD58AD, size: 0x8, addend: 0x0, symName: __ZNSt3__19allocatorI15PresenceServiceE9constructB8ne180100IS1_JRNS_10shared_ptrI5MutexI6PubNubEEENS_8weak_ptrI11ChatServiceEEEEEvPT_DpOT0_, symObjAddr: 0x5230, symBinAddr: 0x65B70, symSize: 0xB0 }
  - { offset: 0xD5A0F, size: 0x8, addend: 0x0, symName: __ZNSt3__120__shared_ptr_emplaceI15PresenceServiceNS_9allocatorIS1_EEED1Ev, symObjAddr: 0x5160, symBinAddr: 0x65AA0, symSize: 0x20 }
  - { offset: 0xD5A3B, size: 0x8, addend: 0x0, symName: __ZNSt3__120__shared_ptr_emplaceI15PresenceServiceNS_9allocatorIS1_EEED0Ev, symObjAddr: 0x5180, symBinAddr: 0x65AC0, symSize: 0x30 }
  - { offset: 0xD5A9A, size: 0x8, addend: 0x0, symName: __ZNSt3__120__shared_ptr_emplaceI15PresenceServiceNS_9allocatorIS1_EEE16__on_zero_sharedEv, symObjAddr: 0x51B0, symBinAddr: 0x65AF0, symSize: 0x70 }
  - { offset: 0xD5BBF, size: 0x8, addend: 0x0, symName: __ZNSt3__120__shared_ptr_emplaceI15PresenceServiceNS_9allocatorIS1_EEE21__on_zero_shared_weakEv, symObjAddr: 0x5220, symBinAddr: 0x65B60, symSize: 0x10 }
  - { offset: 0xD5CD3, size: 0x8, addend: 0x0, symName: __ZNSt3__19allocatorI19RestrictionsServiceE9constructB8ne180100IS1_JRNS_10shared_ptrI5MutexI6PubNubEEENS_8weak_ptrI11ChatServiceEEEEEvPT_DpOT0_, symObjAddr: 0x54A0, symBinAddr: 0x65DE0, symSize: 0xB0 }
  - { offset: 0xD5E35, size: 0x8, addend: 0x0, symName: __ZNSt3__120__shared_ptr_emplaceI19RestrictionsServiceNS_9allocatorIS1_EEED1Ev, symObjAddr: 0x53D0, symBinAddr: 0x65D10, symSize: 0x20 }
  - { offset: 0xD5E61, size: 0x8, addend: 0x0, symName: __ZNSt3__120__shared_ptr_emplaceI19RestrictionsServiceNS_9allocatorIS1_EEED0Ev, symObjAddr: 0x53F0, symBinAddr: 0x65D30, symSize: 0x30 }
  - { offset: 0xD5EC0, size: 0x8, addend: 0x0, symName: __ZNSt3__120__shared_ptr_emplaceI19RestrictionsServiceNS_9allocatorIS1_EEE16__on_zero_sharedEv, symObjAddr: 0x5420, symBinAddr: 0x65D60, symSize: 0x70 }
  - { offset: 0xD5FE5, size: 0x8, addend: 0x0, symName: __ZNSt3__120__shared_ptr_emplaceI19RestrictionsServiceNS_9allocatorIS1_EEE21__on_zero_shared_weakEv, symObjAddr: 0x5490, symBinAddr: 0x65DD0, symSize: 0x10 }
  - { offset: 0xD6075, size: 0x8, addend: 0x0, symName: __ZNSt3__120__shared_ptr_emplaceI20AccessManagerServiceNS_9allocatorIS1_EEEC2B8ne180100IJRNS_10shared_ptrI5MutexI6PubNubEEEES3_Li0EEES3_DpOT_.cold.1, symObjAddr: 0x7D00, symBinAddr: 0xDD070, symSize: 0x30 }
  - { offset: 0xD6123, size: 0x8, addend: 0x0, symName: __ZNSt3__120__shared_ptr_emplaceI20AccessManagerServiceNS_9allocatorIS1_EEED1Ev, symObjAddr: 0x55F0, symBinAddr: 0x65F30, symSize: 0x20 }
  - { offset: 0xD614F, size: 0x8, addend: 0x0, symName: __ZNSt3__120__shared_ptr_emplaceI20AccessManagerServiceNS_9allocatorIS1_EEED0Ev, symObjAddr: 0x5610, symBinAddr: 0x65F50, symSize: 0x30 }
  - { offset: 0xD61A8, size: 0x8, addend: 0x0, symName: __ZNSt3__120__shared_ptr_emplaceI20AccessManagerServiceNS_9allocatorIS1_EEE16__on_zero_sharedEv, symObjAddr: 0x5640, symBinAddr: 0x65F80, symSize: 0x40 }
  - { offset: 0xD6253, size: 0x8, addend: 0x0, symName: __ZNSt3__120__shared_ptr_emplaceI20AccessManagerServiceNS_9allocatorIS1_EEE21__on_zero_shared_weakEv, symObjAddr: 0x5680, symBinAddr: 0x65FC0, symSize: 0x10 }
  - { offset: 0xD62D7, size: 0x8, addend: 0x0, symName: __ZNSt3__120__shared_ptr_emplaceI15CallbackServiceNS_9allocatorIS1_EEED1Ev, symObjAddr: 0x5690, symBinAddr: 0x65FD0, symSize: 0x20 }
  - { offset: 0xD6303, size: 0x8, addend: 0x0, symName: __ZNSt3__120__shared_ptr_emplaceI15CallbackServiceNS_9allocatorIS1_EEED0Ev, symObjAddr: 0x56B0, symBinAddr: 0x65FF0, symSize: 0x30 }
  - { offset: 0xD6356, size: 0x8, addend: 0x0, symName: __ZNSt3__120__shared_ptr_emplaceI15CallbackServiceNS_9allocatorIS1_EEE16__on_zero_sharedEv, symObjAddr: 0x56E0, symBinAddr: 0x66020, symSize: 0x10 }
  - { offset: 0xD63E0, size: 0x8, addend: 0x0, symName: __ZN15CallbackServiceD2Ev, symObjAddr: 0x5870, symBinAddr: 0x661B0, symSize: 0x1D0 }
  - { offset: 0xD6798, size: 0x8, addend: 0x0, symName: __ZNSt3__120__shared_ptr_emplaceI15CallbackServiceNS_9allocatorIS1_EEE21__on_zero_shared_weakEv, symObjAddr: 0x56F0, symBinAddr: 0x66030, symSize: 0x10 }
  - { offset: 0xD68EE, size: 0x8, addend: 0x0, symName: __ZN19CallbacksRepositoryD2Ev, symObjAddr: 0x5A40, symBinAddr: 0x66380, symSize: 0x110 }
  - { offset: 0xD70E2, size: 0x8, addend: 0x0, symName: __ZNSt3__16__treeINS_12__value_typeIN6Pubnub6StringENS_5tupleIJS3_NS_8functionIFvNS2_10MembershipEEEEEEEEENS_19__map_value_compareIS3_SA_NS2_14StringComparerELb1EEENS_9allocatorISA_EEE7destroyEPNS_11__tree_nodeISA_PvEE, symObjAddr: 0x5B50, symBinAddr: 0x66490, symSize: 0x70 }
  - { offset: 0xD724C, size: 0x8, addend: 0x0, symName: __ZNSt3__16__treeINS_12__value_typeIN6Pubnub6StringENS_8functionIFvNS_6vectorIS3_NS_9allocatorIS3_EEEEEEEEENS_19__map_value_compareIS3_SB_NS2_14StringComparerELb1EEENS6_ISB_EEE7destroyEPNS_11__tree_nodeISB_PvEE, symObjAddr: 0x5BC0, symBinAddr: 0x66500, symSize: 0x70 }
  - { offset: 0xD7402, size: 0x8, addend: 0x0, symName: __ZNSt3__16__treeINS_12__value_typeIN6Pubnub6StringENS_5tupleIJNS2_22pubnub_chat_event_typeENS_8functionIFvNS2_5EventEEEEEEEEENS_19__map_value_compareIS3_SB_NS2_14StringComparerELb1EEENS_9allocatorISB_EEE7destroyEPNS_11__tree_nodeISB_PvEE, symObjAddr: 0x5CA0, symBinAddr: 0x66570, symSize: 0x70 }
  - { offset: 0xD7920, size: 0x8, addend: 0x0, symName: __ZNSt3__120__shared_ptr_emplaceI5MutexI6PubNubENS_9allocatorIS3_EEED1Ev, symObjAddr: 0x5E60, symBinAddr: 0x665E0, symSize: 0x20 }
  - { offset: 0xD794C, size: 0x8, addend: 0x0, symName: __ZNSt3__120__shared_ptr_emplaceI5MutexI6PubNubENS_9allocatorIS3_EEED0Ev, symObjAddr: 0x5E80, symBinAddr: 0x66600, symSize: 0x30 }
  - { offset: 0xD79A5, size: 0x8, addend: 0x0, symName: __ZNSt3__120__shared_ptr_emplaceI5MutexI6PubNubENS_9allocatorIS3_EEE16__on_zero_sharedEv, symObjAddr: 0x5EB0, symBinAddr: 0x66630, symSize: 0x30 }
  - { offset: 0xD7A37, size: 0x8, addend: 0x0, symName: __ZNSt3__120__shared_ptr_emplaceI5MutexI6PubNubENS_9allocatorIS3_EEE21__on_zero_shared_weakEv, symObjAddr: 0x5EE0, symBinAddr: 0x66660, symSize: 0x10 }
  - { offset: 0xD7B3F, size: 0x8, addend: 0x0, symName: __ZNSt3__19allocatorIN6Pubnub5EventEE9constructB8ne180100IS2_JRS2_EEEvPT_DpOT0_, symObjAddr: 0x61C0, symBinAddr: 0x66940, symSize: 0xA0 }
  - { offset: 0xD7B6A, size: 0x8, addend: 0x0, symName: __ZNKSt3__16vectorIN6Pubnub5EventENS_9allocatorIS2_EEE20__throw_length_errorB8ne180100Ev, symObjAddr: 0x61B0, symBinAddr: 0x66930, symSize: 0x10 }
  - { offset: 0xD7B7F, size: 0x8, addend: 0x0, symName: __ZNSt3__19allocatorIN6Pubnub5EventEE9constructB8ne180100IS2_JRS2_EEEvPT_DpOT0_, symObjAddr: 0x61C0, symBinAddr: 0x66940, symSize: 0xA0 }
  - { offset: 0xD7B89, size: 0x8, addend: 0x0, symName: __ZNSt3__128__exception_guard_exceptionsINS_6vectorIN6Pubnub5EventENS_9allocatorIS3_EEE16__destroy_vectorEED1B8ne180100Ev, symObjAddr: 0x6120, symBinAddr: 0x668A0, symSize: 0x90 }
  - { offset: 0xD7C9A, size: 0x8, addend: 0x0, symName: __ZNSt3__16vectorIN6Pubnub5EventENS_9allocatorIS2_EEE16__init_with_sizeB8ne180100IPS2_S7_EEvT_T0_m.cold.1, symObjAddr: 0x7D30, symBinAddr: 0xDD0A0, symSize: 0x50 }
  - { offset: 0xD7E80, size: 0x8, addend: 0x0, symName: __ZNSt3__114__split_bufferIN6Pubnub5EventERNS_9allocatorIS2_EEED1Ev, symObjAddr: 0x64F0, symBinAddr: 0x66BD0, symSize: 0x80 }
  - { offset: 0xD7FA9, size: 0x8, addend: 0x0, symName: __ZNSt3__16vectorIN6Pubnub5EventENS_9allocatorIS2_EEE21__push_back_slow_pathIRKS2_EEPS2_OT_.cold.1, symObjAddr: 0x7D80, symBinAddr: 0xDD0F0, symSize: 0x40 }
  - { offset: 0xD925D, size: 0x8, addend: 0x0, symName: __ZNSt3__114__split_bufferIN6Pubnub15UserMentionDataERNS_9allocatorIS2_EEED1Ev, symObjAddr: 0x79D0, symBinAddr: 0x67050, symSize: 0x60 }
  - { offset: 0xD9410, size: 0x8, addend: 0x0, symName: __ZNSt3__110__function6__funcINS_8functionIFvRKN6Pubnub5EventEEEENS_9allocatorIS8_EEFvS4_EED1Ev, symObjAddr: 0x7A30, symBinAddr: 0x670B0, symSize: 0x50 }
  - { offset: 0xD94CA, size: 0x8, addend: 0x0, symName: __ZNSt3__110__function6__funcINS_8functionIFvRKN6Pubnub5EventEEEENS_9allocatorIS8_EEFvS4_EED0Ev, symObjAddr: 0x7A80, symBinAddr: 0x67100, symSize: 0x50 }
  - { offset: 0xD961E, size: 0x8, addend: 0x0, symName: __ZNKSt3__110__function6__funcINS_8functionIFvRKN6Pubnub5EventEEEENS_9allocatorIS8_EEFvS4_EE7__cloneEv, symObjAddr: 0x7AD0, symBinAddr: 0x67150, symSize: 0x80 }
  - { offset: 0xD97FF, size: 0x8, addend: 0x0, symName: __ZNKSt3__110__function6__funcINS_8functionIFvRKN6Pubnub5EventEEEENS_9allocatorIS8_EEFvS4_EE7__cloneEPNS0_6__baseISB_EE, symObjAddr: 0x7B50, symBinAddr: 0x671D0, symSize: 0x70 }
  - { offset: 0xD98C1, size: 0x8, addend: 0x0, symName: __ZNSt3__110__function6__funcINS_8functionIFvRKN6Pubnub5EventEEEENS_9allocatorIS8_EEFvS4_EE7destroyEv, symObjAddr: 0x7BC0, symBinAddr: 0x67240, symSize: 0x40 }
  - { offset: 0xD9954, size: 0x8, addend: 0x0, symName: __ZNSt3__110__function6__funcINS_8functionIFvRKN6Pubnub5EventEEEENS_9allocatorIS8_EEFvS4_EE18destroy_deallocateEv, symObjAddr: 0x7C00, symBinAddr: 0x67280, symSize: 0x40 }
  - { offset: 0xD9A90, size: 0x8, addend: 0x0, symName: __ZNSt3__110__function6__funcINS_8functionIFvRKN6Pubnub5EventEEEENS_9allocatorIS8_EEFvS4_EEclEOS4_, symObjAddr: 0x7C40, symBinAddr: 0x672C0, symSize: 0x20 }
  - { offset: 0xD9B49, size: 0x8, addend: 0x0, symName: __ZNKSt3__110__function6__funcINS_8functionIFvRKN6Pubnub5EventEEEENS_9allocatorIS8_EEFvS4_EE6targetERKSt9type_info, symObjAddr: 0x7C60, symBinAddr: 0x672E0, symSize: 0x20 }
  - { offset: 0xD9B86, size: 0x8, addend: 0x0, symName: __ZNKSt3__110__function6__funcINS_8functionIFvRKN6Pubnub5EventEEEENS_9allocatorIS8_EEFvS4_EE11target_typeEv, symObjAddr: 0x7C80, symBinAddr: 0x67300, symSize: 0x10 }
  - { offset: 0xD9C8A, size: 0x8, addend: 0x0, symName: __ZN14ChannelServiceC2ENSt3__110shared_ptrI5MutexI6PubNubEEENS0_8weak_ptrI11ChatServiceEEf, symObjAddr: 0x0, symBinAddr: 0x67310, symSize: 0xF0 }
  - { offset: 0xD9F4E, size: 0x8, addend: 0x0, symName: __ZN14ChannelServiceC1ENSt3__110shared_ptrI5MutexI6PubNubEEENS0_8weak_ptrI11ChatServiceEEf, symObjAddr: 0x130, symBinAddr: 0x67400, symSize: 0x10 }
  - { offset: 0xD9F79, size: 0x8, addend: 0x0, symName: __ZNK14ChannelService26create_public_conversationERKN6Pubnub6StringERK10ChannelDAO, symObjAddr: 0x140, symBinAddr: 0x67410, symSize: 0xB0 }
  - { offset: 0xD9FCE, size: 0x8, addend: 0x0, symName: __ZNK14ChannelService14create_channelERKN6Pubnub6StringEOK13ChannelEntity, symObjAddr: 0x1F0, symBinAddr: 0x674C0, symSize: 0x200 }
  - { offset: 0xDA238, size: 0x8, addend: 0x0, symName: __ZNK14ChannelService21create_channel_objectENSt3__14pairIN6Pubnub6StringE13ChannelEntityEE, symObjAddr: 0x10D0, symBinAddr: 0x68210, symSize: 0x3B0 }
  - { offset: 0xDA93B, size: 0x8, addend: 0x0, symName: __ZNSt3__14pairIN6Pubnub6StringE13ChannelEntityED1Ev, symObjAddr: 0x1480, symBinAddr: 0x685C0, symSize: 0x50 }
  - { offset: 0xDAAB1, size: 0x8, addend: 0x0, symName: __ZNK14ChannelService26create_direct_conversationERKN6Pubnub4UserERKNS0_6StringERK10ChannelDAORKNS0_18ChatMembershipDataE, symObjAddr: 0x440, symBinAddr: 0x676C0, symSize: 0x5F0 }
  - { offset: 0xDB1FD, size: 0x8, addend: 0x0, symName: __ZNK14ChannelService25create_group_conversationERKNSt3__16vectorIN6Pubnub4UserENS0_9allocatorIS3_EEEERKNS2_6StringERK10ChannelDAORKNS2_18ChatMembershipDataE, symObjAddr: 0xB40, symBinAddr: 0x67CB0, symSize: 0x560 }
  - { offset: 0xDB8FE, size: 0x8, addend: 0x0, symName: __ZNSt3__111make_uniqueB8ne180100I10ChannelDAOJR13ChannelEntityEEENS_11__unique_ifIT_E15__unique_singleEDpOT0_, symObjAddr: 0x95D0, symBinAddr: 0x6FE00, symSize: 0xB0 }
  - { offset: 0xDBBA1, size: 0x8, addend: 0x0, symName: __ZNSt3__120__throw_bad_weak_ptrB8ne180100Ev, symObjAddr: 0x12A20, symBinAddr: 0x72FB0, symSize: 0x40 }
  - { offset: 0xDBD69, size: 0x8, addend: 0x0, symName: __ZNK14ChannelService11get_channelERKN6Pubnub6StringE, symObjAddr: 0x14D0, symBinAddr: 0x68610, symSize: 0x430 }
  - { offset: 0xDC8DA, size: 0x8, addend: 0x0, symName: __ZNK14ChannelService12get_channelsERKN6Pubnub6StringES3_iRKNS0_4PageE, symObjAddr: 0x1920, symBinAddr: 0x68A40, symSize: 0xB50 }
  - { offset: 0xDD596, size: 0x8, addend: 0x0, symName: __ZNSt3__16vectorIN6Pubnub7ChannelENS_9allocatorIS2_EEE21__push_back_slow_pathIRKS2_EEPS2_OT_, symObjAddr: 0xCFE0, symBinAddr: 0x71AA0, symSize: 0x1D0 }
  - { offset: 0xDD92B, size: 0x8, addend: 0x0, symName: __ZNSt3__112__tuple_implINS_15__tuple_indicesIJLm0ELm1ELm2EEEEJNS_6vectorIN6Pubnub7ChannelENS_9allocatorIS5_EEEENS4_4PageEiEEC1B8ne180100IJLm0ELm1ELm2EEJS8_S9_iEJEJEJRS8_RS9_RiEEENS1_IJXspT_EEEENS_13__tuple_typesIJDpT0_EEENS1_IJXspT1_EEEENSG_IJDpT2_EEEDpOT3_, symObjAddr: 0xAFF0, symBinAddr: 0x71220, symSize: 0xA0 }
  - { offset: 0xDDA84, size: 0x8, addend: 0x0, symName: '__ZZNK14ChannelService12get_channelsERKN6Pubnub6StringES3_iRKNS0_4PageEEN3$_0D1Ev', symObjAddr: 0x2470, symBinAddr: 0x69590, symSize: 0x50 }
  - { offset: 0xDDC44, size: 0x8, addend: 0x0, symName: __ZNK14ChannelService14update_channelERKN6Pubnub6StringE10ChannelDAO, symObjAddr: 0x25B0, symBinAddr: 0x695E0, symSize: 0x290 }
  - { offset: 0xDDE8A, size: 0x8, addend: 0x0, symName: __ZNK14ChannelService14delete_channelERKN6Pubnub6StringE, symObjAddr: 0x2840, symBinAddr: 0x69870, symSize: 0xE0 }
  - { offset: 0xDE0A3, size: 0x8, addend: 0x0, symName: __ZNK14ChannelService19get_channel_historyERKN6Pubnub6StringES3_S3_i, symObjAddr: 0x2920, symBinAddr: 0x69950, symSize: 0x720 }
  - { offset: 0xDEDEB, size: 0x8, addend: 0x0, symName: __ZNSt3__16vectorIN6Pubnub7MessageENS_9allocatorIS2_EEE21__push_back_slow_pathIS2_EEPS2_OT_, symObjAddr: 0xE1D0, symBinAddr: 0x71CC0, symSize: 0x1D0 }
  - { offset: 0xDF178, size: 0x8, addend: 0x0, symName: '__ZZNK14ChannelService19get_channel_historyERKN6Pubnub6StringES3_S3_iEN3$_1D1Ev', symObjAddr: 0x3070, symBinAddr: 0x6A070, symSize: 0x40 }
  - { offset: 0xDF344, size: 0x8, addend: 0x0, symName: __ZNK14ChannelService22pin_message_to_channelERKN6Pubnub7MessageERKNS0_6StringERK10ChannelDAO, symObjAddr: 0x3190, symBinAddr: 0x6A0B0, symSize: 0x280 }
  - { offset: 0xDF53A, size: 0x8, addend: 0x0, symName: __ZNK14ChannelService26unpin_message_from_channelERKN6Pubnub6StringERK10ChannelDAO, symObjAddr: 0x3460, symBinAddr: 0x6A330, symSize: 0x190 }
  - { offset: 0xDF674, size: 0x8, addend: 0x0, symName: __ZNK14ChannelService7connectERKN6Pubnub6StringERK10ChannelDAONSt3__18functionIFvNS0_7MessageEEEE, symObjAddr: 0x35F0, symBinAddr: 0x6A4C0, symSize: 0x270 }
  - { offset: 0xDFBA9, size: 0x8, addend: 0x0, symName: __ZNK14ChannelService10disconnectERK10ChannelDAO, symObjAddr: 0x38E0, symBinAddr: 0x6A730, symSize: 0x10 }
  - { offset: 0xDFBCC, size: 0x8, addend: 0x0, symName: __ZNK14ChannelService4joinERKN6Pubnub7ChannelERK10ChannelDAONSt3__18functionIFvNS0_7MessageEEEERKNS0_18ChatMembershipDataE, symObjAddr: 0x38F0, symBinAddr: 0x6A740, symSize: 0x490 }
  - { offset: 0xE0053, size: 0x8, addend: 0x0, symName: __ZNK14ChannelService5leaveERKN6Pubnub6StringERK10ChannelDAO, symObjAddr: 0x3D80, symBinAddr: 0x6ABD0, symSize: 0x1A0 }
  - { offset: 0xE0354, size: 0x8, addend: 0x0, symName: __ZNK14ChannelService9send_textERKN6Pubnub6StringERK10ChannelDAOS3_RK22SendTextParamsInternal, symObjAddr: 0x3F20, symBinAddr: 0x6AD70, symSize: 0x650 }
  - { offset: 0xE0BE9, size: 0x8, addend: 0x0, symName: __ZN22SendTextParamsInternalC2ERKS_, symObjAddr: 0xB230, symBinAddr: 0x712C0, symSize: 0x240 }
  - { offset: 0xE11E1, size: 0x8, addend: 0x0, symName: '__ZZNK14ChannelService9send_textERKN6Pubnub6StringERK10ChannelDAOS3_RK22SendTextParamsInternalEN3$_1D1Ev', symObjAddr: 0x4570, symBinAddr: 0x6B3C0, symSize: 0x40 }
  - { offset: 0xE122B, size: 0x8, addend: 0x0, symName: '__ZZNK14ChannelService9send_textERKN6Pubnub6StringERK10ChannelDAOS3_RK22SendTextParamsInternalEN3$_0D1Ev', symObjAddr: 0x45B0, symBinAddr: 0x6B400, symSize: 0x30 }
  - { offset: 0xE127B, size: 0x8, addend: 0x0, symName: __ZNK14ChannelService12start_typingERKN6Pubnub6StringER10ChannelDAO, symObjAddr: 0x45E0, symBinAddr: 0x6B430, symSize: 0x200 }
  - { offset: 0xE149D, size: 0x8, addend: 0x0, symName: __ZNK14ChannelService11stop_typingERKN6Pubnub6StringER10ChannelDAO, symObjAddr: 0x47E0, symBinAddr: 0x6B630, symSize: 0x1D0 }
  - { offset: 0xE180D, size: 0x8, addend: 0x0, symName: __ZNK14ChannelService10get_typingERKN6Pubnub6StringER10ChannelDAONSt3__18functionIFvRKNS6_6vectorIS1_NS6_9allocatorIS1_EEEEEEE, symObjAddr: 0x49B0, symBinAddr: 0x6B800, symSize: 0x440 }
  - { offset: 0xE1FA4, size: 0x8, addend: 0x0, symName: __ZNK14ChannelService18get_pinned_messageERKN6Pubnub6StringERK10ChannelDAO, symObjAddr: 0x4DF0, symBinAddr: 0x6BC40, symSize: 0x410 }
  - { offset: 0xE2509, size: 0x8, addend: 0x0, symName: __ZNK14ChannelService17emit_user_mentionERKN6Pubnub6StringES3_S3_S3_S3_, symObjAddr: 0x5200, symBinAddr: 0x6C050, symSize: 0x420 }
  - { offset: 0xE45C1, size: 0x8, addend: 0x0, symName: __ZNK8nlohmann16json_abi_v3_11_310basic_jsonINSt3__13mapENS2_6vectorENS2_12basic_stringIcNS2_11char_traitsIcEENS2_9allocatorIcEEEEbxydS8_NS0_14adl_serializerENS4_IhNS8_IhEEEEvE4dumpEicbNS0_6detail15error_handler_tE.cold.1, symObjAddr: 0x1F360, symBinAddr: 0xDD130, symSize: 0x20 }
  - { offset: 0xE46F5, size: 0x8, addend: 0x0, symName: __ZNK14ChannelService23get_channel_suggestionsEN6Pubnub6StringEi, symObjAddr: 0x59E0, symBinAddr: 0x6C470, symSize: 0x4A0 }
  - { offset: 0xE4E94, size: 0x8, addend: 0x0, symName: __ZNK14ChannelService32get_user_suggestions_for_channelERKN6Pubnub6StringER10ChannelDAOS1_i, symObjAddr: 0x5E80, symBinAddr: 0x6C910, symSize: 0x4E0 }
  - { offset: 0xE55E0, size: 0x8, addend: 0x0, symName: __ZNK14ChannelService14stream_updatesEN6Pubnub7ChannelENSt3__18functionIFvS1_EEE, symObjAddr: 0x63E0, symBinAddr: 0x6CDF0, symSize: 0x2B0 }
  - { offset: 0xE5A73, size: 0x8, addend: 0x0, symName: __ZNK14ChannelService17stream_updates_onEN6Pubnub7ChannelERKNSt3__16vectorIS1_NS2_9allocatorIS1_EEEENS2_8functionIFvS6_EEE, symObjAddr: 0x66D0, symBinAddr: 0x6D0A0, symSize: 0x3D0 }
  - { offset: 0xE6540, size: 0x8, addend: 0x0, symName: __ZNK14ChannelService20stream_read_receiptsERKN6Pubnub6StringERK10ChannelDAONSt3__18functionIFvNS7_3mapIS1_NS7_6vectorIS1_NS7_9allocatorIS1_EEEENS0_14StringComparerENSB_INS7_4pairIS2_SD_EEEEEEEEE, symObjAddr: 0x6B50, symBinAddr: 0x6D470, symSize: 0x850 }
  - { offset: 0xE74C5, size: 0x8, addend: 0x0, symName: __ZNSt3__16__treeINS_12__value_typeIN6Pubnub6StringES3_EENS_19__map_value_compareIS3_S4_NS2_14StringComparerELb1EEENS_9allocatorIS4_EEE25__emplace_unique_key_argsIS3_JRKNS_21piecewise_construct_tENS_5tupleIJOS3_EEENSF_IJEEEEEENS_4pairINS_15__tree_iteratorIS4_PNS_11__tree_nodeIS4_PvEElEEbEERKT_DpOT0_, symObjAddr: 0x12D00, symBinAddr: 0x73040, symSize: 0x100 }
  - { offset: 0xE773B, size: 0x8, addend: 0x0, symName: __ZNSt3__16__treeINS_12__value_typeIN6Pubnub6StringES3_EENS_19__map_value_compareIS3_S4_NS2_14StringComparerELb1EEENS_9allocatorIS4_EEE30__emplace_hint_unique_key_argsIS3_JRKNS_4pairIKS3_S3_EEEEENSC_INS_15__tree_iteratorIS4_PNS_11__tree_nodeIS4_PvEElEEbEENS_21__tree_const_iteratorIS4_SL_lEERKT_DpOT0_, symObjAddr: 0x12E00, symBinAddr: 0x73140, symSize: 0xE0 }
  - { offset: 0xE78D7, size: 0x8, addend: 0x0, symName: '__ZZNK14ChannelService20stream_read_receiptsERKN6Pubnub6StringERK10ChannelDAONSt3__18functionIFvNS7_3mapIS1_NS7_6vectorIS1_NS7_9allocatorIS1_EEEENS0_14StringComparerENSB_INS7_4pairIS2_SD_EEEEEEEEEENK3$_0clENS9_IS1_S1_SE_NSB_INSF_IS2_S1_EEEEEE', symObjAddr: 0x73A0, symBinAddr: 0x6DCC0, symSize: 0x290 }
  - { offset: 0xE7D9A, size: 0x8, addend: 0x0, symName: __ZNSt3__16__treeINS_12__value_typeIN6Pubnub6StringES3_EENS_19__map_value_compareIS3_S4_NS2_14StringComparerELb1EEENS_9allocatorIS4_EEE7destroyEPNS_11__tree_nodeIS4_PvEE, symObjAddr: 0x12CB0, symBinAddr: 0x72FF0, symSize: 0x50 }
  - { offset: 0xE7E87, size: 0x8, addend: 0x0, symName: __ZNSt3__112__tuple_implINS_15__tuple_indicesIJLm0ELm1ELm2ELm3EEEEJNS_6vectorIN6Pubnub10MembershipENS_9allocatorIS5_EEEENS4_4PageEiNS4_6StringEEEC2ERKSB_, symObjAddr: 0xC2E0, symBinAddr: 0x718F0, symSize: 0xC0 }
  - { offset: 0xE7FAC, size: 0x8, addend: 0x0, symName: '__ZZNK14ChannelService20stream_read_receiptsERKN6Pubnub6StringERK10ChannelDAONSt3__18functionIFvNS7_3mapIS1_NS7_6vectorIS1_NS7_9allocatorIS1_EEEENS0_14StringComparerENSB_INS7_4pairIS2_SD_EEEEEEEEEEN3$_1C1ERKSL_', symObjAddr: 0x7630, symBinAddr: 0x6DF50, symSize: 0x130 }
  - { offset: 0xE8285, size: 0x8, addend: 0x0, symName: __ZNSt3__112__tuple_implINS_15__tuple_indicesIJLm0ELm1ELm2ELm3EEEEJNS_6vectorIN6Pubnub10MembershipENS_9allocatorIS5_EEEENS4_4PageEiNS4_6StringEEEC2EOSB_, symObjAddr: 0x13900, symBinAddr: 0x739D0, symSize: 0xC0 }
  - { offset: 0xE8387, size: 0x8, addend: 0x0, symName: '__ZZNK14ChannelService20stream_read_receiptsERKN6Pubnub6StringERK10ChannelDAONSt3__18functionIFvNS7_3mapIS1_NS7_6vectorIS1_NS7_9allocatorIS1_EEEENS0_14StringComparerENSB_INS7_4pairIS2_SD_EEEEEEEEEEN3$_1D1Ev', symObjAddr: 0x7760, symBinAddr: 0x6E080, symSize: 0xE0 }
  - { offset: 0xE8CAC, size: 0x8, addend: 0x0, symName: '__ZZNK14ChannelService20stream_read_receiptsERKN6Pubnub6StringERK10ChannelDAONSt3__18functionIFvNS7_3mapIS1_NS7_6vectorIS1_NS7_9allocatorIS1_EEEENS0_14StringComparerENSB_INS7_4pairIS2_SD_EEEEEEEEEEN3$_1C1ERKSL_.cold.1', symObjAddr: 0x1F380, symBinAddr: 0xDD150, symSize: 0x50 }
  - { offset: 0xE8E55, size: 0x8, addend: 0x0, symName: __ZNK14ChannelService13get_thread_idERKN6Pubnub7MessageE, symObjAddr: 0x7840, symBinAddr: 0x6E160, symSize: 0x1A0 }
  - { offset: 0xE8F0F, size: 0x8, addend: 0x0, symName: __ZNK14ChannelService21create_thread_channelERKN6Pubnub7MessageE, symObjAddr: 0x79E0, symBinAddr: 0x6E300, symSize: 0x510 }
  - { offset: 0xE91A9, size: 0x8, addend: 0x0, symName: __ZN6Pubnub15ChatChannelDataC2Ev, symObjAddr: 0xC3A0, symBinAddr: 0x719B0, symSize: 0xF0 }
  - { offset: 0xE91BA, size: 0x8, addend: 0x0, symName: __ZNSt3__14pairIN6Pubnub6StringE13ChannelEntityEC1B8ne180100IRS2_RS3_Li0EEEOT_OT0_, symObjAddr: 0x8370, symBinAddr: 0x6EC90, symSize: 0x40 }
  - { offset: 0xE91FA, size: 0x8, addend: 0x0, symName: __ZNK14ChannelService28create_thread_channel_objectENSt3__14pairIN6Pubnub6StringE13ChannelEntityEENS2_7MessageE, symObjAddr: 0x7EF0, symBinAddr: 0x6E810, symSize: 0x480 }
  - { offset: 0xE996B, size: 0x8, addend: 0x0, symName: __ZNK14ChannelService21create_thread_channelERKN6Pubnub7MessageE.cold.1, symObjAddr: 0x1F3D0, symBinAddr: 0xDD1A0, symSize: 0x40 }
  - { offset: 0xE99D1, size: 0x8, addend: 0x0, symName: __ZNK14ChannelService18get_thread_channelERKN6Pubnub7MessageE, symObjAddr: 0x8400, symBinAddr: 0x6ECD0, symSize: 0x410 }
  - { offset: 0xE9D9B, size: 0x8, addend: 0x0, symName: __ZNK14ChannelService23confirm_creating_threadERKN6Pubnub13ThreadChannelE, symObjAddr: 0x8810, symBinAddr: 0x6F0E0, symSize: 0x380 }
  - { offset: 0xE9F71, size: 0x8, addend: 0x0, symName: __ZNK14ChannelService18has_thread_channelERKN6Pubnub7MessageE, symObjAddr: 0x8B90, symBinAddr: 0x6F460, symSize: 0xC0 }
  - { offset: 0xEA019, size: 0x8, addend: 0x0, symName: __ZNK14ChannelService21remove_thread_channelERKN6Pubnub7MessageE, symObjAddr: 0x8C50, symBinAddr: 0x6F520, symSize: 0x340 }
  - { offset: 0xEA352, size: 0x8, addend: 0x0, symName: __ZNK14ChannelService29pin_message_to_thread_channelERKN6Pubnub13ThreadMessageERKNS0_13ThreadChannelE, symObjAddr: 0x8FC0, symBinAddr: 0x6F860, symSize: 0x1C0 }
  - { offset: 0xEA445, size: 0x8, addend: 0x0, symName: __ZNK14ChannelService33unpin_message_from_thread_channelERKN6Pubnub13ThreadChannelE, symObjAddr: 0x9180, symBinAddr: 0x6FA20, symSize: 0x1B0 }
  - { offset: 0xEA598, size: 0x8, addend: 0x0, symName: __ZNK14ChannelService26get_thread_channel_historyERKN6Pubnub6StringES3_S3_iS3_, symObjAddr: 0x9330, symBinAddr: 0x6FBD0, symSize: 0x230 }
  - { offset: 0xEA8D7, size: 0x8, addend: 0x0, symName: __ZNSt3__16vectorIN6Pubnub13ThreadMessageENS_9allocatorIS2_EEE21__push_back_slow_pathIS2_EEPS2_OT_, symObjAddr: 0x13AC0, symBinAddr: 0x73B90, symSize: 0x260 }
  - { offset: 0xEAE8C, size: 0x8, addend: 0x0, symName: __ZNK14ChannelService26send_text_meta_from_paramsERK22SendTextParamsInternal, symObjAddr: 0x97C0, symBinAddr: 0x6FEB0, symSize: 0xA60 }
  - { offset: 0xEE095, size: 0x8, addend: 0x0, symName: __ZNK14ChannelService24update_channel_with_baseERKN6Pubnub7ChannelES3_, symObjAddr: 0xA5F0, symBinAddr: 0x70910, symSize: 0x4D0 }
  - { offset: 0xEE3C5, size: 0x8, addend: 0x0, symName: __ZNK14ChannelService27get_message_reports_historyERKN6Pubnub6StringES3_S3_i, symObjAddr: 0xAAC0, symBinAddr: 0x70DE0, symSize: 0x150 }
  - { offset: 0xEE4D7, size: 0x8, addend: 0x0, symName: __ZNK14ChannelService22stream_message_reportsERKN6Pubnub6StringENSt3__18functionIFvNS0_5EventEEEE, symObjAddr: 0xAC10, symBinAddr: 0x70F30, symSize: 0x2F0 }
  - { offset: 0xEE8C9, size: 0x8, addend: 0x0, symName: __ZNSt3__112__tuple_implINS_15__tuple_indicesIJLm0ELm1ELm2EEEEJNS_6vectorIN6Pubnub7ChannelENS_9allocatorIS5_EEEENS4_4PageEiEEC1B8ne180100IJLm0ELm1ELm2EEJS8_S9_iEJEJEJRS8_RS9_RiEEENS1_IJXspT_EEEENS_13__tuple_typesIJDpT0_EEENS1_IJXspT1_EEEENSG_IJDpT2_EEEDpOT3_.cold.1, symObjAddr: 0x1F410, symBinAddr: 0xDD1E0, symSize: 0x50 }
  - { offset: 0xEEBC1, size: 0x8, addend: 0x0, symName: __ZNSt3__16vectorIN6Pubnub8TextLinkENS_9allocatorIS2_EEE16__init_with_sizeB8ne180100IPS2_S7_EEvT_T0_m, symObjAddr: 0xB920, symBinAddr: 0x71750, symSize: 0x130 }
  - { offset: 0xEEE53, size: 0x8, addend: 0x0, symName: __ZNSt3__16__treeINS_12__value_typeIiN6Pubnub17ReferencedChannelEEENS_19__map_value_compareIiS4_NS_4lessIiEELb1EEENS_9allocatorIS4_EEE30__emplace_hint_unique_key_argsIiJRKNS_4pairIKiS3_EEEEENSD_INS_15__tree_iteratorIS4_PNS_11__tree_nodeIS4_PvEElEEbEENS_21__tree_const_iteratorIS4_SM_lEERKT_DpOT0_, symObjAddr: 0xB4E0, symBinAddr: 0x71500, symSize: 0xF0 }
  - { offset: 0xEF1AF, size: 0x8, addend: 0x0, symName: __ZNSt3__16__treeINS_12__value_typeIiN6Pubnub17ReferencedChannelEEENS_19__map_value_compareIiS4_NS_4lessIiEELb1EEENS_9allocatorIS4_EEE12__find_equalIiEERPNS_16__tree_node_baseIPvEENS_21__tree_const_iteratorIS4_PNS_11__tree_nodeIS4_SE_EElEERPNS_15__tree_end_nodeISG_EESH_RKT_, symObjAddr: 0xB5D0, symBinAddr: 0x715F0, symSize: 0x160 }
  - { offset: 0xEF5E9, size: 0x8, addend: 0x0, symName: __ZNSt3__128__exception_guard_exceptionsINS_6vectorIN6Pubnub8TextLinkENS_9allocatorIS3_EEE16__destroy_vectorEED1B8ne180100Ev, symObjAddr: 0xBA50, symBinAddr: 0x71880, symSize: 0x70 }
  - { offset: 0xF0367, size: 0x8, addend: 0x0, symName: __ZNSt3__114__split_bufferIN6Pubnub7ChannelERNS_9allocatorIS2_EEED1Ev, symObjAddr: 0xD1B0, symBinAddr: 0x71C70, symSize: 0x50 }
  - { offset: 0xF137F, size: 0x8, addend: 0x0, symName: __ZNSt3__16vectorIN6Pubnub13MessageActionENS_9allocatorIS2_EEEC2ERKS5_.cold.1, symObjAddr: 0x1F460, symBinAddr: 0xDD230, symSize: 0x70 }
  - { offset: 0xF1647, size: 0x8, addend: 0x0, symName: __ZNSt3__114__split_bufferIN6Pubnub7MessageERNS_9allocatorIS2_EEED1Ev, symObjAddr: 0xE3A0, symBinAddr: 0x71E90, symSize: 0x50 }
  - { offset: 0xF1917, size: 0x8, addend: 0x0, symName: '__ZNSt3__110__function6__funcIZNK14ChannelService9send_textERKN6Pubnub6StringERK10ChannelDAOS6_RK22SendTextParamsInternalE3$_0NS_9allocatorISD_EEFS4_vEED1Ev', symObjAddr: 0xE650, symBinAddr: 0x71EE0, symSize: 0x40 }
  - { offset: 0xF19FA, size: 0x8, addend: 0x0, symName: '__ZNSt3__110__function6__funcIZNK14ChannelService9send_textERKN6Pubnub6StringERK10ChannelDAOS6_RK22SendTextParamsInternalE3$_0NS_9allocatorISD_EEFS4_vEED0Ev', symObjAddr: 0xE690, symBinAddr: 0x71F20, symSize: 0x40 }
  - { offset: 0xF1B34, size: 0x8, addend: 0x0, symName: '__ZNKSt3__110__function6__funcIZNK14ChannelService9send_textERKN6Pubnub6StringERK10ChannelDAOS6_RK22SendTextParamsInternalE3$_0NS_9allocatorISD_EEFS4_vEE7__cloneEv', symObjAddr: 0xE6D0, symBinAddr: 0x71F60, symSize: 0xB0 }
  - { offset: 0xF1D06, size: 0x8, addend: 0x0, symName: '__ZNKSt3__110__function6__funcIZNK14ChannelService9send_textERKN6Pubnub6StringERK10ChannelDAOS6_RK22SendTextParamsInternalE3$_0NS_9allocatorISD_EEFS4_vEE7__cloneEPNS0_6__baseISG_EE', symObjAddr: 0xE780, symBinAddr: 0x72010, symSize: 0x90 }
  - { offset: 0xF1DB9, size: 0x8, addend: 0x0, symName: '__ZNSt3__110__function6__funcIZNK14ChannelService9send_textERKN6Pubnub6StringERK10ChannelDAOS6_RK22SendTextParamsInternalE3$_0NS_9allocatorISD_EEFS4_vEE7destroyEv', symObjAddr: 0xE810, symBinAddr: 0x720A0, symSize: 0x30 }
  - { offset: 0xF1E6D, size: 0x8, addend: 0x0, symName: '__ZNSt3__110__function6__funcIZNK14ChannelService9send_textERKN6Pubnub6StringERK10ChannelDAOS6_RK22SendTextParamsInternalE3$_0NS_9allocatorISD_EEFS4_vEE18destroy_deallocateEv', symObjAddr: 0xE840, symBinAddr: 0x720D0, symSize: 0x40 }
  - { offset: 0xF1F8F, size: 0x8, addend: 0x0, symName: '__ZNSt3__110__function6__funcIZNK14ChannelService9send_textERKN6Pubnub6StringERK10ChannelDAOS6_RK22SendTextParamsInternalE3$_0NS_9allocatorISD_EEFS4_vEEclEv', symObjAddr: 0xE880, symBinAddr: 0x72110, symSize: 0x120 }
  - { offset: 0xF212B, size: 0x8, addend: 0x0, symName: '__ZNKSt3__110__function6__funcIZNK14ChannelService9send_textERKN6Pubnub6StringERK10ChannelDAOS6_RK22SendTextParamsInternalE3$_0NS_9allocatorISD_EEFS4_vEE6targetERKSt9type_info', symObjAddr: 0xE9A0, symBinAddr: 0x72230, symSize: 0x20 }
  - { offset: 0xF2168, size: 0x8, addend: 0x0, symName: '__ZNKSt3__110__function6__funcIZNK14ChannelService9send_textERKN6Pubnub6StringERK10ChannelDAOS6_RK22SendTextParamsInternalE3$_0NS_9allocatorISD_EEFS4_vEE11target_typeEv', symObjAddr: 0xE9C0, symBinAddr: 0x72250, symSize: 0x10 }
  - { offset: 0xF219D, size: 0x8, addend: 0x0, symName: '__ZNSt3__110__function6__funcIZNK14ChannelService9send_textERKN6Pubnub6StringERK10ChannelDAOS6_RK22SendTextParamsInternalE3$_1NS_9allocatorISD_EEFvS4_EED1Ev', symObjAddr: 0xE9D0, symBinAddr: 0x72260, symSize: 0x40 }
  - { offset: 0xF2280, size: 0x8, addend: 0x0, symName: '__ZNSt3__110__function6__funcIZNK14ChannelService9send_textERKN6Pubnub6StringERK10ChannelDAOS6_RK22SendTextParamsInternalE3$_1NS_9allocatorISD_EEFvS4_EED0Ev', symObjAddr: 0xEA10, symBinAddr: 0x722A0, symSize: 0x50 }
  - { offset: 0xF23BA, size: 0x8, addend: 0x0, symName: '__ZNKSt3__110__function6__funcIZNK14ChannelService9send_textERKN6Pubnub6StringERK10ChannelDAOS6_RK22SendTextParamsInternalE3$_1NS_9allocatorISD_EEFvS4_EE7__cloneEv', symObjAddr: 0xEA60, symBinAddr: 0x722F0, symSize: 0xC0 }
  - { offset: 0xF25AE, size: 0x8, addend: 0x0, symName: '__ZNKSt3__110__function6__funcIZNK14ChannelService9send_textERKN6Pubnub6StringERK10ChannelDAOS6_RK22SendTextParamsInternalE3$_1NS_9allocatorISD_EEFvS4_EE7__cloneEPNS0_6__baseISG_EE', symObjAddr: 0xEB20, symBinAddr: 0x723B0, symSize: 0xA0 }
  - { offset: 0xF2690, size: 0x8, addend: 0x0, symName: '__ZNSt3__110__function6__funcIZNK14ChannelService9send_textERKN6Pubnub6StringERK10ChannelDAOS6_RK22SendTextParamsInternalE3$_1NS_9allocatorISD_EEFvS4_EE7destroyEv', symObjAddr: 0xEBC0, symBinAddr: 0x72450, symSize: 0x40 }
  - { offset: 0xF2744, size: 0x8, addend: 0x0, symName: '__ZNSt3__110__function6__funcIZNK14ChannelService9send_textERKN6Pubnub6StringERK10ChannelDAOS6_RK22SendTextParamsInternalE3$_1NS_9allocatorISD_EEFvS4_EE18destroy_deallocateEv', symObjAddr: 0xEC00, symBinAddr: 0x72490, symSize: 0x40 }
  - { offset: 0xF286C, size: 0x8, addend: 0x0, symName: '__ZNSt3__110__function6__funcIZNK14ChannelService9send_textERKN6Pubnub6StringERK10ChannelDAOS6_RK22SendTextParamsInternalE3$_1NS_9allocatorISD_EEFvS4_EEclEOS4_', symObjAddr: 0xEC40, symBinAddr: 0x724D0, symSize: 0x120 }
  - { offset: 0xF2996, size: 0x8, addend: 0x0, symName: '__ZNKSt3__110__function6__funcIZNK14ChannelService9send_textERKN6Pubnub6StringERK10ChannelDAOS6_RK22SendTextParamsInternalE3$_1NS_9allocatorISD_EEFvS4_EE6targetERKSt9type_info', symObjAddr: 0xED60, symBinAddr: 0x725F0, symSize: 0x20 }
  - { offset: 0xF29D3, size: 0x8, addend: 0x0, symName: '__ZNKSt3__110__function6__funcIZNK14ChannelService9send_textERKN6Pubnub6StringERK10ChannelDAOS6_RK22SendTextParamsInternalE3$_1NS_9allocatorISD_EEFvS4_EE11target_typeEv', symObjAddr: 0xED80, symBinAddr: 0x72610, symSize: 0x10 }
  - { offset: 0xF29E4, size: 0x8, addend: 0x0, symName: '__ZNSt3__110__function6__funcIZNK14ChannelService9send_textERKN6Pubnub6StringERK10ChannelDAOS6_RK22SendTextParamsInternalE3$_2NS_9allocatorISD_EEFvRSt9exceptionEED1Ev', symObjAddr: 0xED90, symBinAddr: 0x72620, symSize: 0x10 }
  - { offset: 0xF29F5, size: 0x8, addend: 0x0, symName: '__ZNSt3__110__function6__funcIZNK14ChannelService9send_textERKN6Pubnub6StringERK10ChannelDAOS6_RK22SendTextParamsInternalE3$_2NS_9allocatorISD_EEFvRSt9exceptionEED0Ev', symObjAddr: 0xEDA0, symBinAddr: 0x72630, symSize: 0x10 }
  - { offset: 0xF2A18, size: 0x8, addend: 0x0, symName: '__ZNKSt3__110__function6__funcIZNK14ChannelService9send_textERKN6Pubnub6StringERK10ChannelDAOS6_RK22SendTextParamsInternalE3$_2NS_9allocatorISD_EEFvRSt9exceptionEE7__cloneEv', symObjAddr: 0xEDB0, symBinAddr: 0x72640, symSize: 0x20 }
  - { offset: 0xF2AA1, size: 0x8, addend: 0x0, symName: '__ZNKSt3__110__function6__funcIZNK14ChannelService9send_textERKN6Pubnub6StringERK10ChannelDAOS6_RK22SendTextParamsInternalE3$_2NS_9allocatorISD_EEFvRSt9exceptionEE7__cloneEPNS0_6__baseISI_EE', symObjAddr: 0xEDD0, symBinAddr: 0x72660, symSize: 0x10 }
  - { offset: 0xF2ADE, size: 0x8, addend: 0x0, symName: '__ZNSt3__110__function6__funcIZNK14ChannelService9send_textERKN6Pubnub6StringERK10ChannelDAOS6_RK22SendTextParamsInternalE3$_2NS_9allocatorISD_EEFvRSt9exceptionEE7destroyEv', symObjAddr: 0xEDE0, symBinAddr: 0x72670, symSize: 0x10 }
  - { offset: 0xF2AF5, size: 0x8, addend: 0x0, symName: '__ZNSt3__110__function6__funcIZNK14ChannelService9send_textERKN6Pubnub6StringERK10ChannelDAOS6_RK22SendTextParamsInternalE3$_2NS_9allocatorISD_EEFvRSt9exceptionEE18destroy_deallocateEv', symObjAddr: 0xEDF0, symBinAddr: 0x72680, symSize: 0x10 }
  - { offset: 0xF2B81, size: 0x8, addend: 0x0, symName: '__ZNSt3__110__function6__funcIZNK14ChannelService9send_textERKN6Pubnub6StringERK10ChannelDAOS6_RK22SendTextParamsInternalE3$_2NS_9allocatorISD_EEFvRSt9exceptionEEclESH_', symObjAddr: 0xEE00, symBinAddr: 0x72690, symSize: 0x40 }
  - { offset: 0xF2C14, size: 0x8, addend: 0x0, symName: '__ZNKSt3__110__function6__funcIZNK14ChannelService9send_textERKN6Pubnub6StringERK10ChannelDAOS6_RK22SendTextParamsInternalE3$_2NS_9allocatorISD_EEFvRSt9exceptionEE6targetERKSt9type_info', symObjAddr: 0xEE40, symBinAddr: 0x726D0, symSize: 0x20 }
  - { offset: 0xF2C51, size: 0x8, addend: 0x0, symName: '__ZNKSt3__110__function6__funcIZNK14ChannelService9send_textERKN6Pubnub6StringERK10ChannelDAOS6_RK22SendTextParamsInternalE3$_2NS_9allocatorISD_EEFvRSt9exceptionEE11target_typeEv', symObjAddr: 0xEE60, symBinAddr: 0x726F0, symSize: 0x10 }
  - { offset: 0xF2C86, size: 0x8, addend: 0x0, symName: '__ZNSt3__110__function6__funcIZNK14ChannelService10get_typingERKN6Pubnub6StringER10ChannelDAONS_8functionIFvRKNS_6vectorIS4_NS_9allocatorIS4_EEEEEEEE3$_0NSB_ISI_EEFvNS3_5EventEEED1Ev', symObjAddr: 0xEE70, symBinAddr: 0x72700, symSize: 0x40 }
  - { offset: 0xF2D94, size: 0x8, addend: 0x0, symName: '__ZNSt3__110__function6__funcIZNK14ChannelService10get_typingERKN6Pubnub6StringER10ChannelDAONS_8functionIFvRKNS_6vectorIS4_NS_9allocatorIS4_EEEEEEEE3$_0NSB_ISI_EEFvNS3_5EventEEED0Ev', symObjAddr: 0xEEB0, symBinAddr: 0x72740, symSize: 0x50 }
  - { offset: 0xF2F20, size: 0x8, addend: 0x0, symName: '__ZNKSt3__110__function6__funcIZNK14ChannelService10get_typingERKN6Pubnub6StringER10ChannelDAONS_8functionIFvRKNS_6vectorIS4_NS_9allocatorIS4_EEEEEEEE3$_0NSB_ISI_EEFvNS3_5EventEEE7__cloneEv', symObjAddr: 0xEF00, symBinAddr: 0x72790, symSize: 0x80 }
  - { offset: 0xF3165, size: 0x8, addend: 0x0, symName: '__ZNKSt3__110__function6__funcIZNK14ChannelService10get_typingERKN6Pubnub6StringER10ChannelDAONS_8functionIFvRKNS_6vectorIS4_NS_9allocatorIS4_EEEEEEEE3$_0NSB_ISI_EEFvNS3_5EventEEE7__cloneEPNS0_6__baseISL_EE', symObjAddr: 0xEF80, symBinAddr: 0x72810, symSize: 0x70 }
  - { offset: 0xF328B, size: 0x8, addend: 0x0, symName: '__ZNSt3__110__function6__funcIZNK14ChannelService10get_typingERKN6Pubnub6StringER10ChannelDAONS_8functionIFvRKNS_6vectorIS4_NS_9allocatorIS4_EEEEEEEE3$_0NSB_ISI_EEFvNS3_5EventEEE7destroyEv', symObjAddr: 0xEFF0, symBinAddr: 0x72880, symSize: 0x40 }
  - { offset: 0xF336A, size: 0x8, addend: 0x0, symName: '__ZNSt3__110__function6__funcIZNK14ChannelService10get_typingERKN6Pubnub6StringER10ChannelDAONS_8functionIFvRKNS_6vectorIS4_NS_9allocatorIS4_EEEEEEEE3$_0NSB_ISI_EEFvNS3_5EventEEE18destroy_deallocateEv', symObjAddr: 0xF030, symBinAddr: 0x728C0, symSize: 0x40 }
  - { offset: 0xF34F6, size: 0x8, addend: 0x0, symName: '__ZNSt3__110__function6__funcIZNK14ChannelService10get_typingERKN6Pubnub6StringER10ChannelDAONS_8functionIFvRKNS_6vectorIS4_NS_9allocatorIS4_EEEEEEEE3$_0NSB_ISI_EEFvNS3_5EventEEEclEOSK_', symObjAddr: 0xF070, symBinAddr: 0x72900, symSize: 0x330 }
  - { offset: 0xF3885, size: 0x8, addend: 0x0, symName: '__ZNSt3__110__function6__funcIZNK14ChannelService10get_typingERKN6Pubnub6StringER10ChannelDAONS_8functionIFvRKNS_6vectorIS4_NS_9allocatorIS4_EEEEEEEE3$_0NSB_ISI_EEFvNS3_5EventEEEclEOSK_.cold.1', symObjAddr: 0x1F4D0, symBinAddr: 0xDD2A0, symSize: 0x44 }
  - { offset: 0xF39E3, size: 0x8, addend: 0x0, symName: '__ZNKSt3__110__function6__funcIZNK14ChannelService10get_typingERKN6Pubnub6StringER10ChannelDAONS_8functionIFvRKNS_6vectorIS4_NS_9allocatorIS4_EEEEEEEE3$_0NSB_ISI_EEFvNS3_5EventEEE6targetERKSt9type_info', symObjAddr: 0xF3A0, symBinAddr: 0x72C30, symSize: 0x20 }
  - { offset: 0xF3A20, size: 0x8, addend: 0x0, symName: '__ZNKSt3__110__function6__funcIZNK14ChannelService10get_typingERKN6Pubnub6StringER10ChannelDAONS_8functionIFvRKNS_6vectorIS4_NS_9allocatorIS4_EEEEEEEE3$_0NSB_ISI_EEFvNS3_5EventEEE11target_typeEv', symObjAddr: 0xF3C0, symBinAddr: 0x72C50, symSize: 0x10 }
  - { offset: 0xF3A6F, size: 0x8, addend: 0x0, symName: __ZNSt3__110__function6__funcINS_8functionIFvN6Pubnub5EventEEEENS_9allocatorIS6_EEFvRKS4_EED1Ev, symObjAddr: 0xF480, symBinAddr: 0x72C60, symSize: 0x50 }
  - { offset: 0xF3B29, size: 0x8, addend: 0x0, symName: __ZNSt3__110__function6__funcINS_8functionIFvN6Pubnub5EventEEEENS_9allocatorIS6_EEFvRKS4_EED0Ev, symObjAddr: 0xF4D0, symBinAddr: 0x72CB0, symSize: 0x50 }
  - { offset: 0xF3C7D, size: 0x8, addend: 0x0, symName: __ZNKSt3__110__function6__funcINS_8functionIFvN6Pubnub5EventEEEENS_9allocatorIS6_EEFvRKS4_EE7__cloneEv, symObjAddr: 0xF520, symBinAddr: 0x72D00, symSize: 0x80 }
  - { offset: 0xF3E5E, size: 0x8, addend: 0x0, symName: __ZNKSt3__110__function6__funcINS_8functionIFvN6Pubnub5EventEEEENS_9allocatorIS6_EEFvRKS4_EE7__cloneEPNS0_6__baseISB_EE, symObjAddr: 0xF5A0, symBinAddr: 0x72D80, symSize: 0x70 }
  - { offset: 0xF3F20, size: 0x8, addend: 0x0, symName: __ZNSt3__110__function6__funcINS_8functionIFvN6Pubnub5EventEEEENS_9allocatorIS6_EEFvRKS4_EE7destroyEv, symObjAddr: 0xF610, symBinAddr: 0x72DF0, symSize: 0x40 }
  - { offset: 0xF3FB3, size: 0x8, addend: 0x0, symName: __ZNSt3__110__function6__funcINS_8functionIFvN6Pubnub5EventEEEENS_9allocatorIS6_EEFvRKS4_EE18destroy_deallocateEv, symObjAddr: 0xF650, symBinAddr: 0x72E30, symSize: 0x40 }
  - { offset: 0xF40DD, size: 0x8, addend: 0x0, symName: __ZNSt3__110__function6__funcINS_8functionIFvN6Pubnub5EventEEEENS_9allocatorIS6_EEFvRKS4_EEclESA_, symObjAddr: 0xF690, symBinAddr: 0x72E70, symSize: 0x10 }
  - { offset: 0xF4126, size: 0x8, addend: 0x0, symName: __ZNSt3__18__invokeB8ne180100IRNS_8functionIFvN6Pubnub5EventEEEEJRKS3_EEEDTclclsr3stdE7declvalIT_EEspclsr3stdE7declvalIT0_EEEEOS9_DpOSA_, symObjAddr: 0xF6D0, symBinAddr: 0x72EB0, symSize: 0x100 }
  - { offset: 0xF41BC, size: 0x8, addend: 0x0, symName: __ZNKSt3__110__function6__funcINS_8functionIFvN6Pubnub5EventEEEENS_9allocatorIS6_EEFvRKS4_EE6targetERKSt9type_info, symObjAddr: 0xF6A0, symBinAddr: 0x72E80, symSize: 0x20 }
  - { offset: 0xF41F9, size: 0x8, addend: 0x0, symName: __ZNKSt3__110__function6__funcINS_8functionIFvN6Pubnub5EventEEEENS_9allocatorIS6_EEFvRKS4_EE11target_typeEv, symObjAddr: 0xF6C0, symBinAddr: 0x72EA0, symSize: 0x10 }
  - { offset: 0xF6073, size: 0x8, addend: 0x0, symName: '__ZNSt3__110__function6__funcIZNK14ChannelService20stream_read_receiptsERKN6Pubnub6StringERK10ChannelDAONS_8functionIFvNS_3mapIS4_NS_6vectorIS4_NS_9allocatorIS4_EEEENS3_14StringComparerENSD_INS_4pairIS5_SF_EEEEEEEEEE3$_1NSD_ISN_EEFvRKNS3_5EventEEED1Ev', symObjAddr: 0x13150, symBinAddr: 0x73220, symSize: 0x20 }
  - { offset: 0xF6115, size: 0x8, addend: 0x0, symName: '__ZNSt3__110__function6__funcIZNK14ChannelService20stream_read_receiptsERKN6Pubnub6StringERK10ChannelDAONS_8functionIFvNS_3mapIS4_NS_6vectorIS4_NS_9allocatorIS4_EEEENS3_14StringComparerENSD_INS_4pairIS5_SF_EEEEEEEEEE3$_1NSD_ISN_EEFvRKNS3_5EventEEED0Ev', symObjAddr: 0x13170, symBinAddr: 0x73240, symSize: 0x30 }
  - { offset: 0xF6202, size: 0x8, addend: 0x0, symName: '__ZNKSt3__110__function6__funcIZNK14ChannelService20stream_read_receiptsERKN6Pubnub6StringERK10ChannelDAONS_8functionIFvNS_3mapIS4_NS_6vectorIS4_NS_9allocatorIS4_EEEENS3_14StringComparerENSD_INS_4pairIS5_SF_EEEEEEEEEE3$_1NSD_ISN_EEFvRKNS3_5EventEEE7__cloneEv', symObjAddr: 0x131A0, symBinAddr: 0x73270, symSize: 0x50 }
  - { offset: 0xF63DB, size: 0x8, addend: 0x0, symName: '__ZNKSt3__110__function6__funcIZNK14ChannelService20stream_read_receiptsERKN6Pubnub6StringERK10ChannelDAONS_8functionIFvNS_3mapIS4_NS_6vectorIS4_NS_9allocatorIS4_EEEENS3_14StringComparerENSD_INS_4pairIS5_SF_EEEEEEEEEE3$_1NSD_ISN_EEFvRKNS3_5EventEEE7__cloneEPNS0_6__baseISS_EE', symObjAddr: 0x131F0, symBinAddr: 0x732C0, symSize: 0x20 }
  - { offset: 0xF6495, size: 0x8, addend: 0x0, symName: '__ZNSt3__110__function6__funcIZNK14ChannelService20stream_read_receiptsERKN6Pubnub6StringERK10ChannelDAONS_8functionIFvNS_3mapIS4_NS_6vectorIS4_NS_9allocatorIS4_EEEENS3_14StringComparerENSD_INS_4pairIS5_SF_EEEEEEEEEE3$_1NSD_ISN_EEFvRKNS3_5EventEEE7destroyEv', symObjAddr: 0x13210, symBinAddr: 0x732E0, symSize: 0x10 }
  - { offset: 0xF6508, size: 0x8, addend: 0x0, symName: '__ZNSt3__110__function6__funcIZNK14ChannelService20stream_read_receiptsERKN6Pubnub6StringERK10ChannelDAONS_8functionIFvNS_3mapIS4_NS_6vectorIS4_NS_9allocatorIS4_EEEENS3_14StringComparerENSD_INS_4pairIS5_SF_EEEEEEEEEE3$_1NSD_ISN_EEFvRKNS3_5EventEEE18destroy_deallocateEv', symObjAddr: 0x13220, symBinAddr: 0x732F0, symSize: 0x20 }
  - { offset: 0xF65F5, size: 0x8, addend: 0x0, symName: '__ZNSt3__110__function6__funcIZNK14ChannelService20stream_read_receiptsERKN6Pubnub6StringERK10ChannelDAONS_8functionIFvNS_3mapIS4_NS_6vectorIS4_NS_9allocatorIS4_EEEENS3_14StringComparerENSD_INS_4pairIS5_SF_EEEEEEEEEE3$_1NSD_ISN_EEFvRKNS3_5EventEEEclESR_', symObjAddr: 0x13240, symBinAddr: 0x73310, symSize: 0x690 }
  - { offset: 0xF7509, size: 0x8, addend: 0x0, symName: __ZNSt3__16__treeINS_12__value_typeIN6Pubnub6StringES3_EENS_19__map_value_compareIS3_S4_NS2_14StringComparerELb1EEENS_9allocatorIS4_EEE25__emplace_unique_key_argsIS3_JRKNS_21piecewise_construct_tENS_5tupleIJRKS3_EEENSF_IJEEEEEENS_4pairINS_15__tree_iteratorIS4_PNS_11__tree_nodeIS4_PvEElEEbEERKT_DpOT0_, symObjAddr: 0x139C0, symBinAddr: 0x73A90, symSize: 0x100 }
  - { offset: 0xF777F, size: 0x8, addend: 0x0, symName: '__ZNKSt3__110__function6__funcIZNK14ChannelService20stream_read_receiptsERKN6Pubnub6StringERK10ChannelDAONS_8functionIFvNS_3mapIS4_NS_6vectorIS4_NS_9allocatorIS4_EEEENS3_14StringComparerENSD_INS_4pairIS5_SF_EEEEEEEEEE3$_1NSD_ISN_EEFvRKNS3_5EventEEE6targetERKSt9type_info', symObjAddr: 0x138D0, symBinAddr: 0x739A0, symSize: 0x20 }
  - { offset: 0xF77BC, size: 0x8, addend: 0x0, symName: '__ZNKSt3__110__function6__funcIZNK14ChannelService20stream_read_receiptsERKN6Pubnub6StringERK10ChannelDAONS_8functionIFvNS_3mapIS4_NS_6vectorIS4_NS_9allocatorIS4_EEEENS3_14StringComparerENSD_INS_4pairIS5_SF_EEEEEEEEEE3$_1NSD_ISN_EEFvRKNS3_5EventEEE11target_typeEv', symObjAddr: 0x138F0, symBinAddr: 0x739C0, symSize: 0x10 }
  - { offset: 0xF78BE, size: 0x8, addend: 0x0, symName: __ZNSt3__114__split_bufferIN6Pubnub13ThreadMessageERNS_9allocatorIS2_EEED1Ev, symObjAddr: 0x13D20, symBinAddr: 0x73DF0, symSize: 0x50 }
  - { offset: 0x1024D0, size: 0x8, addend: 0x0, symName: __ZN11UserServiceC2ENSt3__110shared_ptrI5MutexI6PubNubEEENS0_8weak_ptrI11ChatServiceEEi, symObjAddr: 0x0, symBinAddr: 0x73F00, symSize: 0xD0 }
  - { offset: 0x102867, size: 0x8, addend: 0x0, symName: __ZN11UserServiceC1ENSt3__110shared_ptrI5MutexI6PubNubEEENS0_8weak_ptrI11ChatServiceEEi, symObjAddr: 0xD0, symBinAddr: 0x73FD0, symSize: 0xD0 }
  - { offset: 0x102C49, size: 0x8, addend: 0x0, symName: __ZNK11UserService16get_current_userEv, symObjAddr: 0x1A0, symBinAddr: 0x740A0, symSize: 0x90 }
  - { offset: 0x102D83, size: 0x8, addend: 0x0, symName: __ZNK11UserService8get_userERKN6Pubnub6StringE, symObjAddr: 0x230, symBinAddr: 0x74130, symSize: 0x540 }
  - { offset: 0x1038FD, size: 0x8, addend: 0x0, symName: __ZNK11UserService18create_user_objectENSt3__14pairIN6Pubnub6StringE7UserDAOEE, symObjAddr: 0xAA0, symBinAddr: 0x74970, symSize: 0x350 }
  - { offset: 0x10400F, size: 0x8, addend: 0x0, symName: __ZNK11UserService11create_userERKN6Pubnub6StringERK7UserDAOb, symObjAddr: 0x770, symBinAddr: 0x74670, symSize: 0x300 }
  - { offset: 0x10469D, size: 0x8, addend: 0x0, symName: __ZNK11UserService9get_usersERKN6Pubnub6StringES3_iRKNS0_4PageE, symObjAddr: 0xF10, symBinAddr: 0x74CC0, symSize: 0xAC0 }
  - { offset: 0x1058C6, size: 0x8, addend: 0x0, symName: __ZNSt3__14pairIN6Pubnub6StringE7UserDAOEC2B8ne180100IS2_10UserEntityLi0EEERKNS0_IT_T0_EE, symObjAddr: 0x56A0, symBinAddr: 0x778A0, symSize: 0xB0 }
  - { offset: 0x10592F, size: 0x8, addend: 0x0, symName: __ZNSt3__16vectorIN6Pubnub4UserENS_9allocatorIS2_EEE21__push_back_slow_pathIS2_EEPS2_OT_, symObjAddr: 0x5750, symBinAddr: 0x77950, symSize: 0x1D0 }
  - { offset: 0x105CAE, size: 0x8, addend: 0x0, symName: __ZNSt3__112__tuple_implINS_15__tuple_indicesIJLm0ELm1ELm2EEEEJNS_6vectorIN6Pubnub4UserENS_9allocatorIS5_EEEENS4_4PageEiEEC1B8ne180100IJLm0ELm1ELm2EEJS8_S9_iEJEJEJRS8_RS9_RiEEENS1_IJXspT_EEEENS_13__tuple_typesIJDpT0_EEENS1_IJXspT1_EEEENSG_IJDpT2_EEEDpOT3_, symObjAddr: 0x5500, symBinAddr: 0x77800, symSize: 0xA0 }
  - { offset: 0x106032, size: 0x8, addend: 0x0, symName: __ZNK11UserService11update_userERKN6Pubnub6StringERK7UserDAO, symObjAddr: 0x1B40, symBinAddr: 0x75780, symSize: 0x280 }
  - { offset: 0x1062A5, size: 0x8, addend: 0x0, symName: __ZNK11UserService11delete_userERKN6Pubnub6StringE, symObjAddr: 0x1DC0, symBinAddr: 0x75A00, symSize: 0xE0 }
  - { offset: 0x10643A, size: 0x8, addend: 0x0, symName: __ZNK11UserService14stream_updatesEN6Pubnub4UserENSt3__18functionIFvS1_EEE, symObjAddr: 0x1EA0, symBinAddr: 0x75AE0, symSize: 0x2E0 }
  - { offset: 0x106A05, size: 0x8, addend: 0x0, symName: __ZNK11UserService17stream_updates_onEN6Pubnub4UserERKNSt3__16vectorIS1_NS2_9allocatorIS1_EEEENS2_8functionIFvS6_EEE, symObjAddr: 0x2280, symBinAddr: 0x75DC0, symSize: 0x400 }
  - { offset: 0x1073B2, size: 0x8, addend: 0x0, symName: __ZNK11UserService21get_users_suggestionsEN6Pubnub6StringEi, symObjAddr: 0x2730, symBinAddr: 0x761C0, symSize: 0x4A0 }
  - { offset: 0x107B1B, size: 0x8, addend: 0x0, symName: __ZNK11UserService21update_user_with_baseERKN6Pubnub4UserES3_, symObjAddr: 0x2C90, symBinAddr: 0x76660, symSize: 0x660 }
  - { offset: 0x107F84, size: 0x8, addend: 0x0, symName: __ZNK11UserService6activeERK7UserDAO, symObjAddr: 0x3340, symBinAddr: 0x76CC0, symSize: 0x90 }
  - { offset: 0x10801A, size: 0x8, addend: 0x0, symName: __ZNK11UserService21last_active_timestampERK7UserDAO, symObjAddr: 0x33D0, symBinAddr: 0x76D50, symSize: 0x120 }
  - { offset: 0x10839D, size: 0x8, addend: 0x0, symName: __ZNK11UserService29store_user_activity_timestampEv, symObjAddr: 0x34F0, symBinAddr: 0x76E70, symSize: 0x4E0 }
  - { offset: 0x108CAC, size: 0x8, addend: 0x0, symName: __ZNK11UserService27run_save_timestamp_intervalE10UserEntity, symObjAddr: 0x39D0, symBinAddr: 0x77350, symSize: 0x320 }
  - { offset: 0x10922C, size: 0x8, addend: 0x0, symName: '__ZZNK11UserService29store_user_activity_timestampEvEN3$_0D1Ev', symObjAddr: 0x3CF0, symBinAddr: 0x77670, symSize: 0x60 }
  - { offset: 0x10931A, size: 0x8, addend: 0x0, symName: __ZNK11UserService23save_timestamp_functionE10UserEntity, symObjAddr: 0x3D50, symBinAddr: 0x776D0, symSize: 0x130 }
  - { offset: 0x10A150, size: 0x8, addend: 0x0, symName: __ZNSt3__112__tuple_implINS_15__tuple_indicesIJLm0ELm1ELm2EEEEJNS_6vectorIN6Pubnub4UserENS_9allocatorIS5_EEEENS4_4PageEiEEC1B8ne180100IJLm0ELm1ELm2EEJS8_S9_iEJEJEJRS8_RS9_RiEEENS1_IJXspT_EEEENS_13__tuple_typesIJDpT0_EEENS1_IJXspT1_EEEENSG_IJDpT2_EEEDpOT3_, symObjAddr: 0x5500, symBinAddr: 0x77800, symSize: 0xA0 }
  - { offset: 0x10AA14, size: 0x8, addend: 0x0, symName: __ZNSt3__112__tuple_implINS_15__tuple_indicesIJLm0ELm1ELm2EEEEJNS_6vectorIN6Pubnub4UserENS_9allocatorIS5_EEEENS4_4PageEiEEC1B8ne180100IJLm0ELm1ELm2EEJS8_S9_iEJEJEJRS8_RS9_RiEEENS1_IJXspT_EEEENS_13__tuple_typesIJDpT0_EEENS1_IJXspT1_EEEENSG_IJDpT2_EEEDpOT3_.cold.1, symObjAddr: 0x6520, symBinAddr: 0xDD2F0, symSize: 0x43 }
  - { offset: 0x10AC02, size: 0x8, addend: 0x0, symName: __ZNSt3__114__split_bufferIN6Pubnub4UserERNS_9allocatorIS2_EEED1Ev, symObjAddr: 0x5920, symBinAddr: 0x77B20, symSize: 0x50 }
  - { offset: 0x10AF36, size: 0x8, addend: 0x0, symName: '__ZNSt3__110__function6__funcIZNK11UserService29store_user_activity_timestampEvE3$_0NS_9allocatorIS3_EEFvvEED1Ev', symObjAddr: 0x5E00, symBinAddr: 0x77B70, symSize: 0x60 }
  - { offset: 0x10B021, size: 0x8, addend: 0x0, symName: '__ZNSt3__110__function6__funcIZNK11UserService29store_user_activity_timestampEvE3$_0NS_9allocatorIS3_EEFvvEED0Ev', symObjAddr: 0x5E60, symBinAddr: 0x77BD0, symSize: 0x70 }
  - { offset: 0x10B163, size: 0x8, addend: 0x0, symName: '__ZNKSt3__110__function6__funcIZNK11UserService29store_user_activity_timestampEvE3$_0NS_9allocatorIS3_EEFvvEE7__cloneEv', symObjAddr: 0x5ED0, symBinAddr: 0x77C40, symSize: 0x60 }
  - { offset: 0x10B37D, size: 0x8, addend: 0x0, symName: '__ZNKSt3__110__function6__funcIZNK11UserService29store_user_activity_timestampEvE3$_0NS_9allocatorIS3_EEFvvEE7__cloneEPNS0_6__baseIS6_EE', symObjAddr: 0x5F30, symBinAddr: 0x77CA0, symSize: 0x30 }
  - { offset: 0x10B478, size: 0x8, addend: 0x0, symName: '__ZNSt3__110__function6__funcIZNK11UserService29store_user_activity_timestampEvE3$_0NS_9allocatorIS3_EEFvvEE7destroyEv', symObjAddr: 0x5F60, symBinAddr: 0x77CD0, symSize: 0x60 }
  - { offset: 0x10B534, size: 0x8, addend: 0x0, symName: '__ZNSt3__110__function6__funcIZNK11UserService29store_user_activity_timestampEvE3$_0NS_9allocatorIS3_EEFvvEE18destroy_deallocateEv', symObjAddr: 0x5FC0, symBinAddr: 0x77D30, symSize: 0x60 }
  - { offset: 0x10B65E, size: 0x8, addend: 0x0, symName: '__ZNSt3__110__function6__funcIZNK11UserService29store_user_activity_timestampEvE3$_0NS_9allocatorIS3_EEFvvEEclEv', symObjAddr: 0x6020, symBinAddr: 0x77D90, symSize: 0xC0 }
  - { offset: 0x10B736, size: 0x8, addend: 0x0, symName: '__ZNKSt3__110__function6__funcIZNK11UserService29store_user_activity_timestampEvE3$_0NS_9allocatorIS3_EEFvvEE6targetERKSt9type_info', symObjAddr: 0x60E0, symBinAddr: 0x77E50, symSize: 0x20 }
  - { offset: 0x10B773, size: 0x8, addend: 0x0, symName: '__ZNKSt3__110__function6__funcIZNK11UserService29store_user_activity_timestampEvE3$_0NS_9allocatorIS3_EEFvvEE11target_typeEv', symObjAddr: 0x6100, symBinAddr: 0x77E70, symSize: 0x10 }
  - { offset: 0x10B7A8, size: 0x8, addend: 0x0, symName: '__ZNSt3__110__function6__funcIZNK11UserService27run_save_timestamp_intervalE10UserEntityE3$_0NS_9allocatorIS4_EEFvvEED1Ev', symObjAddr: 0x6210, symBinAddr: 0x77E80, symSize: 0x60 }
  - { offset: 0x10B893, size: 0x8, addend: 0x0, symName: '__ZNSt3__110__function6__funcIZNK11UserService27run_save_timestamp_intervalE10UserEntityE3$_0NS_9allocatorIS4_EEFvvEED0Ev', symObjAddr: 0x6270, symBinAddr: 0x77EE0, symSize: 0x70 }
  - { offset: 0x10B9D5, size: 0x8, addend: 0x0, symName: '__ZNKSt3__110__function6__funcIZNK11UserService27run_save_timestamp_intervalE10UserEntityE3$_0NS_9allocatorIS4_EEFvvEE7__cloneEv', symObjAddr: 0x62E0, symBinAddr: 0x77F50, symSize: 0x60 }
  - { offset: 0x10BBEF, size: 0x8, addend: 0x0, symName: '__ZNKSt3__110__function6__funcIZNK11UserService27run_save_timestamp_intervalE10UserEntityE3$_0NS_9allocatorIS4_EEFvvEE7__cloneEPNS0_6__baseIS7_EE', symObjAddr: 0x6340, symBinAddr: 0x77FB0, symSize: 0x30 }
  - { offset: 0x10BCEA, size: 0x8, addend: 0x0, symName: '__ZNSt3__110__function6__funcIZNK11UserService27run_save_timestamp_intervalE10UserEntityE3$_0NS_9allocatorIS4_EEFvvEE7destroyEv', symObjAddr: 0x6370, symBinAddr: 0x77FE0, symSize: 0x60 }
  - { offset: 0x10BDA6, size: 0x8, addend: 0x0, symName: '__ZNSt3__110__function6__funcIZNK11UserService27run_save_timestamp_intervalE10UserEntityE3$_0NS_9allocatorIS4_EEFvvEE18destroy_deallocateEv', symObjAddr: 0x63D0, symBinAddr: 0x78040, symSize: 0x60 }
  - { offset: 0x10BED0, size: 0x8, addend: 0x0, symName: '__ZNSt3__110__function6__funcIZNK11UserService27run_save_timestamp_intervalE10UserEntityE3$_0NS_9allocatorIS4_EEFvvEEclEv', symObjAddr: 0x6430, symBinAddr: 0x780A0, symSize: 0xC0 }
  - { offset: 0x10BF9C, size: 0x8, addend: 0x0, symName: '__ZNKSt3__110__function6__funcIZNK11UserService27run_save_timestamp_intervalE10UserEntityE3$_0NS_9allocatorIS4_EEFvvEE6targetERKSt9type_info', symObjAddr: 0x64F0, symBinAddr: 0x78160, symSize: 0x20 }
  - { offset: 0x10BFD9, size: 0x8, addend: 0x0, symName: '__ZNKSt3__110__function6__funcIZNK11UserService27run_save_timestamp_intervalE10UserEntityE3$_0NS_9allocatorIS4_EEFvvEE11target_typeEv', symObjAddr: 0x6510, symBinAddr: 0x78180, symSize: 0x10 }
  - { offset: 0x10C0B3, size: 0x8, addend: 0x0, symName: __ZN14MessageServiceC2ENSt3__110shared_ptrI5MutexI6PubNubEEENS0_8weak_ptrI11ChatServiceEE, symObjAddr: 0x0, symBinAddr: 0x78190, symSize: 0xC0 }
  - { offset: 0x10C2CA, size: 0x8, addend: 0x0, symName: __ZN14MessageServiceC1ENSt3__110shared_ptrI5MutexI6PubNubEEENS0_8weak_ptrI11ChatServiceEE, symObjAddr: 0xC0, symBinAddr: 0x78250, symSize: 0xC0 }
  - { offset: 0x10C5B6, size: 0x8, addend: 0x0, symName: __ZNK14MessageService9edit_textERKN6Pubnub6StringERK10MessageDAOS3_, symObjAddr: 0x180, symBinAddr: 0x78310, symSize: 0x4F0 }
  - { offset: 0x10CB0D, size: 0x8, addend: 0x0, symName: '__ZZNK14MessageService9edit_textERKN6Pubnub6StringERK10MessageDAOS3_EN3$_0D1Ev', symObjAddr: 0x740, symBinAddr: 0x78800, symSize: 0xB0 }
  - { offset: 0x10CC7C, size: 0x8, addend: 0x0, symName: __ZNK14MessageService21create_message_objectENSt3__14pairIN6Pubnub6StringE13MessageEntityEE, symObjAddr: 0x7F0, symBinAddr: 0x788B0, symSize: 0x300 }
  - { offset: 0x10D583, size: 0x8, addend: 0x0, symName: __ZNK14MessageService4textERK10MessageDAO, symObjAddr: 0xAF0, symBinAddr: 0x78BB0, symSize: 0x30 }
  - { offset: 0x10D59A, size: 0x8, addend: 0x0, symName: __ZNK14MessageService14delete_messageERK10MessageDAORKN6Pubnub6StringE, symObjAddr: 0xB20, symBinAddr: 0x78BE0, symSize: 0x4A0 }
  - { offset: 0x10DBB6, size: 0x8, addend: 0x0, symName: __ZNK14MessageService19delete_message_hardERKN6Pubnub7MessageE, symObjAddr: 0x1070, symBinAddr: 0x79080, symSize: 0x2D0 }
  - { offset: 0x10E118, size: 0x8, addend: 0x0, symName: __ZNK14MessageService7deletedERK10MessageDAO, symObjAddr: 0x1340, symBinAddr: 0x79350, symSize: 0x20 }
  - { offset: 0x10E19B, size: 0x8, addend: 0x0, symName: __ZNK14MessageService7restoreERK10MessageDAORKN6Pubnub6StringE, symObjAddr: 0x1360, symBinAddr: 0x79370, symSize: 0x550 }
  - { offset: 0x10E945, size: 0x8, addend: 0x0, symName: __ZNSt3__16vectorIN6Pubnub13MessageActionENS_9allocatorIS2_EEE18__assign_with_sizeB8ne180100IPS2_S7_EEvT_T0_l, symObjAddr: 0x7220, symBinAddr: 0x7D410, symSize: 0x2E0 }
  - { offset: 0x10EEF6, size: 0x8, addend: 0x0, symName: __ZNK14MessageService11get_messageERKN6Pubnub6StringES3_, symObjAddr: 0x1960, symBinAddr: 0x798C0, symSize: 0x250 }
  - { offset: 0x10F467, size: 0x8, addend: 0x0, symName: __ZNK14MessageService21get_message_reactionsERK10MessageDAO, symObjAddr: 0x1C60, symBinAddr: 0x79B10, symSize: 0x30 }
  - { offset: 0x10F4BA, size: 0x8, addend: 0x0, symName: __ZNK14MessageService15toggle_reactionERKN6Pubnub6StringERK10MessageDAOS3_, symObjAddr: 0x1C90, symBinAddr: 0x79B40, symSize: 0x690 }
  - { offset: 0x10FF3C, size: 0x8, addend: 0x0, symName: __ZNK14MessageService15forward_messageERKN6Pubnub7MessageERKNS0_6StringE, symObjAddr: 0x2320, symBinAddr: 0x7A1D0, symSize: 0x650 }
  - { offset: 0x113451, size: 0x8, addend: 0x0, symName: __ZNK14MessageService20create_message_draftERKN6Pubnub7ChannelERKNS0_18MessageDraftConfigE, symObjAddr: 0x3040, symBinAddr: 0x7A820, symSize: 0x190 }
  - { offset: 0x113849, size: 0x8, addend: 0x0, symName: __ZNK14MessageService14stream_updatesEN6Pubnub7MessageENSt3__18functionIFvS1_EEE, symObjAddr: 0x3250, symBinAddr: 0x7A9B0, symSize: 0x320 }
  - { offset: 0x113DF7, size: 0x8, addend: 0x0, symName: __ZNK14MessageService14stream_updatesEN6Pubnub13ThreadMessageENSt3__18functionIFvS1_EEE, symObjAddr: 0x3630, symBinAddr: 0x7ACD0, symSize: 0x360 }
  - { offset: 0x1143D6, size: 0x8, addend: 0x0, symName: __ZNK14MessageService17stream_updates_onEN6Pubnub7MessageERKNSt3__16vectorIS1_NS2_9allocatorIS1_EEEENS2_8functionIFvS6_EEE, symObjAddr: 0x3990, symBinAddr: 0x7B030, symSize: 0x480 }
  - { offset: 0x114E08, size: 0x8, addend: 0x0, symName: __ZNK14MessageService17stream_updates_onEN6Pubnub13ThreadMessageERKNSt3__16vectorIS1_NS2_9allocatorIS1_EEEENS2_8functionIFvS6_EEE, symObjAddr: 0x3EC0, symBinAddr: 0x7B4B0, symSize: 0x470 }
  - { offset: 0x115589, size: 0x8, addend: 0x0, symName: __ZNK14MessageService28create_thread_message_objectENSt3__14pairIN6Pubnub6StringE13MessageEntityEES3_, symObjAddr: 0x43B0, symBinAddr: 0x7B920, symSize: 0x110 }
  - { offset: 0x115635, size: 0x8, addend: 0x0, symName: __ZNK14MessageService28create_thread_message_objectERKN6Pubnub7MessageERKNS0_6StringE, symObjAddr: 0x44C0, symBinAddr: 0x7BA30, symSize: 0x90 }
  - { offset: 0x115730, size: 0x8, addend: 0x0, symName: __ZNK14MessageService22get_phrase_to_look_forERKN6Pubnub6StringE, symObjAddr: 0x4550, symBinAddr: 0x7BAC0, symSize: 0x550 }
  - { offset: 0x11687F, size: 0x8, addend: 0x0, symName: __ZNSt3__119basic_istringstreamIcNS_11char_traitsIcEENS_9allocatorIcEEEC1B8ne180100ERKNS_12basic_stringIcS2_S4_EEj, symObjAddr: 0x4AA0, symBinAddr: 0x7C010, symSize: 0x130 }
  - { offset: 0x1169BB, size: 0x8, addend: 0x0, symName: __ZNSt3__1rsB8ne180100IcNS_11char_traitsIcEENS_9allocatorIcEEEERNS_13basic_istreamIT_T0_EES9_RNS_12basic_stringIS6_S7_T1_EE, symObjAddr: 0x4BD0, symBinAddr: 0x7C140, symSize: 0x1F0 }
  - { offset: 0x116FA7, size: 0x8, addend: 0x0, symName: __ZNSt3__119basic_istringstreamIcNS_11char_traitsIcEENS_9allocatorIcEEED1Ev, symObjAddr: 0x4E30, symBinAddr: 0x7C330, symSize: 0x80 }
  - { offset: 0x1170DB, size: 0x8, addend: 0x0, symName: __ZNSt3__115basic_stringbufIcNS_11char_traitsIcEENS_9allocatorIcEEE15__init_buf_ptrsB8ne180100Ev, symObjAddr: 0x162D0, symBinAddr: 0x7D6F0, symSize: 0x120 }
  - { offset: 0x1172BB, size: 0x8, addend: 0x0, symName: __ZNK14MessageService30get_channel_phrase_to_look_forERKN6Pubnub6StringE, symObjAddr: 0x4EB0, symBinAddr: 0x7C3B0, symSize: 0x550 }
  - { offset: 0x118410, size: 0x8, addend: 0x0, symName: __ZNK14MessageService24update_message_with_baseERKN6Pubnub7MessageES3_, symObjAddr: 0x5400, symBinAddr: 0x7C900, symSize: 0x560 }
  - { offset: 0x118D42, size: 0x8, addend: 0x0, symName: __ZNK14MessageService31update_thread_message_with_baseERKN6Pubnub13ThreadMessageES3_, symObjAddr: 0x5960, symBinAddr: 0x7CE60, symSize: 0x5B0 }
  - { offset: 0x127A39, size: 0x8, addend: 0x0, symName: __ZN15PresenceServiceC2ENSt3__110shared_ptrI5MutexI6PubNubEEENS0_8weak_ptrI11ChatServiceEE, symObjAddr: 0x0, symBinAddr: 0x7D810, symSize: 0xC0 }
  - { offset: 0x127C50, size: 0x8, addend: 0x0, symName: __ZN15PresenceServiceC1ENSt3__110shared_ptrI5MutexI6PubNubEEENS0_8weak_ptrI11ChatServiceEE, symObjAddr: 0xC0, symBinAddr: 0x7D8D0, symSize: 0xC0 }
  - { offset: 0x127F30, size: 0x8, addend: 0x0, symName: __ZNK15PresenceService14who_is_presentERKN6Pubnub6StringE, symObjAddr: 0x180, symBinAddr: 0x7D990, symSize: 0x2D0 }
  - { offset: 0x12A29A, size: 0x8, addend: 0x0, symName: __ZNK15PresenceService13where_presentERKN6Pubnub6StringE, symObjAddr: 0x840, symBinAddr: 0x7DC60, symSize: 0x320 }
  - { offset: 0x12A7DC, size: 0x8, addend: 0x0, symName: __ZNK15PresenceService10is_presentERKN6Pubnub6StringES3_, symObjAddr: 0xB60, symBinAddr: 0x7DF80, symSize: 0x100 }
  - { offset: 0x12AB00, size: 0x8, addend: 0x0, symName: __ZNK15PresenceService15stream_presenceERKN6Pubnub6StringENSt3__18functionIFvRKNS4_6vectorIS1_NS4_9allocatorIS1_EEEEEEE, symObjAddr: 0xCD0, symBinAddr: 0x7E080, symSize: 0x500 }
  - { offset: 0x13819B, size: 0x8, addend: 0x0, symName: __ZNSt3__110__function6__funcINS_8functionIFvRKNS_6vectorIN6Pubnub6StringENS_9allocatorIS5_EEEEEEENS6_ISC_EEFvS8_EED1Ev, symObjAddr: 0xE3A0, symBinAddr: 0x7E580, symSize: 0x50 }
  - { offset: 0x138255, size: 0x8, addend: 0x0, symName: __ZNSt3__110__function6__funcINS_8functionIFvRKNS_6vectorIN6Pubnub6StringENS_9allocatorIS5_EEEEEEENS6_ISC_EEFvS8_EED0Ev, symObjAddr: 0xE3F0, symBinAddr: 0x7E5D0, symSize: 0x50 }
  - { offset: 0x1383A9, size: 0x8, addend: 0x0, symName: __ZNKSt3__110__function6__funcINS_8functionIFvRKNS_6vectorIN6Pubnub6StringENS_9allocatorIS5_EEEEEEENS6_ISC_EEFvS8_EE7__cloneEv, symObjAddr: 0xE440, symBinAddr: 0x7E620, symSize: 0x80 }
  - { offset: 0x13858A, size: 0x8, addend: 0x0, symName: __ZNKSt3__110__function6__funcINS_8functionIFvRKNS_6vectorIN6Pubnub6StringENS_9allocatorIS5_EEEEEEENS6_ISC_EEFvS8_EE7__cloneEPNS0_6__baseISE_EE, symObjAddr: 0xE4C0, symBinAddr: 0x7E6A0, symSize: 0x70 }
  - { offset: 0x13864C, size: 0x8, addend: 0x0, symName: __ZNSt3__110__function6__funcINS_8functionIFvRKNS_6vectorIN6Pubnub6StringENS_9allocatorIS5_EEEEEEENS6_ISC_EEFvS8_EE7destroyEv, symObjAddr: 0xE530, symBinAddr: 0x7E710, symSize: 0x40 }
  - { offset: 0x1386DF, size: 0x8, addend: 0x0, symName: __ZNSt3__110__function6__funcINS_8functionIFvRKNS_6vectorIN6Pubnub6StringENS_9allocatorIS5_EEEEEEENS6_ISC_EEFvS8_EE18destroy_deallocateEv, symObjAddr: 0xE570, symBinAddr: 0x7E750, symSize: 0x40 }
  - { offset: 0x13880F, size: 0x8, addend: 0x0, symName: __ZNSt3__110__function6__funcINS_8functionIFvRKNS_6vectorIN6Pubnub6StringENS_9allocatorIS5_EEEEEEENS6_ISC_EEFvS8_EEclEOS8_, symObjAddr: 0xE5B0, symBinAddr: 0x7E790, symSize: 0x20 }
  - { offset: 0x1388B1, size: 0x8, addend: 0x0, symName: __ZNKSt3__110__function6__funcINS_8functionIFvRKNS_6vectorIN6Pubnub6StringENS_9allocatorIS5_EEEEEEENS6_ISC_EEFvS8_EE6targetERKSt9type_info, symObjAddr: 0xE5D0, symBinAddr: 0x7E7B0, symSize: 0x20 }
  - { offset: 0x1388EE, size: 0x8, addend: 0x0, symName: __ZNKSt3__110__function6__funcINS_8functionIFvRKNS_6vectorIN6Pubnub6StringENS_9allocatorIS5_EEEEEEENS6_ISC_EEFvS8_EE11target_typeEv, symObjAddr: 0xE5F0, symBinAddr: 0x7E7D0, symSize: 0xD }
  - { offset: 0x1389C8, size: 0x8, addend: 0x0, symName: __ZN19RestrictionsServiceC2ENSt3__110shared_ptrI5MutexI6PubNubEEENS0_8weak_ptrI11ChatServiceEE, symObjAddr: 0x0, symBinAddr: 0x7E7E0, symSize: 0xC0 }
  - { offset: 0x138BDF, size: 0x8, addend: 0x0, symName: __ZN19RestrictionsServiceC1ENSt3__110shared_ptrI5MutexI6PubNubEEENS0_8weak_ptrI11ChatServiceEE, symObjAddr: 0xC0, symBinAddr: 0x7E8A0, symSize: 0xC0 }
  - { offset: 0x138EA1, size: 0x8, addend: 0x0, symName: __ZNK19RestrictionsService16set_restrictionsERKN6Pubnub6StringES3_RKNS0_11RestrictionE, symObjAddr: 0x180, symBinAddr: 0x7E960, symSize: 0xCB0 }
  - { offset: 0x139718, size: 0x8, addend: 0x0, symName: __ZNK19RestrictionsService21get_user_restrictionsERKN6Pubnub6StringES3_S3_iRKNS0_4PageE, symObjAddr: 0xF00, symBinAddr: 0x7F610, symSize: 0x880 }
  - { offset: 0x13AFBB, size: 0x8, addend: 0x0, symName: __ZN8nlohmann16json_abi_v3_11_3eqERKNS0_10basic_jsonINSt3__13mapENS2_6vectorENS2_12basic_stringIcNS2_11char_traitsIcEENS2_9allocatorIcEEEEbxydS8_NS0_14adl_serializerENS4_IhNS8_IhEEEEvEESG_, symObjAddr: 0x12930, symBinAddr: 0x834F0, symSize: 0x3E0 }
  - { offset: 0x13BBAB, size: 0x8, addend: 0x0, symName: '__ZZNK19RestrictionsService21get_user_restrictionsERKN6Pubnub6StringES3_S3_iRKNS0_4PageEEN3$_0D1Ev', symObjAddr: 0x1780, symBinAddr: 0x7FE90, symSize: 0x40 }
  - { offset: 0x13D103, size: 0x8, addend: 0x0, symName: __ZNK19RestrictionsService22get_users_restrictionsERKN6Pubnub6StringES3_iRKNS0_4PageE, symObjAddr: 0x1CB0, symBinAddr: 0x7FED0, symSize: 0xF90 }
  - { offset: 0x13E2FD, size: 0x8, addend: 0x0, symName: __ZNSt3__16vectorIN6Pubnub15UserRestrictionENS_9allocatorIS2_EEE21__push_back_slow_pathIRKS2_EEPS2_OT_, symObjAddr: 0x12D70, symBinAddr: 0x83930, symSize: 0x1B0 }
  - { offset: 0x13E59F, size: 0x8, addend: 0x0, symName: __ZNSt3__112__tuple_implINS_15__tuple_indicesIJLm0ELm1ELm2ELm3EEEEJNS_6vectorIN6Pubnub15UserRestrictionENS_9allocatorIS5_EEEENS4_4PageEiNS4_6StringEEEC2B8ne180100IJLm0ELm1ELm2ELm3EEJS8_S9_iSA_EJEJEJRS8_RS9_RiRSA_EEENS1_IJXspT_EEEENS_13__tuple_typesIJDpT0_EEENS1_IJXspT1_EEEENSI_IJDpT2_EEEDpOT3_, symObjAddr: 0x4F30, symBinAddr: 0x82FF0, symSize: 0xD0 }
  - { offset: 0x13E6E1, size: 0x8, addend: 0x0, symName: '__ZZNK19RestrictionsService22get_users_restrictionsERKN6Pubnub6StringES3_iRKNS0_4PageEEN3$_0D1Ev', symObjAddr: 0x2C40, symBinAddr: 0x80E60, symSize: 0x40 }
  - { offset: 0x13E773, size: 0x8, addend: 0x0, symName: __ZNSt3__16vectorIN6Pubnub15UserRestrictionENS_9allocatorIS2_EEED1B8ne180100Ev, symObjAddr: 0x2CA0, symBinAddr: 0x80EA0, symSize: 0x70 }
  - { offset: 0x13E8A0, size: 0x8, addend: 0x0, symName: __ZNK19RestrictionsService24get_channel_restrictionsERKN6Pubnub6StringES3_S3_iRKNS0_4PageE, symObjAddr: 0x2D10, symBinAddr: 0x80F10, symSize: 0x9F0 }
  - { offset: 0x13F972, size: 0x8, addend: 0x0, symName: __ZNK19RestrictionsService25get_channels_restrictionsERKN6Pubnub6StringES3_iRKNS0_4PageE, symObjAddr: 0x3740, symBinAddr: 0x81900, symSize: 0xEF0 }
  - { offset: 0x1408DB, size: 0x8, addend: 0x0, symName: __ZNSt3__16vectorIN6Pubnub18ChannelRestrictionENS_9allocatorIS2_EEE21__push_back_slow_pathIRKS2_EEPS2_OT_, symObjAddr: 0x130B0, symBinAddr: 0x83C70, symSize: 0x1B0 }
  - { offset: 0x140B7D, size: 0x8, addend: 0x0, symName: __ZNSt3__112__tuple_implINS_15__tuple_indicesIJLm0ELm1ELm2ELm3EEEEJNS_6vectorIN6Pubnub18ChannelRestrictionENS_9allocatorIS5_EEEENS4_4PageEiNS4_6StringEEEC2B8ne180100IJLm0ELm1ELm2ELm3EEJS8_S9_iSA_EJEJEJRS8_RS9_RiRSA_EEENS1_IJXspT_EEEENS_13__tuple_typesIJDpT0_EEENS1_IJXspT1_EEEENSI_IJDpT2_EEEDpOT3_, symObjAddr: 0x5320, symBinAddr: 0x832B0, symSize: 0xD0 }
  - { offset: 0x140D5A, size: 0x8, addend: 0x0, symName: __ZNK19RestrictionsService11report_userERKN6Pubnub6StringES3_, symObjAddr: 0x46E0, symBinAddr: 0x827F0, symSize: 0x1E0 }
  - { offset: 0x140E88, size: 0x8, addend: 0x0, symName: __ZNK19RestrictionsService14report_messageERKN6Pubnub7MessageERKNS0_6StringE, symObjAddr: 0x48C0, symBinAddr: 0x829D0, symSize: 0x620 }
  - { offset: 0x1415A0, size: 0x8, addend: 0x0, symName: __ZNSt3__16vectorIN6Pubnub15UserRestrictionENS_9allocatorIS2_EEE16__init_with_sizeB8ne180100IPS2_S7_EEvT_T0_m, symObjAddr: 0x5070, symBinAddr: 0x830C0, symSize: 0x160 }
  - { offset: 0x14190B, size: 0x8, addend: 0x0, symName: __ZNKSt3__16vectorIN6Pubnub15UserRestrictionENS_9allocatorIS2_EEE20__throw_length_errorB8ne180100Ev, symObjAddr: 0x5250, symBinAddr: 0x832A0, symSize: 0x10 }
  - { offset: 0x14192A, size: 0x8, addend: 0x0, symName: __ZNSt3__128__exception_guard_exceptionsINS_6vectorIN6Pubnub15UserRestrictionENS_9allocatorIS3_EEE16__destroy_vectorEED1B8ne180100Ev, symObjAddr: 0x51D0, symBinAddr: 0x83220, symSize: 0x80 }
  - { offset: 0x141A85, size: 0x8, addend: 0x0, symName: __ZNSt3__16vectorIN6Pubnub18ChannelRestrictionENS_9allocatorIS2_EEE16__init_with_sizeB8ne180100IPS2_S7_EEvT_T0_m, symObjAddr: 0x5460, symBinAddr: 0x83380, symSize: 0x160 }
  - { offset: 0x141DF0, size: 0x8, addend: 0x0, symName: __ZNKSt3__16vectorIN6Pubnub18ChannelRestrictionENS_9allocatorIS2_EEE20__throw_length_errorB8ne180100Ev, symObjAddr: 0x5640, symBinAddr: 0x834E0, symSize: 0x10 }
  - { offset: 0x14E9C0, size: 0x8, addend: 0x0, symName: __ZN8nlohmann16json_abi_v3_11_310basic_jsonINSt3__13mapENS2_6vectorENS2_12basic_stringIcNS2_11char_traitsIcEENS2_9allocatorIcEEEEbxydS8_NS0_14adl_serializerENS4_IhNS8_IhEEEEvE18compares_unorderedERKSE_SG_b, symObjAddr: 0x12D10, symBinAddr: 0x838D0, symSize: 0x60 }
  - { offset: 0x14EA93, size: 0x8, addend: 0x0, symName: __ZNSt3__16vectorIN6Pubnub15UserRestrictionENS_9allocatorIS2_EEE26__swap_out_circular_bufferERNS_14__split_bufferIS2_RS4_EE, symObjAddr: 0x12F20, symBinAddr: 0x83AE0, symSize: 0x120 }
  - { offset: 0x14EBF9, size: 0x8, addend: 0x0, symName: __ZNSt3__114__split_bufferIN6Pubnub15UserRestrictionERNS_9allocatorIS2_EEED1Ev, symObjAddr: 0x13040, symBinAddr: 0x83C00, symSize: 0x70 }
  - { offset: 0x14ED72, size: 0x8, addend: 0x0, symName: __ZNSt3__16vectorIN6Pubnub18ChannelRestrictionENS_9allocatorIS2_EEE26__swap_out_circular_bufferERNS_14__split_bufferIS2_RS4_EE, symObjAddr: 0x13260, symBinAddr: 0x83E20, symSize: 0x120 }
  - { offset: 0x14F963, size: 0x8, addend: 0x0, symName: __ZN17MembershipServiceC2ENSt3__110shared_ptrI5MutexI6PubNubEEENS0_8weak_ptrIK11ChatServiceEE, symObjAddr: 0x0, symBinAddr: 0x84000, symSize: 0x90 }
  - { offset: 0x14FB45, size: 0x8, addend: 0x0, symName: __ZN17MembershipServiceC1ENSt3__110shared_ptrI5MutexI6PubNubEEENS0_8weak_ptrIK11ChatServiceEE, symObjAddr: 0xD0, symBinAddr: 0x84090, symSize: 0x80 }
  - { offset: 0x14FCC4, size: 0x8, addend: 0x0, symName: __ZN17MembershipServiceC1ENSt3__110shared_ptrI5MutexI6PubNubEEENS0_8weak_ptrIK11ChatServiceEE.cold.1, symObjAddr: 0x1A700, symBinAddr: 0xDD340, symSize: 0x50 }
  - { offset: 0x14FFC9, size: 0x8, addend: 0x0, symName: __ZNK17MembershipService19get_channel_membersERKN6Pubnub6StringERK10ChannelDAOS3_S3_iRKNS0_4PageE, symObjAddr: 0x150, symBinAddr: 0x84110, symSize: 0x10A0 }
  - { offset: 0x1517D4, size: 0x8, addend: 0x0, symName: __ZNSt3__14pairIN6Pubnub6StringE7UserDAOEC2B8ne180100IRS2_R10UserEntityLi0EEEOT_OT0_, symObjAddr: 0x94D0, symBinAddr: 0x8C850, symSize: 0xB0 }
  - { offset: 0x151842, size: 0x8, addend: 0x0, symName: __ZNK17MembershipService24create_membership_objectERKN6Pubnub4UserERKNS0_7ChannelERK16MembershipEntity, symObjAddr: 0x1360, symBinAddr: 0x85200, symSize: 0x2B0 }
  - { offset: 0x151BDA, size: 0x8, addend: 0x0, symName: __ZNSt3__16vectorIN6Pubnub10MembershipENS_9allocatorIS2_EEE21__push_back_slow_pathIRKS2_EEPS2_OT_, symObjAddr: 0xA620, symBinAddr: 0x8CA80, symSize: 0x1F0 }
  - { offset: 0x151F59, size: 0x8, addend: 0x0, symName: __ZNSt3__112__tuple_implINS_15__tuple_indicesIJLm0ELm1ELm2ELm3EEEEJNS_6vectorIN6Pubnub10MembershipENS_9allocatorIS5_EEEENS4_4PageEiNS4_6StringEEEC2B8ne180100IJLm0ELm1ELm2ELm3EEJS8_S9_iSA_EJEJEJRS8_RS9_RiRSA_EEENS1_IJXspT_EEEENS_13__tuple_typesIJDpT0_EEENS1_IJXspT1_EEEENSI_IJDpT2_EEEDpOT3_, symObjAddr: 0x9760, symBinAddr: 0x8C900, symSize: 0xD0 }
  - { offset: 0x15209B, size: 0x8, addend: 0x0, symName: '__ZZNK17MembershipService19get_channel_membersERKN6Pubnub6StringERK10ChannelDAOS3_S3_iRKNS0_4PageEEN3$_0D1Ev', symObjAddr: 0x11F0, symBinAddr: 0x851B0, symSize: 0x50 }
  - { offset: 0x1522DF, size: 0x8, addend: 0x0, symName: __ZNSt3__110unique_ptrI13MembershipDAONS_14default_deleteIS1_EEED1B8ne180100Ev, symObjAddr: 0x90B0, symBinAddr: 0x8C4A0, symSize: 0x50 }
  - { offset: 0x1523E4, size: 0x8, addend: 0x0, symName: __ZNK17MembershipService20get_user_membershipsERKN6Pubnub6StringERK7UserDAOS3_S3_iRKNS0_4PageE, symObjAddr: 0x1740, symBinAddr: 0x854B0, symSize: 0x1030 }
  - { offset: 0x15353D, size: 0x8, addend: 0x0, symName: __ZNSt3__14pairIN6Pubnub6StringE7UserDAOEC2B8ne180100IRKS2_10UserEntityLi0EEEOT_OT0_, symObjAddr: 0x9BD0, symBinAddr: 0x8C9D0, symSize: 0xB0 }
  - { offset: 0x1535A6, size: 0x8, addend: 0x0, symName: '__ZZNK17MembershipService20get_user_membershipsERKN6Pubnub6StringERK7UserDAOS3_S3_iRKNS0_4PageEEN3$_0D1Ev', symObjAddr: 0x2770, symBinAddr: 0x864E0, symSize: 0x50 }
  - { offset: 0x1536AA, size: 0x8, addend: 0x0, symName: __ZNK17MembershipService17invite_to_channelERKN6Pubnub6StringERK10ChannelDAORKNS0_4UserE, symObjAddr: 0x27C0, symBinAddr: 0x86530, symSize: 0xCD0 }
  - { offset: 0x154702, size: 0x8, addend: 0x0, symName: __ZN8nlohmann16json_abi_v3_11_310basic_jsonINSt3__13mapENS2_6vectorENS2_12basic_stringIcNS2_11char_traitsIcEENS2_9allocatorIcEEEEbxydS8_NS0_14adl_serializerENS4_IhNS8_IhEEEEvEixEm, symObjAddr: 0x3870, symBinAddr: 0x87200, symSize: 0x170 }
  - { offset: 0x155C48, size: 0x8, addend: 0x0, symName: __ZNSt3__16vectorIN8nlohmann16json_abi_v3_11_310basic_jsonINS_3mapES0_NS_12basic_stringIcNS_11char_traitsIcEENS_9allocatorIcEEEEbxydS8_NS2_14adl_serializerENS0_IhNS8_IhEEEEvEENS8_ISE_EEE8__appendEm, symObjAddr: 0x165C0, symBinAddr: 0x8CCC0, symSize: 0x1A0 }
  - { offset: 0x157553, size: 0x8, addend: 0x0, symName: __ZNK17MembershipService26invite_multiple_to_channelERKN6Pubnub6StringERK10ChannelDAORKNSt3__16vectorINS0_4UserENS7_9allocatorIS9_EEEE, symObjAddr: 0x3D00, symBinAddr: 0x87370, symSize: 0x19F0 }
  - { offset: 0x15A876, size: 0x8, addend: 0x0, symName: '__ZZNK17MembershipService26invite_multiple_to_channelERKN6Pubnub6StringERK10ChannelDAORKNSt3__16vectorINS0_4UserENS7_9allocatorIS9_EEEEEN3$_0D1Ev', symObjAddr: 0x5760, symBinAddr: 0x88D60, symSize: 0x40 }
  - { offset: 0x15A919, size: 0x8, addend: 0x0, symName: __ZNK17MembershipService6updateERKN6Pubnub4UserERKNS0_7ChannelE13MembershipDAO, symObjAddr: 0x57A0, symBinAddr: 0x88DA0, symSize: 0x340 }
  - { offset: 0x15AC71, size: 0x8, addend: 0x0, symName: __ZNK17MembershipService27last_read_message_timetokenERKN6Pubnub10MembershipE, symObjAddr: 0x5B10, symBinAddr: 0x890E0, symSize: 0x1D0 }
  - { offset: 0x15AF0A, size: 0x8, addend: 0x0, symName: __ZNK17MembershipService31set_last_read_message_timetokenERKN6Pubnub10MembershipERKNS0_6StringE, symObjAddr: 0x5D10, symBinAddr: 0x892B0, symSize: 0x4B0 }
  - { offset: 0x15B281, size: 0x8, addend: 0x0, symName: __ZNK17MembershipService37get_unread_messages_count_one_channelERKN6Pubnub10MembershipE, symObjAddr: 0x61C0, symBinAddr: 0x89760, symSize: 0x360 }
  - { offset: 0x15BB00, size: 0x8, addend: 0x0, symName: __ZNSt3__16__treeINS_12__value_typeIN6Pubnub6StringEiEENS_19__map_value_compareIS3_S4_NS2_14StringComparerELb1EEENS_9allocatorIS4_EEE25__emplace_unique_key_argsIS3_JRKNS_21piecewise_construct_tENS_5tupleIJOS3_EEENSF_IJEEEEEENS_4pairINS_15__tree_iteratorIS4_PNS_11__tree_nodeIS4_PvEElEEbEERKT_DpOT0_, symObjAddr: 0x19F30, symBinAddr: 0x8CE60, symSize: 0x110 }
  - { offset: 0x15BEE0, size: 0x8, addend: 0x0, symName: __ZNK17MembershipService30get_all_unread_messages_countsERKN6Pubnub6StringES3_iRKNS0_4PageE, symObjAddr: 0x6520, symBinAddr: 0x89AC0, symSize: 0xAD0 }
  - { offset: 0x15D434, size: 0x8, addend: 0x0, symName: __ZNSt3__16vectorINS_5tupleIJN6Pubnub7ChannelENS2_10MembershipEiEEENS_9allocatorIS5_EEE21__push_back_slow_pathIRKS5_EEPS5_OT_, symObjAddr: 0x1A2B0, symBinAddr: 0x8CF70, symSize: 0x1A0 }
  - { offset: 0x15D78B, size: 0x8, addend: 0x0, symName: '__ZZNK17MembershipService30get_all_unread_messages_countsERKN6Pubnub6StringES3_iRKNS0_4PageEEN3$_0D1Ev', symObjAddr: 0x6FF0, symBinAddr: 0x8A590, symSize: 0xB0 }
  - { offset: 0x15DBA4, size: 0x8, addend: 0x0, symName: __ZNK17MembershipService25mark_all_messages_as_readERKN6Pubnub6StringES3_iRKNS0_4PageE, symObjAddr: 0x7120, symBinAddr: 0x8A640, symSize: 0x17F0 }
  - { offset: 0x15FC89, size: 0x8, addend: 0x0, symName: __ZNK17MembershipService14stream_updatesEN6Pubnub10MembershipENSt3__18functionIFvS1_EEE, symObjAddr: 0x8980, symBinAddr: 0x8BE30, symSize: 0x2A0 }
  - { offset: 0x1601EA, size: 0x8, addend: 0x0, symName: __ZNK17MembershipService17stream_updates_onEN6Pubnub10MembershipERKNSt3__16vectorIS1_NS2_9allocatorIS1_EEEENS2_8functionIFvS6_EEE, symObjAddr: 0x8CA0, symBinAddr: 0x8C0D0, symSize: 0x3D0 }
  - { offset: 0x160927, size: 0x8, addend: 0x0, symName: __ZNK17MembershipService27update_membership_with_baseERKN6Pubnub10MembershipES3_, symObjAddr: 0x9140, symBinAddr: 0x8C4F0, symSize: 0x360 }
  - { offset: 0x1615B7, size: 0x8, addend: 0x0, symName: __ZNSt3__114__split_bufferIN6Pubnub10MembershipERNS_9allocatorIS2_EEED1Ev, symObjAddr: 0xA810, symBinAddr: 0x8CC70, symSize: 0x50 }
  - { offset: 0x16E559, size: 0x8, addend: 0x0, symName: __ZNSt3__16vectorINS_5tupleIJN6Pubnub7ChannelENS2_10MembershipEiEEENS_9allocatorIS5_EEE26__swap_out_circular_bufferERNS_14__split_bufferIS5_RS7_EE, symObjAddr: 0x1A450, symBinAddr: 0x8D110, symSize: 0x120 }
  - { offset: 0x16E7B3, size: 0x8, addend: 0x0, symName: __ZNKSt3__16vectorINS_5tupleIJN6Pubnub7ChannelENS2_10MembershipEiEEENS_9allocatorIS5_EEE20__throw_length_errorB8ne180100Ev, symObjAddr: 0x1A5E0, symBinAddr: 0x8D230, symSize: 0x10 }
  - { offset: 0x16EC7A, size: 0x8, addend: 0x0, symName: __ZN15CallbackServiceC2E20EntityServicesBundleNSt3__18weak_ptrIK15PresenceServiceEENS1_10shared_ptrI5MutexI6PubNubEEENS1_6chrono8durationIxNS1_5ratioILl1ELl1000EEEEE, symObjAddr: 0x0, symBinAddr: 0x8D240, symSize: 0x4D0 }
  - { offset: 0x16FB77, size: 0x8, addend: 0x0, symName: __ZNSt3__14listINS_3anyENS_9allocatorIS1_EEED1Ev, symObjAddr: 0x4D0, symBinAddr: 0x8D710, symSize: 0x90 }
  - { offset: 0x1700B8, size: 0x8, addend: 0x0, symName: __ZN15CallbackServiceC1E20EntityServicesBundleNSt3__18weak_ptrIK15PresenceServiceEENS1_10shared_ptrI5MutexI6PubNubEEENS1_6chrono8durationIxNS1_5ratioILl1ELl1000EEEEE, symObjAddr: 0x5E0, symBinAddr: 0x8D7A0, symSize: 0x10 }
  - { offset: 0x170143, size: 0x8, addend: 0x0, symName: __ZN15CallbackService25register_message_callbackEN6Pubnub6StringENSt3__18functionIFvNS0_7MessageEEEE, symObjAddr: 0x5F0, symBinAddr: 0x8D7B0, symSize: 0x140 }
  - { offset: 0x1703AB, size: 0x8, addend: 0x0, symName: __ZNSt3__13mapIN6Pubnub6StringENS_8functionIFvNS1_7MessageEEEENS1_14StringComparerENS_9allocatorINS_4pairIKS2_S6_EEEEE16insert_or_assignB8ne180100IRS6_EENS9_INS_14__map_iteratorINS_15__tree_iteratorINS_12__value_typeIS2_S6_EEPNS_11__tree_nodeISJ_PvEElEEEEbEERSA_OT_, symObjAddr: 0x10000, symBinAddr: 0x9AE20, symSize: 0x160 }
  - { offset: 0x170610, size: 0x8, addend: 0x0, symName: __ZN15CallbackService23remove_message_callbackEN6Pubnub6StringE, symObjAddr: 0x730, symBinAddr: 0x8D8F0, symSize: 0x90 }
  - { offset: 0x17075E, size: 0x8, addend: 0x0, symName: __ZNSt3__16__treeINS_12__value_typeIN6Pubnub6StringENS_8functionIFvNS2_7MessageEEEEEENS_19__map_value_compareIS3_S8_NS2_14StringComparerELb1EEENS_9allocatorIS8_EEE14__erase_uniqueIS3_EEmRKT_, symObjAddr: 0x10830, symBinAddr: 0x9B1D0, symSize: 0x110 }
  - { offset: 0x170A39, size: 0x8, addend: 0x0, symName: __ZN15CallbackService39register_thread_message_update_callbackEN6Pubnub6StringENSt3__18functionIFvNS0_13ThreadMessageEEEE, symObjAddr: 0x7C0, symBinAddr: 0x8D980, symSize: 0x140 }
  - { offset: 0x170CA1, size: 0x8, addend: 0x0, symName: __ZNSt3__13mapIN6Pubnub6StringENS_8functionIFvNS1_13ThreadMessageEEEENS1_14StringComparerENS_9allocatorINS_4pairIKS2_S6_EEEEE16insert_or_assignB8ne180100IRS6_EENS9_INS_14__map_iteratorINS_15__tree_iteratorINS_12__value_typeIS2_S6_EEPNS_11__tree_nodeISJ_PvEElEEEEbEERSA_OT_, symObjAddr: 0x10CF0, symBinAddr: 0x9B2E0, symSize: 0x160 }
  - { offset: 0x170F06, size: 0x8, addend: 0x0, symName: __ZN15CallbackService37remove_thread_message_update_callbackEN6Pubnub6StringE, symObjAddr: 0x900, symBinAddr: 0x8DAC0, symSize: 0x90 }
  - { offset: 0x17118B, size: 0x8, addend: 0x0, symName: __ZN15CallbackService32register_message_update_callbackEN6Pubnub6StringENSt3__18functionIFvNS0_7MessageEEEE, symObjAddr: 0x990, symBinAddr: 0x8DB50, symSize: 0x140 }
  - { offset: 0x1713F3, size: 0x8, addend: 0x0, symName: __ZN15CallbackService30remove_message_update_callbackEN6Pubnub6StringE, symObjAddr: 0xAD0, symBinAddr: 0x8DC90, symSize: 0x90 }
  - { offset: 0x171595, size: 0x8, addend: 0x0, symName: __ZN15CallbackService25register_channel_callbackEN6Pubnub6StringENSt3__18functionIFvNS0_7ChannelEEEE, symObjAddr: 0xB60, symBinAddr: 0x8DD20, symSize: 0x140 }
  - { offset: 0x1717FD, size: 0x8, addend: 0x0, symName: __ZNSt3__13mapIN6Pubnub6StringENS_8functionIFvNS1_7ChannelEEEENS1_14StringComparerENS_9allocatorINS_4pairIKS2_S6_EEEEE16insert_or_assignB8ne180100IRS6_EENS9_INS_14__map_iteratorINS_15__tree_iteratorINS_12__value_typeIS2_S6_EEPNS_11__tree_nodeISJ_PvEElEEEEbEERSA_OT_, symObjAddr: 0x11420, symBinAddr: 0x9B580, symSize: 0x160 }
  - { offset: 0x171A62, size: 0x8, addend: 0x0, symName: __ZN15CallbackService23remove_channel_callbackEN6Pubnub6StringE, symObjAddr: 0xCA0, symBinAddr: 0x8DE60, symSize: 0x90 }
  - { offset: 0x171DB3, size: 0x8, addend: 0x0, symName: __ZN15CallbackService23register_event_callbackEN6Pubnub6StringENS0_22pubnub_chat_event_typeENSt3__18functionIFvNS0_5EventEEEE, symObjAddr: 0xD30, symBinAddr: 0x8DEF0, symSize: 0x230 }
  - { offset: 0x172231, size: 0x8, addend: 0x0, symName: __ZNSt3__13mapIN6Pubnub6StringENS_5tupleIJNS1_22pubnub_chat_event_typeENS_8functionIFvNS1_5EventEEEEEEENS1_14StringComparerENS_9allocatorINS_4pairIKS2_S9_EEEEE16insert_or_assignB8ne180100IRS9_EENSC_INS_14__map_iteratorINS_15__tree_iteratorINS_12__value_typeIS2_S9_EEPNS_11__tree_nodeISM_PvEElEEEEbEERSD_OT_, symObjAddr: 0x11B50, symBinAddr: 0x9B820, symSize: 0x170 }
  - { offset: 0x1724AF, size: 0x8, addend: 0x0, symName: __ZN15CallbackService21remove_event_callbackEN6Pubnub6StringENS0_22pubnub_chat_event_typeE, symObjAddr: 0xF60, symBinAddr: 0x8E120, symSize: 0x90 }
  - { offset: 0x1725FD, size: 0x8, addend: 0x0, symName: __ZNSt3__16__treeINS_12__value_typeIN6Pubnub6StringENS_5tupleIJNS2_22pubnub_chat_event_typeENS_8functionIFvNS2_5EventEEEEEEEEENS_19__map_value_compareIS3_SB_NS2_14StringComparerELb1EEENS_9allocatorISB_EEE14__erase_uniqueIS3_EEmRKT_, symObjAddr: 0x12180, symBinAddr: 0x9BBE0, symSize: 0x110 }
  - { offset: 0x172946, size: 0x8, addend: 0x0, symName: __ZN15CallbackService22register_user_callbackEN6Pubnub6StringENSt3__18functionIFvNS0_4UserEEEE, symObjAddr: 0xFF0, symBinAddr: 0x8E1B0, symSize: 0x140 }
  - { offset: 0x172BAE, size: 0x8, addend: 0x0, symName: __ZNSt3__13mapIN6Pubnub6StringENS_8functionIFvNS1_4UserEEEENS1_14StringComparerENS_9allocatorINS_4pairIKS2_S6_EEEEE16insert_or_assignB8ne180100IRS6_EENS9_INS_14__map_iteratorINS_15__tree_iteratorINS_12__value_typeIS2_S6_EEPNS_11__tree_nodeISJ_PvEElEEEEbEERSA_OT_, symObjAddr: 0x12290, symBinAddr: 0x9BCF0, symSize: 0x160 }
  - { offset: 0x172E13, size: 0x8, addend: 0x0, symName: __ZN15CallbackService20remove_user_callbackEN6Pubnub6StringE, symObjAddr: 0x1130, symBinAddr: 0x8E2F0, symSize: 0x90 }
  - { offset: 0x1730EC, size: 0x8, addend: 0x0, symName: __ZN15CallbackService34register_channel_presence_callbackEN6Pubnub6StringENSt3__18functionIFvNS2_6vectorIS1_NS2_9allocatorIS1_EEEEEEE, symObjAddr: 0x11C0, symBinAddr: 0x8E380, symSize: 0x140 }
  - { offset: 0x173354, size: 0x8, addend: 0x0, symName: __ZNSt3__13mapIN6Pubnub6StringENS_8functionIFvNS_6vectorIS2_NS_9allocatorIS2_EEEEEEENS1_14StringComparerENS5_INS_4pairIKS2_S9_EEEEE16insert_or_assignB8ne180100IRS9_EENSB_INS_14__map_iteratorINS_15__tree_iteratorINS_12__value_typeIS2_S9_EEPNS_11__tree_nodeISL_PvEElEEEEbEERSC_OT_, symObjAddr: 0x129C0, symBinAddr: 0x9BF90, symSize: 0x160 }
  - { offset: 0x1735B9, size: 0x8, addend: 0x0, symName: __ZN15CallbackService32remove_channel_presence_callbackEN6Pubnub6StringE, symObjAddr: 0x1300, symBinAddr: 0x8E4C0, symSize: 0x90 }
  - { offset: 0x173910, size: 0x8, addend: 0x0, symName: __ZN15CallbackService28register_membership_callbackEN6Pubnub6StringES1_NSt3__18functionIFvNS0_10MembershipEEEE, symObjAddr: 0x1390, symBinAddr: 0x8E550, symSize: 0x230 }
  - { offset: 0x173D03, size: 0x8, addend: 0x0, symName: __ZNSt3__13mapIN6Pubnub6StringENS_5tupleIJS2_NS_8functionIFvNS1_10MembershipEEEEEEENS1_14StringComparerENS_9allocatorINS_4pairIKS2_S8_EEEEE16insert_or_assignB8ne180100IRS8_EENSB_INS_14__map_iteratorINS_15__tree_iteratorINS_12__value_typeIS2_S8_EEPNS_11__tree_nodeISL_PvEElEEEEbEERSC_OT_, symObjAddr: 0x130F0, symBinAddr: 0x9C230, symSize: 0x1D0 }
  - { offset: 0x173FD0, size: 0x8, addend: 0x0, symName: __ZNSt3__15tupleIJN6Pubnub6StringENS_8functionIFvNS1_10MembershipEEEEEED1Ev, symObjAddr: 0x15C0, symBinAddr: 0x8E780, symSize: 0x40 }
  - { offset: 0x1740FD, size: 0x8, addend: 0x0, symName: __ZN15CallbackService26remove_membership_callbackEN6Pubnub6StringE, symObjAddr: 0x1640, symBinAddr: 0x8E7C0, symSize: 0x90 }
  - { offset: 0x17424B, size: 0x8, addend: 0x0, symName: __ZNSt3__16__treeINS_12__value_typeIN6Pubnub6StringENS_5tupleIJS3_NS_8functionIFvNS2_10MembershipEEEEEEEEENS_19__map_value_compareIS3_SA_NS2_14StringComparerELb1EEENS_9allocatorISA_EEE14__erase_uniqueIS3_EEmRKT_, symObjAddr: 0x137C0, symBinAddr: 0x9C690, symSize: 0x120 }
  - { offset: 0x174553, size: 0x8, addend: 0x0, symName: __ZN15CallbackService18broadcast_messagesENSt3__16vectorI17pubnub_v2_messageNS0_9allocatorIS2_EEEE, symObjAddr: 0x16D0, symBinAddr: 0x8E850, symSize: 0xF0 }
  - { offset: 0x1745C7, size: 0x8, addend: 0x0, symName: __ZN15CallbackService32broadcast_callbacks_from_messageE17pubnub_v2_message, symObjAddr: 0x17C0, symBinAddr: 0x8E940, symSize: 0x1EF0 }
  - { offset: 0x1768AD, size: 0x8, addend: 0x0, symName: __ZN10RepositoryIN6Pubnub6StringENSt3__18functionIFvNS0_7MessageEEEENS0_14StringComparerEE3getES1_, symObjAddr: 0x3850, symBinAddr: 0x909D0, symSize: 0x290 }
  - { offset: 0x17706D, size: 0x8, addend: 0x0, symName: __ZN10RepositoryIN6Pubnub6StringENSt3__18functionIFvNS0_7ChannelEEEENS0_14StringComparerEE3getES1_, symObjAddr: 0x3B20, symBinAddr: 0x90C60, symSize: 0x290 }
  - { offset: 0x177779, size: 0x8, addend: 0x0, symName: __ZN10RepositoryIN6Pubnub6StringENSt3__18functionIFvNS0_4UserEEEENS0_14StringComparerEE3getES1_, symObjAddr: 0x3E40, symBinAddr: 0x90EF0, symSize: 0x290 }
  - { offset: 0x177EB9, size: 0x8, addend: 0x0, symName: __ZN10RepositoryIN6Pubnub6StringENSt3__15tupleIJNS0_22pubnub_chat_event_typeENS2_8functionIFvNS0_5EventEEEEEEENS0_14StringComparerEE3getES1_, symObjAddr: 0x41D0, symBinAddr: 0x91180, symSize: 0x290 }
  - { offset: 0x178607, size: 0x8, addend: 0x0, symName: __ZNSt3__110__function12__value_funcIFvN6Pubnub5EventEEE4swapB8ne180100ERS5_, symObjAddr: 0x11CC0, symBinAddr: 0x9B990, symSize: 0x140 }
  - { offset: 0x1786A3, size: 0x8, addend: 0x0, symName: __ZN10RepositoryIN6Pubnub6StringENSt3__18functionIFvNS2_6vectorIS1_NS2_9allocatorIS1_EEEEEEENS0_14StringComparerEE3getES1_, symObjAddr: 0x44A0, symBinAddr: 0x91410, symSize: 0x290 }
  - { offset: 0x178DBF, size: 0x8, addend: 0x0, symName: __ZN10RepositoryIN6Pubnub6StringENSt3__18functionIFvNS0_13ThreadMessageEEEENS0_14StringComparerEE3getES1_, symObjAddr: 0x47E0, symBinAddr: 0x916A0, symSize: 0x290 }
  - { offset: 0x1794C6, size: 0x8, addend: 0x0, symName: __ZN10RepositoryIN6Pubnub6StringENSt3__15tupleIJS1_NS2_8functionIFvNS0_10MembershipEEEEEEENS0_14StringComparerEE3getES1_, symObjAddr: 0x4A70, symBinAddr: 0x91930, symSize: 0x260 }
  - { offset: 0x179B18, size: 0x8, addend: 0x0, symName: __ZNSt3__110__function12__value_funcIFvN6Pubnub10MembershipEEE4swapB8ne180100ERS5_, symObjAddr: 0x132C0, symBinAddr: 0x9C400, symSize: 0x140 }
  - { offset: 0x179CE6, size: 0x8, addend: 0x0, symName: __ZNSt3__18optionalINS_5tupleIJN6Pubnub6StringENS_8functionIFvNS2_10MembershipEEEEEEEED1Ev, symObjAddr: 0x4D40, symBinAddr: 0x91B90, symSize: 0x50 }
  - { offset: 0x179FDC, size: 0x8, addend: 0x0, symName: __ZN15CallbackService17resolve_callbacksEv, symObjAddr: 0x36B0, symBinAddr: 0x90830, symSize: 0x190 }
  - { offset: 0x17A55E, size: 0x8, addend: 0x0, symName: __ZNKSt3__16vectorI17pubnub_v2_messageNS_9allocatorIS1_EEE20__throw_length_errorB8ne180100Ev, symObjAddr: 0x138E0, symBinAddr: 0x9C7B0, symSize: 0x10 }
  - { offset: 0x17A573, size: 0x8, addend: 0x0, symName: __ZNSt3__16__treeINS_12__value_typeIN6Pubnub6StringENS_8functionIFvNS2_7MessageEEEEEENS_19__map_value_compareIS3_S8_NS2_14StringComparerELb1EEENS_9allocatorIS8_EEE30__emplace_hint_unique_key_argsIS3_JRKNS_4pairIKS3_S7_EEEEENSG_INS_15__tree_iteratorIS8_PNS_11__tree_nodeIS8_PvEElEEbEENS_21__tree_const_iteratorIS8_SP_lEERKT_DpOT0_, symObjAddr: 0x138F0, symBinAddr: 0x9C7C0, symSize: 0x100 }
  - { offset: 0x17A57D, size: 0x8, addend: 0x0, symName: __ZN15CallbackService14resolve_timersENSt3__16chrono8durationIxNS0_5ratioILl1ELl1000EEEEE, symObjAddr: 0x3840, symBinAddr: 0x909C0, symSize: 0x10 }
  - { offset: 0x17A6F6, size: 0x8, addend: 0x0, symName: __ZNSt3__16__treeINS_12__value_typeIN6Pubnub6StringENS_8functionIFvNS2_7MessageEEEEEENS_19__map_value_compareIS3_S8_NS2_14StringComparerELb1EEENS_9allocatorIS8_EEE30__emplace_hint_unique_key_argsIS3_JRKNS_4pairIKS3_S7_EEEEENSG_INS_15__tree_iteratorIS8_PNS_11__tree_nodeIS8_PvEElEEbEENS_21__tree_const_iteratorIS8_SP_lEERKT_DpOT0_, symObjAddr: 0x138F0, symBinAddr: 0x9C7C0, symSize: 0x100 }
  - { offset: 0x17B0F8, size: 0x8, addend: 0x0, symName: __ZNSt3__16__treeINS_12__value_typeIN6Pubnub6StringENS_5tupleIJNS2_22pubnub_chat_event_typeENS_8functionIFvNS2_5EventEEEEEEEEENS_19__map_value_compareIS3_SB_NS2_14StringComparerELb1EEENS_9allocatorISB_EEE30__emplace_hint_unique_key_argsIS3_JRKNS_4pairIKS3_SA_EEEEENSJ_INS_15__tree_iteratorISB_PNS_11__tree_nodeISB_PvEElEEbEENS_21__tree_const_iteratorISB_SS_lEERKT_DpOT0_, symObjAddr: 0x13C70, symBinAddr: 0x9C8C0, symSize: 0x110 }
  - { offset: 0x17BB44, size: 0x8, addend: 0x0, symName: __ZNSt3__13mapIN6Pubnub6StringENS_5tupleIJS2_NS_8functionIFvNS1_10MembershipEEEEEEENS1_14StringComparerENS_9allocatorINS_4pairIKS2_S8_EEEEE6insertB8ne180100INS_20__map_const_iteratorINS_21__tree_const_iteratorINS_12__value_typeIS2_S8_EEPNS_11__tree_nodeISK_PvEElEEEEEEvT_SR_, symObjAddr: 0x13F80, symBinAddr: 0x9C9D0, symSize: 0x110 }
  - { offset: 0x17BE37, size: 0x8, addend: 0x0, symName: __ZN15CallbackService21to_c_message_callbackENSt3__18weak_ptrIK11ChatServiceEENS0_8functionIFvN6Pubnub7MessageEEEE, symObjAddr: 0x4D90, symBinAddr: 0x91BE0, symSize: 0x1D0 }
  - { offset: 0x17C2AE, size: 0x8, addend: 0x0, symName: __ZZN15CallbackService21to_c_message_callbackENSt3__18weak_ptrIK11ChatServiceEENS0_8functionIFvN6Pubnub7MessageEEEEEN11CallbackCtxD1Ev, symObjAddr: 0x4F60, symBinAddr: 0x91DB0, symSize: 0x60 }
  - { offset: 0x17C3E1, size: 0x8, addend: 0x0, symName: __ZN15CallbackService28to_c_channel_update_callbackEN6Pubnub7ChannelENSt3__110shared_ptrIK14ChannelServiceEENS2_8functionIFvS1_EEE, symObjAddr: 0x4FC0, symBinAddr: 0x91E10, symSize: 0x270 }
  - { offset: 0x17C978, size: 0x8, addend: 0x0, symName: __ZZN15CallbackService28to_c_channel_update_callbackEN6Pubnub7ChannelENSt3__110shared_ptrIK14ChannelServiceEENS2_8functionIFvS1_EEEEN11CallbackCtxD1Ev, symObjAddr: 0x5230, symBinAddr: 0x92080, symSize: 0x80 }
  - { offset: 0x17CB56, size: 0x8, addend: 0x0, symName: __ZN15CallbackService30to_c_channels_updates_callbackERKNSt3__16vectorIN6Pubnub7ChannelENS0_9allocatorIS3_EEEENS0_10shared_ptrIK14ChannelServiceEENS0_8functionIFvS6_EEE, symObjAddr: 0x52B0, symBinAddr: 0x92100, symSize: 0x2E0 }
  - { offset: 0x17D43F, size: 0x8, addend: 0x0, symName: __ZZN15CallbackService30to_c_channels_updates_callbackERKNSt3__16vectorIN6Pubnub7ChannelENS0_9allocatorIS3_EEEENS0_10shared_ptrIK14ChannelServiceEENS0_8functionIFvS6_EEEEN11CallbackCtxD1Ev, symObjAddr: 0x5600, symBinAddr: 0x923E0, symSize: 0xC0 }
  - { offset: 0x17D695, size: 0x8, addend: 0x0, symName: __ZN15CallbackService25to_c_user_update_callbackEN6Pubnub4UserENSt3__110shared_ptrIK11UserServiceEENS2_8functionIFvS1_EEE, symObjAddr: 0x56C0, symBinAddr: 0x924A0, symSize: 0x260 }
  - { offset: 0x17DC2C, size: 0x8, addend: 0x0, symName: __ZZN15CallbackService25to_c_user_update_callbackEN6Pubnub4UserENSt3__110shared_ptrIK11UserServiceEENS2_8functionIFvS1_EEEEN11CallbackCtxD1Ev, symObjAddr: 0x5920, symBinAddr: 0x92700, symSize: 0x80 }
  - { offset: 0x17DE0A, size: 0x8, addend: 0x0, symName: __ZN15CallbackService27to_c_users_updates_callbackERKNSt3__16vectorIN6Pubnub4UserENS0_9allocatorIS3_EEEENS0_10shared_ptrIK11UserServiceEENS0_8functionIFvS6_EEE, symObjAddr: 0x59A0, symBinAddr: 0x92780, symSize: 0x300 }
  - { offset: 0x17E6D2, size: 0x8, addend: 0x0, symName: __ZZN15CallbackService27to_c_users_updates_callbackERKNSt3__16vectorIN6Pubnub4UserENS0_9allocatorIS3_EEEENS0_10shared_ptrIK11UserServiceEENS0_8functionIFvS6_EEEEN11CallbackCtxD1Ev, symObjAddr: 0x5D10, symBinAddr: 0x92A80, symSize: 0xC0 }
  - { offset: 0x17E8C9, size: 0x8, addend: 0x0, symName: __ZN15CallbackService19to_c_event_callbackEN6Pubnub22pubnub_chat_event_typeENSt3__18functionIFvNS0_5EventEEEE, symObjAddr: 0x5DD0, symBinAddr: 0x92B40, symSize: 0x1C0 }
  - { offset: 0x17EDD8, size: 0x8, addend: 0x0, symName: __ZN15CallbackService22to_c_presence_callbackEN6Pubnub6StringENSt3__110shared_ptrIK15PresenceServiceEENS2_8functionIFvNS2_6vectorIS1_NS2_9allocatorIS1_EEEEEEE, symObjAddr: 0x5F90, symBinAddr: 0x92D00, symSize: 0x240 }
  - { offset: 0x17F36F, size: 0x8, addend: 0x0, symName: __ZZN15CallbackService22to_c_presence_callbackEN6Pubnub6StringENSt3__110shared_ptrIK15PresenceServiceEENS2_8functionIFvNS2_6vectorIS1_NS2_9allocatorIS1_EEEEEEEEN11CallbackCtxD1Ev, symObjAddr: 0x61D0, symBinAddr: 0x92F40, symSize: 0x80 }
  - { offset: 0x17F4BD, size: 0x8, addend: 0x0, symName: __ZN15CallbackService31to_c_membership_update_callbackEN6Pubnub10MembershipENSt3__18weak_ptrIK11ChatServiceEENS2_8functionIFvS1_EEE, symObjAddr: 0x6250, symBinAddr: 0x92FC0, symSize: 0x250 }
  - { offset: 0x17FA02, size: 0x8, addend: 0x0, symName: __ZZN15CallbackService31to_c_membership_update_callbackEN6Pubnub10MembershipENSt3__18weak_ptrIK11ChatServiceEENS2_8functionIFvS1_EEEEN11CallbackCtxD1Ev, symObjAddr: 0x64A0, symBinAddr: 0x93210, symSize: 0x60 }
  - { offset: 0x17FBC5, size: 0x8, addend: 0x0, symName: __ZN15CallbackService33to_c_memberships_updates_callbackERKNSt3__16vectorIN6Pubnub10MembershipENS0_9allocatorIS3_EEEENS0_8weak_ptrIK11ChatServiceEENS0_8functionIFvS6_EEE, symObjAddr: 0x6500, symBinAddr: 0x93270, symSize: 0x2E0 }
  - { offset: 0x18043B, size: 0x8, addend: 0x0, symName: __ZZN15CallbackService33to_c_memberships_updates_callbackERKNSt3__16vectorIN6Pubnub10MembershipENS0_9allocatorIS3_EEEENS0_8weak_ptrIK11ChatServiceEENS0_8functionIFvS6_EEEEN11CallbackCtxD1Ev, symObjAddr: 0x6850, symBinAddr: 0x93550, symSize: 0xA0 }
  - { offset: 0x18067B, size: 0x8, addend: 0x0, symName: __ZN15CallbackService28to_c_message_update_callbackEN6Pubnub7MessageENSt3__110shared_ptrIK14MessageServiceEENS2_8functionIFvS1_EEE, symObjAddr: 0x68F0, symBinAddr: 0x935F0, symSize: 0x260 }
  - { offset: 0x180C12, size: 0x8, addend: 0x0, symName: __ZZN15CallbackService28to_c_message_update_callbackEN6Pubnub7MessageENSt3__110shared_ptrIK14MessageServiceEENS2_8functionIFvS1_EEEEN11CallbackCtxD1Ev, symObjAddr: 0x6B50, symBinAddr: 0x93850, symSize: 0x80 }
  - { offset: 0x180D84, size: 0x8, addend: 0x0, symName: __ZN15CallbackService35to_c_thread_message_update_callbackEN6Pubnub13ThreadMessageENSt3__110shared_ptrIK14MessageServiceEENS2_8functionIFvS1_EEE, symObjAddr: 0x6BD0, symBinAddr: 0x938D0, symSize: 0x2D0 }
  - { offset: 0x18134F, size: 0x8, addend: 0x0, symName: __ZZN15CallbackService35to_c_thread_message_update_callbackEN6Pubnub13ThreadMessageENSt3__110shared_ptrIK14MessageServiceEENS2_8functionIFvS1_EEEEN11CallbackCtxD1Ev, symObjAddr: 0x6EA0, symBinAddr: 0x93BA0, symSize: 0x80 }
  - { offset: 0x181515, size: 0x8, addend: 0x0, symName: __ZN15CallbackService30to_c_messages_updates_callbackERKNSt3__16vectorIN6Pubnub7MessageENS0_9allocatorIS3_EEEENS0_10shared_ptrIK14MessageServiceEENS0_8functionIFvS6_EEE, symObjAddr: 0x6F20, symBinAddr: 0x93C20, symSize: 0x2D0 }
  - { offset: 0x181CC9, size: 0x8, addend: 0x0, symName: __ZZN15CallbackService30to_c_messages_updates_callbackERKNSt3__16vectorIN6Pubnub7MessageENS0_9allocatorIS3_EEEENS0_10shared_ptrIK14MessageServiceEENS0_8functionIFvS6_EEEEN11CallbackCtxD1Ev, symObjAddr: 0x7260, symBinAddr: 0x93EF0, symSize: 0xC0 }
  - { offset: 0x181F74, size: 0x8, addend: 0x0, symName: __ZN15CallbackService37to_c_thread_messages_updates_callbackERKNSt3__16vectorIN6Pubnub13ThreadMessageENS0_9allocatorIS3_EEEENS0_10shared_ptrIK14MessageServiceEENS0_8functionIFvS6_EEE, symObjAddr: 0x7320, symBinAddr: 0x93FB0, symSize: 0x300 }
  - { offset: 0x18286F, size: 0x8, addend: 0x0, symName: __ZZN15CallbackService37to_c_thread_messages_updates_callbackERKNSt3__16vectorIN6Pubnub13ThreadMessageENS0_9allocatorIS3_EEEENS0_10shared_ptrIK14MessageServiceEENS0_8functionIFvS6_EEEEN11CallbackCtxD1Ev, symObjAddr: 0x7690, symBinAddr: 0x942B0, symSize: 0xC0 }
  - { offset: 0x182A53, size: 0x8, addend: 0x0, symName: __ZN15CallbackService30add_connection_status_listenerENSt3__18functionIFvN6Pubnub20pn_connection_statusENS2_20ConnectionStatusDataEEEE, symObjAddr: 0x7750, symBinAddr: 0x94370, symSize: 0x130 }
  - { offset: 0x182CAB, size: 0x8, addend: 0x0, symName: __ZNSt3__110__function12__value_funcIFvN6Pubnub20pn_connection_statusENS2_20ConnectionStatusDataEEE4swapB8ne180100ERS6_, symObjAddr: 0x15E10, symBinAddr: 0x9E0E0, symSize: 0x140 }
  - { offset: 0x182D4C, size: 0x8, addend: 0x0, symName: __ZN15CallbackService33remove_connection_status_listenerEv, symObjAddr: 0x7880, symBinAddr: 0x944A0, symSize: 0xB0 }
  - { offset: 0x183413, size: 0x8, addend: 0x0, symName: '__ZZN15CallbackService21to_c_message_callbackENSt3__18weak_ptrIK11ChatServiceEENS0_8functionIFvN6Pubnub7MessageEEEEEN3$_08__invokeEPK7pubnub_17pubnub_v2_messagePv', symObjAddr: 0x84F0, symBinAddr: 0x94550, symSize: 0x400 }
  - { offset: 0x1838E1, size: 0x8, addend: 0x0, symName: __ZL12notify_errorRKN6Pubnub6StringE, symObjAddr: 0x88F0, symBinAddr: 0x94950, symSize: 0xC0 }
  - { offset: 0x1839CD, size: 0x8, addend: 0x0, symName: __ZNSt3__120__throw_bad_any_castB8ne180100Ev, symObjAddr: 0x89B0, symBinAddr: 0x94A10, symSize: 0x40 }
  - { offset: 0x183ABC, size: 0x8, addend: 0x0, symName: __ZNSt12bad_any_castC1Ev, symObjAddr: 0x89F0, symBinAddr: 0x94A50, symSize: 0x30 }
  - { offset: 0x183AEE, size: 0x8, addend: 0x0, symName: __ZNSt12bad_any_castD1Ev, symObjAddr: 0x8A20, symBinAddr: 0x94A80, symSize: 0x10 }
  - { offset: 0x183DEF, size: 0x8, addend: 0x0, symName: '__ZZN15CallbackService28to_c_channel_update_callbackEN6Pubnub7ChannelENSt3__110shared_ptrIK14ChannelServiceEENS2_8functionIFvS1_EEEEN3$_08__invokeEPK7pubnub_17pubnub_v2_messagePv', symObjAddr: 0x8CE0, symBinAddr: 0x94A90, symSize: 0x480 }
  - { offset: 0x1843A3, size: 0x8, addend: 0x0, symName: '__ZZN15CallbackService30to_c_channels_updates_callbackERKNSt3__16vectorIN6Pubnub7ChannelENS0_9allocatorIS3_EEEENS0_10shared_ptrIK14ChannelServiceEENS0_8functionIFvS6_EEEEN3$_08__invokeEPK7pubnub_17pubnub_v2_messagePv', symObjAddr: 0x9160, symBinAddr: 0x94F10, symSize: 0xEC0 }
  - { offset: 0x1853DE, size: 0x8, addend: 0x0, symName: __ZZN15CallbackService30to_c_channels_updates_callbackERKNSt3__16vectorIN6Pubnub7ChannelENS0_9allocatorIS3_EEEENS0_10shared_ptrIK14ChannelServiceEENS0_8functionIFvS6_EEEEN11CallbackCtxC1ERKSG_, symObjAddr: 0xA020, symBinAddr: 0x95DD0, symSize: 0xB0 }
  - { offset: 0x18596E, size: 0x8, addend: 0x0, symName: '__ZZN15CallbackService30to_c_channels_updates_callbackERKNSt3__16vectorIN6Pubnub7ChannelENS0_9allocatorIS3_EEEENS0_10shared_ptrIK14ChannelServiceEENS0_8functionIFvS6_EEEEN3$_08__invokeEPK7pubnub_17pubnub_v2_messagePv.cold.1', symObjAddr: 0x15FF0, symBinAddr: 0xDD390, symSize: 0x50 }
  - { offset: 0x185A91, size: 0x8, addend: 0x0, symName: __ZZN15CallbackService30to_c_channels_updates_callbackERKNSt3__16vectorIN6Pubnub7ChannelENS0_9allocatorIS3_EEEENS0_10shared_ptrIK14ChannelServiceEENS0_8functionIFvS6_EEEEN11CallbackCtxC1ERKSG_.cold.2, symObjAddr: 0x160A0, symBinAddr: 0xDD440, symSize: 0x40 }
  - { offset: 0x185B24, size: 0x8, addend: 0x0, symName: __ZZN15CallbackService30to_c_channels_updates_callbackERKNSt3__16vectorIN6Pubnub7ChannelENS0_9allocatorIS3_EEEENS0_10shared_ptrIK14ChannelServiceEENS0_8functionIFvS6_EEEEN11CallbackCtxC1ERKSG_.cold.1, symObjAddr: 0x16040, symBinAddr: 0xDD3E0, symSize: 0x60 }
  - { offset: 0x185ED5, size: 0x8, addend: 0x0, symName: '__ZZN15CallbackService25to_c_user_update_callbackEN6Pubnub4UserENSt3__110shared_ptrIK11UserServiceEENS2_8functionIFvS1_EEEEN3$_08__invokeEPK7pubnub_17pubnub_v2_messagePv', symObjAddr: 0xA5F0, symBinAddr: 0x95E80, symSize: 0x570 }
  - { offset: 0x18648A, size: 0x8, addend: 0x0, symName: __ZNSt3__14pairIN6Pubnub6StringE7UserDAOEC2B8ne180100IS2_10UserEntityLi0EEEONS0_IT_T0_EE, symObjAddr: 0xAB60, symBinAddr: 0x963F0, symSize: 0xB0 }
  - { offset: 0x186603, size: 0x8, addend: 0x0, symName: '__ZZN15CallbackService27to_c_users_updates_callbackERKNSt3__16vectorIN6Pubnub4UserENS0_9allocatorIS3_EEEENS0_10shared_ptrIK11UserServiceEENS0_8functionIFvS6_EEEEN3$_08__invokeEPK7pubnub_17pubnub_v2_messagePv', symObjAddr: 0xAD10, symBinAddr: 0x964A0, symSize: 0x1080 }
  - { offset: 0x187725, size: 0x8, addend: 0x0, symName: __ZZN15CallbackService27to_c_users_updates_callbackERKNSt3__16vectorIN6Pubnub4UserENS0_9allocatorIS3_EEEENS0_10shared_ptrIK11UserServiceEENS0_8functionIFvS6_EEEEN11CallbackCtxC1ERKSG_, symObjAddr: 0xBD90, symBinAddr: 0x97520, symSize: 0xC0 }
  - { offset: 0x1878FC, size: 0x8, addend: 0x0, symName: __ZNSt3__14pairIN6Pubnub6StringE7UserDAOEC2B8ne180100IS2_10UserEntityLi0EEEOT_OT0_, symObjAddr: 0xBE50, symBinAddr: 0x975E0, symSize: 0xB0 }
  - { offset: 0x187B34, size: 0x8, addend: 0x0, symName: '__ZZN15CallbackService27to_c_users_updates_callbackERKNSt3__16vectorIN6Pubnub4UserENS0_9allocatorIS3_EEEENS0_10shared_ptrIK11UserServiceEENS0_8functionIFvS6_EEEEN3$_08__invokeEPK7pubnub_17pubnub_v2_messagePv.cold.1', symObjAddr: 0x16110, symBinAddr: 0xDD480, symSize: 0x50 }
  - { offset: 0x187C96, size: 0x8, addend: 0x0, symName: __ZZN15CallbackService27to_c_users_updates_callbackERKNSt3__16vectorIN6Pubnub4UserENS0_9allocatorIS3_EEEENS0_10shared_ptrIK11UserServiceEENS0_8functionIFvS6_EEEEN11CallbackCtxC1ERKSG_.cold.1, symObjAddr: 0x16160, symBinAddr: 0xDD4D0, symSize: 0x60 }
  - { offset: 0x187E58, size: 0x8, addend: 0x0, symName: '__ZZN15CallbackService19to_c_event_callbackEN6Pubnub22pubnub_chat_event_typeENSt3__18functionIFvNS0_5EventEEEEEN3$_08__invokeEPK7pubnub_17pubnub_v2_messagePv', symObjAddr: 0xC130, symBinAddr: 0x97690, symSize: 0x390 }
  - { offset: 0x187EEF, size: 0x8, addend: 0x0, symName: '__ZZN15CallbackService19to_c_event_callbackEN6Pubnub22pubnub_chat_event_typeENSt3__18functionIFvNS0_5EventEEEEEN3$_08__invokeEPK7pubnub_17pubnub_v2_messagePv', symObjAddr: 0xC130, symBinAddr: 0x97690, symSize: 0x390 }
  - { offset: 0x188230, size: 0x8, addend: 0x0, symName: '__ZZN15CallbackService22to_c_presence_callbackEN6Pubnub6StringENSt3__110shared_ptrIK15PresenceServiceEENS2_8functionIFvNS2_6vectorIS1_NS2_9allocatorIS1_EEEEEEEEN3$_08__invokeEPK7pubnub_17pubnub_v2_messagePv', symObjAddr: 0xC4C0, symBinAddr: 0x97A20, symSize: 0x330 }
  - { offset: 0x1887D6, size: 0x8, addend: 0x0, symName: '__ZZN15CallbackService22to_c_presence_callbackEN6Pubnub6StringENSt3__110shared_ptrIK15PresenceServiceEENS2_8functionIFvNS2_6vectorIS1_NS2_9allocatorIS1_EEEEEEEEN3$_08__invokeEPK7pubnub_17pubnub_v2_messagePv.cold.1', symObjAddr: 0x16200, symBinAddr: 0xDD530, symSize: 0x50 }
  - { offset: 0x188917, size: 0x8, addend: 0x0, symName: '__ZZN15CallbackService31to_c_membership_update_callbackEN6Pubnub10MembershipENSt3__18weak_ptrIK11ChatServiceEENS2_8functionIFvS1_EEEEN3$_08__invokeEPK7pubnub_17pubnub_v2_messagePv', symObjAddr: 0xC7F0, symBinAddr: 0x97D50, symSize: 0x5C0 }
  - { offset: 0x188E5C, size: 0x8, addend: 0x0, symName: '__ZZN15CallbackService33to_c_memberships_updates_callbackERKNSt3__16vectorIN6Pubnub10MembershipENS0_9allocatorIS3_EEEENS0_8weak_ptrIK11ChatServiceEENS0_8functionIFvS6_EEEEN3$_08__invokeEPK7pubnub_17pubnub_v2_messagePv', symObjAddr: 0xCDB0, symBinAddr: 0x98310, symSize: 0xDA0 }
  - { offset: 0x189D8B, size: 0x8, addend: 0x0, symName: __ZZN15CallbackService33to_c_memberships_updates_callbackERKNSt3__16vectorIN6Pubnub10MembershipENS0_9allocatorIS3_EEEENS0_8weak_ptrIK11ChatServiceEENS0_8functionIFvS6_EEEEN11CallbackCtxC1ERKSG_, symObjAddr: 0xDB50, symBinAddr: 0x990B0, symSize: 0xC0 }
  - { offset: 0x18A0E4, size: 0x8, addend: 0x0, symName: '__ZZN15CallbackService33to_c_memberships_updates_callbackERKNSt3__16vectorIN6Pubnub10MembershipENS0_9allocatorIS3_EEEENS0_8weak_ptrIK11ChatServiceEENS0_8functionIFvS6_EEEEN3$_08__invokeEPK7pubnub_17pubnub_v2_messagePv.cold.1', symObjAddr: 0x16280, symBinAddr: 0xDD580, symSize: 0x50 }
  - { offset: 0x18A207, size: 0x8, addend: 0x0, symName: __ZZN15CallbackService33to_c_memberships_updates_callbackERKNSt3__16vectorIN6Pubnub10MembershipENS0_9allocatorIS3_EEEENS0_8weak_ptrIK11ChatServiceEENS0_8functionIFvS6_EEEEN11CallbackCtxC1ERKSG_.cold.1, symObjAddr: 0x162D0, symBinAddr: 0xDD5D0, symSize: 0x60 }
  - { offset: 0x18A3C9, size: 0x8, addend: 0x0, symName: '__ZZN15CallbackService28to_c_message_update_callbackEN6Pubnub7MessageENSt3__110shared_ptrIK14MessageServiceEENS2_8functionIFvS1_EEEEN3$_08__invokeEPK7pubnub_17pubnub_v2_messagePv', symObjAddr: 0xDE60, symBinAddr: 0x99170, symSize: 0x4A0 }
  - { offset: 0x18A460, size: 0x8, addend: 0x0, symName: '__ZZN15CallbackService28to_c_message_update_callbackEN6Pubnub7MessageENSt3__110shared_ptrIK14MessageServiceEENS2_8functionIFvS1_EEEEN3$_08__invokeEPK7pubnub_17pubnub_v2_messagePv', symObjAddr: 0xDE60, symBinAddr: 0x99170, symSize: 0x4A0 }
  - { offset: 0x18A922, size: 0x8, addend: 0x0, symName: '__ZZN15CallbackService35to_c_thread_message_update_callbackEN6Pubnub13ThreadMessageENSt3__110shared_ptrIK14MessageServiceEENS2_8functionIFvS1_EEEEN3$_08__invokeEPK7pubnub_17pubnub_v2_messagePv', symObjAddr: 0xE300, symBinAddr: 0x99610, symSize: 0x490 }
  - { offset: 0x18AC5A, size: 0x8, addend: 0x0, symName: __ZZN15CallbackService35to_c_thread_message_update_callbackEN6Pubnub13ThreadMessageENSt3__110shared_ptrIK14MessageServiceEENS2_8functionIFvS1_EEEEN11CallbackCtxC1ERKSA_, symObjAddr: 0xE790, symBinAddr: 0x99AA0, symSize: 0xE0 }
  - { offset: 0x18AE8A, size: 0x8, addend: 0x0, symName: '__ZZN15CallbackService30to_c_messages_updates_callbackERKNSt3__16vectorIN6Pubnub7MessageENS0_9allocatorIS3_EEEENS0_10shared_ptrIK14MessageServiceEENS0_8functionIFvS6_EEEEN3$_08__invokeEPK7pubnub_17pubnub_v2_messagePv', symObjAddr: 0xE870, symBinAddr: 0x99B80, symSize: 0x720 }
  - { offset: 0x18B963, size: 0x8, addend: 0x0, symName: __ZZN15CallbackService30to_c_messages_updates_callbackERKNSt3__16vectorIN6Pubnub7MessageENS0_9allocatorIS3_EEEENS0_10shared_ptrIK14MessageServiceEENS0_8functionIFvS6_EEEEN11CallbackCtxC1ERKSG_, symObjAddr: 0xEF90, symBinAddr: 0x9A2A0, symSize: 0xC0 }
  - { offset: 0x18BD09, size: 0x8, addend: 0x0, symName: '__ZZN15CallbackService30to_c_messages_updates_callbackERKNSt3__16vectorIN6Pubnub7MessageENS0_9allocatorIS3_EEEENS0_10shared_ptrIK14MessageServiceEENS0_8functionIFvS6_EEEEN3$_08__invokeEPK7pubnub_17pubnub_v2_messagePv.cold.1', symObjAddr: 0x163A0, symBinAddr: 0xDD630, symSize: 0x50 }
  - { offset: 0x18BE6B, size: 0x8, addend: 0x0, symName: __ZZN15CallbackService30to_c_messages_updates_callbackERKNSt3__16vectorIN6Pubnub7MessageENS0_9allocatorIS3_EEEENS0_10shared_ptrIK14MessageServiceEENS0_8functionIFvS6_EEEEN11CallbackCtxC1ERKSG_.cold.1, symObjAddr: 0x163F0, symBinAddr: 0xDD680, symSize: 0x60 }
  - { offset: 0x18C02D, size: 0x8, addend: 0x0, symName: '__ZZN15CallbackService37to_c_thread_messages_updates_callbackERKNSt3__16vectorIN6Pubnub13ThreadMessageENS0_9allocatorIS3_EEEENS0_10shared_ptrIK14MessageServiceEENS0_8functionIFvS6_EEEEN3$_08__invokeEPK7pubnub_17pubnub_v2_messagePv', symObjAddr: 0xF280, symBinAddr: 0x9A360, symSize: 0x840 }
  - { offset: 0x18C13C, size: 0x8, addend: 0x0, symName: '__ZZN15CallbackService37to_c_thread_messages_updates_callbackERKNSt3__16vectorIN6Pubnub13ThreadMessageENS0_9allocatorIS3_EEEENS0_10shared_ptrIK14MessageServiceEENS0_8functionIFvS6_EEEEN3$_08__invokeEPK7pubnub_17pubnub_v2_messagePv', symObjAddr: 0xF280, symBinAddr: 0x9A360, symSize: 0x840 }
  - { offset: 0x18CC86, size: 0x8, addend: 0x0, symName: __ZZN15CallbackService37to_c_thread_messages_updates_callbackERKNSt3__16vectorIN6Pubnub13ThreadMessageENS0_9allocatorIS3_EEEENS0_10shared_ptrIK14MessageServiceEENS0_8functionIFvS6_EEEEN11CallbackCtxC1ERKSG_, symObjAddr: 0xFAC0, symBinAddr: 0x9ABA0, symSize: 0xC0 }
  - { offset: 0x18D06A, size: 0x8, addend: 0x0, symName: '__ZZN15CallbackService37to_c_thread_messages_updates_callbackERKNSt3__16vectorIN6Pubnub13ThreadMessageENS0_9allocatorIS3_EEEENS0_10shared_ptrIK14MessageServiceEENS0_8functionIFvS6_EEEEN3$_08__invokeEPK7pubnub_17pubnub_v2_messagePv.cold.1', symObjAddr: 0x16490, symBinAddr: 0xDD6E0, symSize: 0x50 }
  - { offset: 0x18D1CC, size: 0x8, addend: 0x0, symName: __ZZN15CallbackService37to_c_thread_messages_updates_callbackERKNSt3__16vectorIN6Pubnub13ThreadMessageENS0_9allocatorIS3_EEEENS0_10shared_ptrIK14MessageServiceEENS0_8functionIFvS6_EEEEN11CallbackCtxC1ERKSG_.cold.1, symObjAddr: 0x164E0, symBinAddr: 0xDD730, symSize: 0x60 }
  - { offset: 0x18D388, size: 0x8, addend: 0x0, symName: '__ZZN15CallbackService30add_connection_status_listenerENSt3__18functionIFvN6Pubnub20pn_connection_statusENS2_20ConnectionStatusDataEEEEEN3$_08__invokeEPK7pubnub_26pubnub_subscription_status33pubnub_subscription_status_data_tPv', symObjAddr: 0xFE40, symBinAddr: 0x9AC60, symSize: 0x100 }
  - { offset: 0x18D448, size: 0x8, addend: 0x0, symName: '__ZZN15CallbackService30add_connection_status_listenerENSt3__18functionIFvN6Pubnub20pn_connection_statusENS2_20ConnectionStatusDataEEEEEN3$_08__invokeEPK7pubnub_26pubnub_subscription_status33pubnub_subscription_status_data_tPv', symObjAddr: 0xFE40, symBinAddr: 0x9AC60, symSize: 0x100 }
  - { offset: 0x18D5F0, size: 0x8, addend: 0x0, symName: '__ZNSt3__114__thread_proxyB8ne180100INS_5tupleIJNS_10unique_ptrINS_15__thread_structENS_14default_deleteIS3_EEEEZN15CallbackServiceC1E20EntityServicesBundleNS_8weak_ptrIK15PresenceServiceEENS_10shared_ptrI5MutexI6PubNubEEENS_6chrono8durationIxNS_5ratioILl1ELl1000EEEEEE3$_0EEEEEPvSP_', symObjAddr: 0xFF40, symBinAddr: 0x9AD60, symSize: 0x70 }
  - { offset: 0x18D7F4, size: 0x8, addend: 0x0, symName: '__ZNSt3__110unique_ptrINS_5tupleIJNS0_INS_15__thread_structENS_14default_deleteIS2_EEEEZN15CallbackServiceC1E20EntityServicesBundleNS_8weak_ptrIK15PresenceServiceEENS_10shared_ptrI5MutexI6PubNubEEENS_6chrono8durationIxNS_5ratioILl1ELl1000EEEEEE3$_0EEENS3_ISN_EEED1B8ne180100Ev', symObjAddr: 0xFFB0, symBinAddr: 0x9ADD0, symSize: 0x50 }
  - { offset: 0x18D938, size: 0x8, addend: 0x0, symName: __ZNSt3__16__treeINS_12__value_typeIN6Pubnub6StringENS_8functionIFvNS2_7MessageEEEEEENS_19__map_value_compareIS3_S8_NS2_14StringComparerELb1EEENS_9allocatorIS8_EEE30__emplace_hint_unique_key_argsIS3_JRKS3_RS7_EEENS_4pairINS_15__tree_iteratorIS8_PNS_11__tree_nodeIS8_PvEElEEbEENS_21__tree_const_iteratorIS8_SO_lEERKT_DpOT0_, symObjAddr: 0x10350, symBinAddr: 0x9B0C0, symSize: 0x110 }
  - { offset: 0x18DB21, size: 0x8, addend: 0x0, symName: __ZNSt3__110__function12__value_funcIFvN6Pubnub7MessageEEE4swapB8ne180100ERS5_, symObjAddr: 0x10210, symBinAddr: 0x9AF80, symSize: 0x140 }
  - { offset: 0x18E13F, size: 0x8, addend: 0x0, symName: __ZNSt3__110__function12__value_funcIFvN6Pubnub13ThreadMessageEEE4swapB8ne180100ERS5_, symObjAddr: 0x10E50, symBinAddr: 0x9B440, symSize: 0x140 }
  - { offset: 0x18E546, size: 0x8, addend: 0x0, symName: __ZNSt3__110__function12__value_funcIFvN6Pubnub7ChannelEEE4swapB8ne180100ERS5_, symObjAddr: 0x11580, symBinAddr: 0x9B6E0, symSize: 0x140 }
  - { offset: 0x18E842, size: 0x8, addend: 0x0, symName: __ZNSt3__16__treeINS_12__value_typeIN6Pubnub6StringENS_5tupleIJNS2_22pubnub_chat_event_typeENS_8functionIFvNS2_5EventEEEEEEEEENS_19__map_value_compareIS3_SB_NS2_14StringComparerELb1EEENS_9allocatorISB_EEE30__emplace_hint_unique_key_argsIS3_JRKS3_RSA_EEENS_4pairINS_15__tree_iteratorISB_PNS_11__tree_nodeISB_PvEElEEbEENS_21__tree_const_iteratorISB_SR_lEERKT_DpOT0_, symObjAddr: 0x11E00, symBinAddr: 0x9BAD0, symSize: 0x110 }
  - { offset: 0x18EE03, size: 0x8, addend: 0x0, symName: __ZNSt3__110__function12__value_funcIFvN6Pubnub4UserEEE4swapB8ne180100ERS5_, symObjAddr: 0x123F0, symBinAddr: 0x9BE50, symSize: 0x140 }
  - { offset: 0x18F20A, size: 0x8, addend: 0x0, symName: __ZNSt3__110__function12__value_funcIFvNS_6vectorIN6Pubnub6StringENS_9allocatorIS4_EEEEEE4swapB8ne180100ERS9_, symObjAddr: 0x12B20, symBinAddr: 0x9C0F0, symSize: 0x140 }
  - { offset: 0x18F6B9, size: 0x8, addend: 0x0, symName: __ZNSt3__16__treeINS_12__value_typeIN6Pubnub6StringENS_5tupleIJS3_NS_8functionIFvNS2_10MembershipEEEEEEEEENS_19__map_value_compareIS3_SA_NS2_14StringComparerELb1EEENS_9allocatorISA_EEE16__construct_nodeIJRKS3_RS9_EEENS_10unique_ptrINS_11__tree_nodeISA_PvEENS_22__tree_node_destructorINSE_ISO_EEEEEEDpOT_, symObjAddr: 0x13670, symBinAddr: 0x9C540, symSize: 0xE0 }
  - { offset: 0x18F94F, size: 0x8, addend: 0x0, symName: __ZNSt3__110unique_ptrINS_11__tree_nodeINS_12__value_typeIN6Pubnub6StringENS_5tupleIJS4_NS_8functionIFvNS3_10MembershipEEEEEEEEEPvEENS_22__tree_node_destructorINS_9allocatorISD_EEEEED1B8ne180100Ev, symObjAddr: 0x13750, symBinAddr: 0x9C620, symSize: 0x70 }
  - { offset: 0x18FBE3, size: 0x8, addend: 0x0, symName: __ZNSt3__16__treeINS_12__value_typeIN6Pubnub6StringENS_5tupleIJS3_NS_8functionIFvNS2_10MembershipEEEEEEEEENS_19__map_value_compareIS3_SA_NS2_14StringComparerELb1EEENS_9allocatorISA_EEE16__construct_nodeIJRKNS_4pairIKS3_S9_EEEEENS_10unique_ptrINS_11__tree_nodeISA_PvEENS_22__tree_node_destructorINSE_ISQ_EEEEEEDpOT_, symObjAddr: 0x14090, symBinAddr: 0x9CAE0, symSize: 0xE0 }
  - { offset: 0x18FE6D, size: 0x8, addend: 0x0, symName: __ZNSt3__19__any_imp13_LargeHandlerIZN15CallbackService21to_c_message_callbackENS_8weak_ptrIK11ChatServiceEENS_8functionIFvN6Pubnub7MessageEEEEE11CallbackCtxE8__handleB8ne180100ENS0_7_ActionEPKNS_3anyEPSF_PKSt9type_infoPKv, symObjAddr: 0x14170, symBinAddr: 0x9CBC0, symSize: 0x180 }
  - { offset: 0x19026C, size: 0x8, addend: 0x0, symName: __ZNSt3__19__any_imp13_LargeHandlerIZN15CallbackService28to_c_channel_update_callbackEN6Pubnub7ChannelENS_10shared_ptrIK14ChannelServiceEENS_8functionIFvS4_EEEE11CallbackCtxE8__handleB8ne180100ENS0_7_ActionEPKNS_3anyEPSF_PKSt9type_infoPKv, symObjAddr: 0x142F0, symBinAddr: 0x9CD40, symSize: 0x200 }
  - { offset: 0x19084D, size: 0x8, addend: 0x0, symName: __ZNSt3__19__any_imp13_LargeHandlerIZN15CallbackService30to_c_channels_updates_callbackERKNS_6vectorIN6Pubnub7ChannelENS_9allocatorIS5_EEEENS_10shared_ptrIK14ChannelServiceEENS_8functionIFvS8_EEEE11CallbackCtxE8__handleB8ne180100ENS0_7_ActionEPKNS_3anyEPSL_PKSt9type_infoPKv, symObjAddr: 0x14660, symBinAddr: 0x9CF40, symSize: 0x190 }
  - { offset: 0x190CCA, size: 0x8, addend: 0x0, symName: __ZNSt3__19__any_imp13_LargeHandlerIZN15CallbackService25to_c_user_update_callbackEN6Pubnub4UserENS_10shared_ptrIK11UserServiceEENS_8functionIFvS4_EEEE11CallbackCtxE8__handleB8ne180100ENS0_7_ActionEPKNS_3anyEPSF_PKSt9type_infoPKv, symObjAddr: 0x147F0, symBinAddr: 0x9D0D0, symSize: 0x1E0 }
  - { offset: 0x1912A0, size: 0x8, addend: 0x0, symName: __ZNSt3__19__any_imp13_LargeHandlerIZN15CallbackService27to_c_users_updates_callbackERKNS_6vectorIN6Pubnub4UserENS_9allocatorIS5_EEEENS_10shared_ptrIK11UserServiceEENS_8functionIFvS8_EEEE11CallbackCtxE8__handleB8ne180100ENS0_7_ActionEPKNS_3anyEPSL_PKSt9type_infoPKv, symObjAddr: 0x14B40, symBinAddr: 0x9D2B0, symSize: 0x180 }
  - { offset: 0x191736, size: 0x8, addend: 0x0, symName: __ZNSt3__19__any_imp13_LargeHandlerIZN15CallbackService19to_c_event_callbackEN6Pubnub22pubnub_chat_event_typeENS_8functionIFvNS3_5EventEEEEE11CallbackCtxE8__handleB8ne180100ENS0_7_ActionEPKNS_3anyEPSC_PKSt9type_infoPKv, symObjAddr: 0x14CC0, symBinAddr: 0x9D430, symSize: 0x140 }
  - { offset: 0x191A89, size: 0x8, addend: 0x0, symName: __ZNSt3__19__any_imp13_LargeHandlerIZN15CallbackService22to_c_presence_callbackEN6Pubnub6StringENS_10shared_ptrIK15PresenceServiceEENS_8functionIFvNS_6vectorIS4_NS_9allocatorIS4_EEEEEEEE11CallbackCtxE8__handleB8ne180100ENS0_7_ActionEPKNS_3anyEPSJ_PKSt9type_infoPKv, symObjAddr: 0x14E00, symBinAddr: 0x9D570, symSize: 0x1D0 }
  - { offset: 0x191F90, size: 0x8, addend: 0x0, symName: __ZNSt3__19__any_imp13_LargeHandlerIZN15CallbackService31to_c_membership_update_callbackEN6Pubnub10MembershipENS_8weak_ptrIK11ChatServiceEENS_8functionIFvS4_EEEE11CallbackCtxE8__handleB8ne180100ENS0_7_ActionEPKNS_3anyEPSF_PKSt9type_infoPKv, symObjAddr: 0x14FD0, symBinAddr: 0x9D740, symSize: 0x1E0 }
  - { offset: 0x19245E, size: 0x8, addend: 0x0, symName: __ZNSt3__19__any_imp13_LargeHandlerIZN15CallbackService33to_c_memberships_updates_callbackERKNS_6vectorIN6Pubnub10MembershipENS_9allocatorIS5_EEEENS_8weak_ptrIK11ChatServiceEENS_8functionIFvS8_EEEE11CallbackCtxE8__handleB8ne180100ENS0_7_ActionEPKNS_3anyEPSL_PKSt9type_infoPKv, symObjAddr: 0x15320, symBinAddr: 0x9D920, symSize: 0x170 }
  - { offset: 0x192885, size: 0x8, addend: 0x0, symName: __ZNSt3__19__any_imp13_LargeHandlerIZN15CallbackService28to_c_message_update_callbackEN6Pubnub7MessageENS_10shared_ptrIK14MessageServiceEENS_8functionIFvS4_EEEE11CallbackCtxE8__handleB8ne180100ENS0_7_ActionEPKNS_3anyEPSF_PKSt9type_infoPKv, symObjAddr: 0x15490, symBinAddr: 0x9DA90, symSize: 0x1E0 }
  - { offset: 0x192CE0, size: 0x8, addend: 0x0, symName: __ZNSt3__19__any_imp13_LargeHandlerIZN15CallbackService28to_c_message_update_callbackEN6Pubnub7MessageENS_10shared_ptrIK14MessageServiceEENS_8functionIFvS4_EEEE11CallbackCtxE8__handleB8ne180100ENS0_7_ActionEPKNS_3anyEPSF_PKSt9type_infoPKv.cold.1, symObjAddr: 0x16640, symBinAddr: 0xDD790, symSize: 0x32 }
  - { offset: 0x192E1C, size: 0x8, addend: 0x0, symName: __ZNSt3__19__any_imp13_LargeHandlerIZN15CallbackService35to_c_thread_message_update_callbackEN6Pubnub13ThreadMessageENS_10shared_ptrIK14MessageServiceEENS_8functionIFvS4_EEEE11CallbackCtxE8__handleB8ne180100ENS0_7_ActionEPKNS_3anyEPSF_PKSt9type_infoPKv, symObjAddr: 0x15670, symBinAddr: 0x9DC70, symSize: 0x160 }
  - { offset: 0x19328C, size: 0x8, addend: 0x0, symName: __ZNSt3__19__any_imp13_LargeHandlerIZN15CallbackService30to_c_messages_updates_callbackERKNS_6vectorIN6Pubnub7MessageENS_9allocatorIS5_EEEENS_10shared_ptrIK14MessageServiceEENS_8functionIFvS8_EEEE11CallbackCtxE8__handleB8ne180100ENS0_7_ActionEPKNS_3anyEPSL_PKSt9type_infoPKv, symObjAddr: 0x15940, symBinAddr: 0x9DDD0, symSize: 0x180 }
  - { offset: 0x1937D8, size: 0x8, addend: 0x0, symName: __ZNSt3__19__any_imp13_LargeHandlerIZN15CallbackService37to_c_thread_messages_updates_callbackERKNS_6vectorIN6Pubnub13ThreadMessageENS_9allocatorIS5_EEEENS_10shared_ptrIK14MessageServiceEENS_8functionIFvS8_EEEE11CallbackCtxE8__handleB8ne180100ENS0_7_ActionEPKNS_3anyEPSL_PKSt9type_infoPKv, symObjAddr: 0x15C80, symBinAddr: 0x9DF50, symSize: 0x190 }
  - { offset: 0x193C70, size: 0x8, addend: 0x0, symName: __ZN20AccessManagerServiceC2ENSt3__110shared_ptrI5MutexI6PubNubEEE, symObjAddr: 0x0, symBinAddr: 0x9E2E0, symSize: 0x20 }
  - { offset: 0x193CF2, size: 0x8, addend: 0x0, symName: __ZN20AccessManagerServiceC1ENSt3__110shared_ptrI5MutexI6PubNubEEE, symObjAddr: 0x20, symBinAddr: 0x9E300, symSize: 0x20 }
  - { offset: 0x193DFB, size: 0x8, addend: 0x0, symName: __ZNK20AccessManagerService5can_iEN6Pubnub13AccessManager10PermissionENS1_12ResourceTypeERKNS0_6StringE, symObjAddr: 0x40, symBinAddr: 0x9E320, symSize: 0x2B0 }
  - { offset: 0x1947B6, size: 0x8, addend: 0x0, symName: __ZNK20AccessManagerService11parse_tokenEN6Pubnub6StringE, symObjAddr: 0x310, symBinAddr: 0x9E5D0, symSize: 0xA0 }
  - { offset: 0x1948EA, size: 0x8, addend: 0x0, symName: __ZNK20AccessManagerService14set_auth_tokenEN6Pubnub6StringE, symObjAddr: 0x3B0, symBinAddr: 0x9E670, symSize: 0x90 }
  - { offset: 0x194A1E, size: 0x8, addend: 0x0, symName: __ZNK20AccessManagerService17set_pubnub_originEN6Pubnub6StringE, symObjAddr: 0x440, symBinAddr: 0x9E700, symSize: 0x90 }
  - { offset: 0x195333, size: 0x8, addend: 0x0, symName: __ZN12DraftServiceC2ENSt3__110shared_ptrIK11UserServiceEENS1_IK14ChannelServiceEE, symObjAddr: 0x0, symBinAddr: 0x9E790, symSize: 0x50 }
  - { offset: 0x195376, size: 0x8, addend: 0x0, symName: __ZN12DraftServiceC2ENSt3__110shared_ptrIK11UserServiceEENS1_IK14ChannelServiceEE, symObjAddr: 0x0, symBinAddr: 0x9E790, symSize: 0x50 }
  - { offset: 0x19548B, size: 0x8, addend: 0x0, symName: __ZN12DraftServiceC1ENSt3__110shared_ptrIK11UserServiceEENS1_IK14ChannelServiceEE, symObjAddr: 0x50, symBinAddr: 0x9E7E0, symSize: 0x50 }
  - { offset: 0x19561B, size: 0x8, addend: 0x0, symName: __ZNK12DraftService22insert_text_to_messageER15MessageDraftDAOmRKN6Pubnub6StringE, symObjAddr: 0xA0, symBinAddr: 0x9E830, symSize: 0x130 }
  - { offset: 0x195945, size: 0x8, addend: 0x0, symName: __ZNK12DraftService29fire_message_elements_changedER15MessageDraftDAO, symObjAddr: 0x240, symBinAddr: 0x9E960, symSize: 0x4F0 }
  - { offset: 0x196757, size: 0x8, addend: 0x0, symName: __ZNK12DraftService20get_message_elementsERK18MessageDraftEntity, symObjAddr: 0x1440, symBinAddr: 0x9FAE0, symSize: 0x130 }
  - { offset: 0x196B2B, size: 0x8, addend: 0x0, symName: __ZN6Pubnub6VectorINS_14MessageElementEE7reserveEm, symObjAddr: 0x3010, symBinAddr: 0xA0CD0, symSize: 0x100 }
  - { offset: 0x196C52, size: 0x8, addend: 0x0, symName: __ZN6Pubnub6VectorINS_14MessageElementEE9push_backERKS1_, symObjAddr: 0x3110, symBinAddr: 0xA0DD0, symSize: 0xC0 }
  - { offset: 0x196DB0, size: 0x8, addend: 0x0, symName: __ZNK12DraftService19resolve_suggestionsERK25MessageDraftMentionEntity, symObjAddr: 0x16F0, symBinAddr: 0x9FD10, symSize: 0x7D0 }
  - { offset: 0x197430, size: 0x8, addend: 0x0, symName: __ZNSt3__16vectorIN6Pubnub16SuggestedMentionENS_9allocatorIS2_EEE18__insert_with_sizeB8ne180100INS_11__wrap_iterIPS2_EES9_EES9_NS7_IPKS2_EET_T0_l, symObjAddr: 0x31D0, symBinAddr: 0xA0E90, symSize: 0x380 }
  - { offset: 0x1979E7, size: 0x8, addend: 0x0, symName: __ZN6Pubnub6VectorINS_14MessageElementEEC1ERKS2_, symObjAddr: 0x15F0, symBinAddr: 0x9FC10, symSize: 0x100 }
  - { offset: 0x197BA8, size: 0x8, addend: 0x0, symName: __ZN6Pubnub6VectorINS_16SuggestedMentionEEC1EONSt3__16vectorIS1_NS3_9allocatorIS1_EEEE, symObjAddr: 0x1F40, symBinAddr: 0xA0560, symSize: 0x110 }
  - { offset: 0x197CDA, size: 0x8, addend: 0x0, symName: __ZNSt3__16vectorIN6Pubnub16SuggestedMentionENS_9allocatorIS2_EEED1B8ne180100Ev, symObjAddr: 0x1EC0, symBinAddr: 0xA04E0, symSize: 0x80 }
  - { offset: 0x197FAB, size: 0x8, addend: 0x0, symName: __ZNK12DraftService24remove_text_from_messageER15MessageDraftDAOmm, symObjAddr: 0x730, symBinAddr: 0x9EE50, symSize: 0x130 }
  - { offset: 0x1982F9, size: 0x8, addend: 0x0, symName: __ZNK12DraftService35insert_suggested_mention_to_messageER15MessageDraftDAORKN6Pubnub16SuggestedMentionERKNS2_6StringE, symObjAddr: 0x860, symBinAddr: 0x9EF80, symSize: 0x270 }
  - { offset: 0x1986E5, size: 0x8, addend: 0x0, symName: __ZN12DraftService35convert_suggested_mention_to_domainERKN6Pubnub16SuggestedMentionE, symObjAddr: 0xAD0, symBinAddr: 0x9F1F0, symSize: 0xB0 }
  - { offset: 0x198703, size: 0x8, addend: 0x0, symName: __ZNK12DraftService22add_mention_to_messageER15MessageDraftDAOmmRKN6Pubnub13MentionTargetE, symObjAddr: 0xBB0, symBinAddr: 0x9F2A0, symSize: 0x190 }
  - { offset: 0x198A93, size: 0x8, addend: 0x0, symName: __ZN12DraftService32convert_mention_target_to_domainERKN6Pubnub13MentionTargetE, symObjAddr: 0xD40, symBinAddr: 0x9F430, symSize: 0x50 }
  - { offset: 0x198AA4, size: 0x8, addend: 0x0, symName: __ZNK12DraftService27remove_mention_from_messageER15MessageDraftDAOm, symObjAddr: 0xD90, symBinAddr: 0x9F480, symSize: 0x130 }
  - { offset: 0x198DCE, size: 0x8, addend: 0x0, symName: __ZNK12DraftService14update_messageER15MessageDraftDAORKN6Pubnub6StringE, symObjAddr: 0xEC0, symBinAddr: 0x9F5B0, symSize: 0x130 }
  - { offset: 0x1992BA, size: 0x8, addend: 0x0, symName: __ZNK12DraftService20prepare_sending_dataERK15MessageDraftDAORKN6Pubnub14SendTextParamsE, symObjAddr: 0xFF0, symBinAddr: 0x9F6E0, symSize: 0x390 }
  - { offset: 0x199C32, size: 0x8, addend: 0x0, symName: __ZNSt3__16__treeINS_12__value_typeIiN6Pubnub13MentionedUserEEENS_19__map_value_compareIiS4_NS_4lessIiEELb1EEENS_9allocatorIS4_EEE25__emplace_unique_key_argsIiJRKNS_21piecewise_construct_tENS_5tupleIJOiEEENSG_IJEEEEEENS_4pairINS_15__tree_iteratorIS4_PNS_11__tree_nodeIS4_PvEElEEbEERKT_DpOT0_, symObjAddr: 0x2760, symBinAddr: 0xA0950, symSize: 0x130 }
  - { offset: 0x199F27, size: 0x8, addend: 0x0, symName: __ZN6Pubnub3MapIiNS_13MentionedUserENSt3__14lessIS1_EEEC2ENS2_3mapIiS1_NS3_IiEENS2_9allocatorINS2_4pairIKiS1_EEEEEE, symObjAddr: 0x2C80, symBinAddr: 0xA0A80, symSize: 0x250 }
  - { offset: 0x19A162, size: 0x8, addend: 0x0, symName: __ZNSt3__14pairIN6Pubnub14SendTextParamsENS1_6StringEEC2B8ne180100IRS2_S3_Li0EEEOT_OT0_, symObjAddr: 0x24A0, symBinAddr: 0xA0820, symSize: 0x130 }
  - { offset: 0x19A323, size: 0x8, addend: 0x0, symName: __ZN6Pubnub3MapIiNS_13MentionedUserENSt3__14lessIS1_EEED1Ev, symObjAddr: 0x13C0, symBinAddr: 0x9FAB0, symSize: 0x30 }
  - { offset: 0x19A473, size: 0x8, addend: 0x0, symName: __ZN12DraftService38convert_mentioned_user_to_presentationERK18MessageDraftEntityRK25MessageDraftMentionEntity, symObjAddr: 0x1380, symBinAddr: 0x9FA70, symSize: 0x40 }
  - { offset: 0x19A526, size: 0x8, addend: 0x0, symName: __ZN12DraftService39convert_message_element_to_presentationERK32MessageDraftMessageElementEntity, symObjAddr: 0x2350, symBinAddr: 0xA0750, symSize: 0x90 }
  - { offset: 0x19A5AA, size: 0x8, addend: 0x0, symName: __ZNSt3__120back_insert_iteratorINS_6vectorIN6Pubnub14MessageElementENS_9allocatorIS3_EEEEEaSB8ne180100EOS3_, symObjAddr: 0x3E40, symBinAddr: 0xA1A80, symSize: 0xC0 }
  - { offset: 0x19AABD, size: 0x8, addend: 0x0, symName: __ZNSt3__16vectorIN6Pubnub16SuggestedMentionENS_9allocatorIS2_EEE21__push_back_slow_pathIS2_EEPS2_OT_, symObjAddr: 0x3C50, symBinAddr: 0xA1890, symSize: 0x1F0 }
  - { offset: 0x19AF52, size: 0x8, addend: 0x0, symName: __ZN6Pubnub6VectorINS_16SuggestedMentionEE7reserveEm, symObjAddr: 0x3B80, symBinAddr: 0xA17C0, symSize: 0xD0 }
  - { offset: 0x19AFA7, size: 0x8, addend: 0x0, symName: __ZNK12DraftService21get_users_suggestionsERKN6Pubnub6StringE, symObjAddr: 0x20C0, symBinAddr: 0xA0670, symSize: 0x70 }
  - { offset: 0x19AFD9, size: 0x8, addend: 0x0, symName: __ZNK12DraftService24get_channels_suggestionsERKN6Pubnub6StringE, symObjAddr: 0x2220, symBinAddr: 0xA06E0, symSize: 0x70 }
  - { offset: 0x19B017, size: 0x8, addend: 0x0, symName: __ZN12DraftService38convert_mention_target_to_presentationERK31MessageDraftMentionTargetEntity, symObjAddr: 0x2460, symBinAddr: 0xA07E0, symSize: 0x40 }
  - { offset: 0x19B63A, size: 0x8, addend: 0x0, symName: __ZNSt3__135__uninitialized_allocator_copy_implB8ne180100INS_9allocatorIN6Pubnub16SuggestedMentionEEEPS3_S5_S5_EET2_RT_T0_T1_S6_, symObjAddr: 0x3740, symBinAddr: 0xA1400, symSize: 0xF0 }
  - { offset: 0x19B704, size: 0x8, addend: 0x0, symName: __ZNSt3__16vectorIN6Pubnub16SuggestedMentionENS_9allocatorIS2_EEE12__move_rangeEPS2_S6_S6_, symObjAddr: 0x3550, symBinAddr: 0xA1210, symSize: 0x180 }
  - { offset: 0x19B836, size: 0x8, addend: 0x0, symName: __ZNSt3__142__uninitialized_allocator_move_if_noexceptB8ne180100INS_9allocatorIN6Pubnub16SuggestedMentionEEENS_16reverse_iteratorIPS3_EES7_S7_EET2_RT_T0_T1_S8_, symObjAddr: 0x3930, symBinAddr: 0xA1570, symSize: 0x100 }
  - { offset: 0x19B966, size: 0x8, addend: 0x0, symName: __ZNSt3__142__uninitialized_allocator_move_if_noexceptB8ne180100INS_9allocatorIN6Pubnub16SuggestedMentionEEEPS3_S5_S5_EET2_RT_T0_T1_S6_, symObjAddr: 0x3A30, symBinAddr: 0xA1670, symSize: 0xF0 }
  - { offset: 0x19BA30, size: 0x8, addend: 0x0, symName: __ZNKSt3__16vectorIN6Pubnub16SuggestedMentionENS_9allocatorIS2_EEE20__throw_length_errorB8ne180100Ev, symObjAddr: 0x38A0, symBinAddr: 0xA1560, symSize: 0x10 }
  - { offset: 0x19BA4F, size: 0x8, addend: 0x0, symName: __ZNSt3__114__split_bufferIN6Pubnub16SuggestedMentionERNS_9allocatorIS2_EEED1Ev, symObjAddr: 0x36D0, symBinAddr: 0xA1390, symSize: 0x70 }
  - { offset: 0x19BBB6, size: 0x8, addend: 0x0, symName: __ZNSt3__128__exception_guard_exceptionsINS_29_AllocatorDestroyRangeReverseINS_9allocatorIN6Pubnub16SuggestedMentionEEEPS4_EEED1B8ne180100Ev, symObjAddr: 0x3830, symBinAddr: 0xA14F0, symSize: 0x70 }
  - { offset: 0x19BD63, size: 0x8, addend: 0x0, symName: __ZNSt3__128__exception_guard_exceptionsINS_29_AllocatorDestroyRangeReverseINS_9allocatorIN6Pubnub16SuggestedMentionEEENS_16reverse_iteratorIPS4_EEEEED1B8ne180100Ev, symObjAddr: 0x3B20, symBinAddr: 0xA1760, symSize: 0x60 }
  - { offset: 0x19BF1E, size: 0x8, addend: 0x0, symName: __ZNSt3__16vectorIN6Pubnub14MessageElementENS_9allocatorIS2_EEE21__push_back_slow_pathIS2_EEPS2_OT_, symObjAddr: 0x3F00, symBinAddr: 0xA1B40, symSize: 0x1E0 }
  - { offset: 0x19C433, size: 0x8, addend: 0x0, symName: __ZNSt3__16vectorIN6Pubnub14MessageElementENS_9allocatorIS2_EEE26__swap_out_circular_bufferERNS_14__split_bufferIS2_RS4_EE, symObjAddr: 0x40E0, symBinAddr: 0xA1D20, symSize: 0x160 }
  - { offset: 0x19C803, size: 0x8, addend: 0x0, symName: __ZNKSt3__16vectorIN6Pubnub14MessageElementENS_9allocatorIS2_EEE20__throw_length_errorB8ne180100Ev, symObjAddr: 0x42B0, symBinAddr: 0xA1E80, symSize: 0x10 }
  - { offset: 0x19CA8E, size: 0x8, addend: 0x0, symName: __ZN10ChannelDAOC2E13ChannelEntity, symObjAddr: 0x0, symBinAddr: 0xA1E90, symSize: 0xF0 }
  - { offset: 0x19CDBE, size: 0x8, addend: 0x0, symName: __ZN10ChannelDAOC1E13ChannelEntity, symObjAddr: 0x140, symBinAddr: 0xA1F80, symSize: 0xF0 }
  - { offset: 0x19D0E4, size: 0x8, addend: 0x0, symName: __ZN10ChannelDAOC2ERKN6Pubnub15ChatChannelDataE, symObjAddr: 0x230, symBinAddr: 0xA2070, symSize: 0xF0 }
  - { offset: 0x19D3E1, size: 0x8, addend: 0x0, symName: __ZN10ChannelDAO24entity_from_channel_dataERKN6Pubnub15ChatChannelDataE, symObjAddr: 0x320, symBinAddr: 0xA2160, symSize: 0x80 }
  - { offset: 0x19D432, size: 0x8, addend: 0x0, symName: __ZN10ChannelDAOC1ERKN6Pubnub15ChatChannelDataE, symObjAddr: 0x3A0, symBinAddr: 0xA21E0, symSize: 0xF0 }
  - { offset: 0x19D74A, size: 0x8, addend: 0x0, symName: __ZNK10ChannelDAO15to_channel_dataEv, symObjAddr: 0x490, symBinAddr: 0xA22D0, symSize: 0x80 }
  - { offset: 0x19D7A3, size: 0x8, addend: 0x0, symName: __ZNK10ChannelDAO9to_entityEv, symObjAddr: 0x560, symBinAddr: 0xA2350, symSize: 0x20 }
  - { offset: 0x19D7D6, size: 0x8, addend: 0x0, symName: __ZNK10ChannelDAO10get_entityEv, symObjAddr: 0x580, symBinAddr: 0xA2370, symSize: 0x10 }
  - { offset: 0x19D89B, size: 0x8, addend: 0x0, symName: __ZNK10ChannelDAO12start_typingEi, symObjAddr: 0x590, symBinAddr: 0xA2380, symSize: 0x150 }
  - { offset: 0x19DC8D, size: 0x8, addend: 0x0, symName: __ZNK10ChannelDAO11stop_typingEv, symObjAddr: 0x6E0, symBinAddr: 0xA24D0, symSize: 0x90 }
  - { offset: 0x19DF29, size: 0x8, addend: 0x0, symName: __ZNK10ChannelDAO22start_typing_indicatorERKN6Pubnub6StringEiNSt3__18functionIFvRKNS4_6vectorIS1_NS4_9allocatorIS1_EEEEEEE, symObjAddr: 0x770, symBinAddr: 0xA2560, symSize: 0x2E0 }
  - { offset: 0x19E653, size: 0x8, addend: 0x0, symName: '__ZZNK10ChannelDAO22start_typing_indicatorERKN6Pubnub6StringEiNSt3__18functionIFvRKNS4_6vectorIS1_NS4_9allocatorIS1_EEEEEEEEN3$_0D1Ev', symObjAddr: 0xA50, symBinAddr: 0xA2840, symSize: 0x50 }
  - { offset: 0x19E6E1, size: 0x8, addend: 0x0, symName: __ZNK10ChannelDAO21stop_typing_indicatorERKN6Pubnub6StringE, symObjAddr: 0xAA0, symBinAddr: 0xA2890, symSize: 0xC0 }
  - { offset: 0x19E89F, size: 0x8, addend: 0x0, symName: __ZNK10ChannelDAO23remove_typing_indicatorERKN6Pubnub6StringE, symObjAddr: 0xB60, symBinAddr: 0xA2950, symSize: 0x50 }
  - { offset: 0x19E9BF, size: 0x8, addend: 0x0, symName: __ZNK10ChannelDAO14is_typing_sentEv, symObjAddr: 0xBB0, symBinAddr: 0xA29A0, symSize: 0x50 }
  - { offset: 0x19EADF, size: 0x8, addend: 0x0, symName: __ZNK10ChannelDAO25contains_typing_indicatorERKN6Pubnub6StringE, symObjAddr: 0xC00, symBinAddr: 0xA29F0, symSize: 0x60 }
  - { offset: 0x19EC11, size: 0x8, addend: 0x0, symName: __ZNK10ChannelDAO21get_typing_indicatorsEv, symObjAddr: 0xC60, symBinAddr: 0xA2A50, symSize: 0x80 }
  - { offset: 0x19EEF4, size: 0x8, addend: 0x0, symName: __ZNK10ChannelDAO25add_chat_message_listenerENSt3__110shared_ptrI12SubscribableEE, symObjAddr: 0xCE0, symBinAddr: 0xA2AD0, symSize: 0x90 }
  - { offset: 0x19F0DA, size: 0x8, addend: 0x0, symName: __ZNSt3__16vectorINS_10shared_ptrI12SubscribableEENS_9allocatorIS3_EEE21__push_back_slow_pathIRKS3_EEPS3_OT_, symObjAddr: 0x1B90, symBinAddr: 0xA30F0, symSize: 0x180 }
  - { offset: 0x19F51B, size: 0x8, addend: 0x0, symName: __ZNK10ChannelDAO32stop_listening_for_chat_messagesEv, symObjAddr: 0xD70, symBinAddr: 0xA2B60, symSize: 0x130 }
  - { offset: 0x19F899, size: 0x8, addend: 0x0, symName: '__ZNSt3__110__function6__funcIZNK10ChannelDAO12start_typingEiE3$_0NS_9allocatorIS3_EEFvvEED1Ev', symObjAddr: 0x1170, symBinAddr: 0xA2C90, symSize: 0x10 }
  - { offset: 0x19F8AA, size: 0x8, addend: 0x0, symName: '__ZNSt3__110__function6__funcIZNK10ChannelDAO12start_typingEiE3$_0NS_9allocatorIS3_EEFvvEED0Ev', symObjAddr: 0x1180, symBinAddr: 0xA2CA0, symSize: 0x10 }
  - { offset: 0x19F8EB, size: 0x8, addend: 0x0, symName: '__ZNKSt3__110__function6__funcIZNK10ChannelDAO12start_typingEiE3$_0NS_9allocatorIS3_EEFvvEE7__cloneEv', symObjAddr: 0x1190, symBinAddr: 0xA2CB0, symSize: 0x30 }
  - { offset: 0x19F9F6, size: 0x8, addend: 0x0, symName: '__ZNKSt3__110__function6__funcIZNK10ChannelDAO12start_typingEiE3$_0NS_9allocatorIS3_EEFvvEE7__cloneEPNS0_6__baseIS6_EE', symObjAddr: 0x11C0, symBinAddr: 0xA2CE0, symSize: 0x20 }
  - { offset: 0x19FA9D, size: 0x8, addend: 0x0, symName: '__ZNSt3__110__function6__funcIZNK10ChannelDAO12start_typingEiE3$_0NS_9allocatorIS3_EEFvvEE7destroyEv', symObjAddr: 0x11E0, symBinAddr: 0xA2D00, symSize: 0x10 }
  - { offset: 0x19FAB4, size: 0x8, addend: 0x0, symName: '__ZNSt3__110__function6__funcIZNK10ChannelDAO12start_typingEiE3$_0NS_9allocatorIS3_EEFvvEE18destroy_deallocateEv', symObjAddr: 0x11F0, symBinAddr: 0xA2D10, symSize: 0x10 }
  - { offset: 0x19FB34, size: 0x8, addend: 0x0, symName: '__ZNSt3__110__function6__funcIZNK10ChannelDAO12start_typingEiE3$_0NS_9allocatorIS3_EEFvvEEclEv', symObjAddr: 0x1200, symBinAddr: 0xA2D20, symSize: 0x50 }
  - { offset: 0x19FCB7, size: 0x8, addend: 0x0, symName: '__ZNKSt3__110__function6__funcIZNK10ChannelDAO12start_typingEiE3$_0NS_9allocatorIS3_EEFvvEE6targetERKSt9type_info', symObjAddr: 0x1250, symBinAddr: 0xA2D70, symSize: 0x20 }
  - { offset: 0x19FCF4, size: 0x8, addend: 0x0, symName: '__ZNKSt3__110__function6__funcIZNK10ChannelDAO12start_typingEiE3$_0NS_9allocatorIS3_EEFvvEE11target_typeEv', symObjAddr: 0x1270, symBinAddr: 0xA2D90, symSize: 0x10 }
  - { offset: 0x19FE82, size: 0x8, addend: 0x0, symName: '__ZNSt3__110__function6__funcIZNK10ChannelDAO22start_typing_indicatorERKN6Pubnub6StringEiNS_8functionIFvRKNS_6vectorIS4_NS_9allocatorIS4_EEEEEEEE3$_0NS9_ISG_EEFvvEED1Ev', symObjAddr: 0x15D0, symBinAddr: 0xA2DA0, symSize: 0x50 }
  - { offset: 0x19FFA3, size: 0x8, addend: 0x0, symName: '__ZNSt3__110__function6__funcIZNK10ChannelDAO22start_typing_indicatorERKN6Pubnub6StringEiNS_8functionIFvRKNS_6vectorIS4_NS_9allocatorIS4_EEEEEEEE3$_0NS9_ISG_EEFvvEED0Ev', symObjAddr: 0x1620, symBinAddr: 0xA2DF0, symSize: 0x60 }
  - { offset: 0x1A011B, size: 0x8, addend: 0x0, symName: '__ZNKSt3__110__function6__funcIZNK10ChannelDAO22start_typing_indicatorERKN6Pubnub6StringEiNS_8functionIFvRKNS_6vectorIS4_NS_9allocatorIS4_EEEEEEEE3$_0NS9_ISG_EEFvvEE7__cloneEv', symObjAddr: 0x1680, symBinAddr: 0xA2E50, symSize: 0xB0 }
  - { offset: 0x1A0316, size: 0x8, addend: 0x0, symName: '__ZNKSt3__110__function6__funcIZNK10ChannelDAO22start_typing_indicatorERKN6Pubnub6StringEiNS_8functionIFvRKNS_6vectorIS4_NS_9allocatorIS4_EEEEEEEE3$_0NS9_ISG_EEFvvEE7__cloneEPNS0_6__baseISI_EE', symObjAddr: 0x1730, symBinAddr: 0xA2F00, symSize: 0x90 }
  - { offset: 0x1A03F2, size: 0x8, addend: 0x0, symName: '__ZNSt3__110__function6__funcIZNK10ChannelDAO22start_typing_indicatorERKN6Pubnub6StringEiNS_8functionIFvRKNS_6vectorIS4_NS_9allocatorIS4_EEEEEEEE3$_0NS9_ISG_EEFvvEE7destroyEv', symObjAddr: 0x17C0, symBinAddr: 0xA2F90, symSize: 0x50 }
  - { offset: 0x1A04E4, size: 0x8, addend: 0x0, symName: '__ZNSt3__110__function6__funcIZNK10ChannelDAO22start_typing_indicatorERKN6Pubnub6StringEiNS_8functionIFvRKNS_6vectorIS4_NS_9allocatorIS4_EEEEEEEE3$_0NS9_ISG_EEFvvEE18destroy_deallocateEv', symObjAddr: 0x1810, symBinAddr: 0xA2FE0, symSize: 0x50 }
  - { offset: 0x1A0650, size: 0x8, addend: 0x0, symName: '__ZNSt3__110__function6__funcIZNK10ChannelDAO22start_typing_indicatorERKN6Pubnub6StringEiNS_8functionIFvRKNS_6vectorIS4_NS_9allocatorIS4_EEEEEEEE3$_0NS9_ISG_EEFvvEEclEv', symObjAddr: 0x1860, symBinAddr: 0xA3030, symSize: 0x90 }
  - { offset: 0x1A088D, size: 0x8, addend: 0x0, symName: '__ZNKSt3__110__function6__funcIZNK10ChannelDAO22start_typing_indicatorERKN6Pubnub6StringEiNS_8functionIFvRKNS_6vectorIS4_NS_9allocatorIS4_EEEEEEEE3$_0NS9_ISG_EEFvvEE6targetERKSt9type_info', symObjAddr: 0x18F0, symBinAddr: 0xA30C0, symSize: 0x20 }
  - { offset: 0x1A08CA, size: 0x8, addend: 0x0, symName: '__ZNKSt3__110__function6__funcIZNK10ChannelDAO22start_typing_indicatorERKN6Pubnub6StringEiNS_8functionIFvRKNS_6vectorIS4_NS_9allocatorIS4_EEEEEEEE3$_0NS9_ISG_EEFvvEE11target_typeEv', symObjAddr: 0x1910, symBinAddr: 0xA30E0, symSize: 0x10 }
  - { offset: 0x1A0ACE, size: 0x8, addend: 0x0, symName: __ZNKSt3__16vectorINS_10shared_ptrI12SubscribableEENS_9allocatorIS3_EEE20__throw_length_errorB8ne180100Ev, symObjAddr: 0x1D10, symBinAddr: 0xA3270, symSize: 0x10 }
  - { offset: 0x1A0B13, size: 0x8, addend: 0x0, symName: __ZN7UserDAOC2E10UserEntity, symObjAddr: 0x0, symBinAddr: 0xA3280, symSize: 0x10 }
  - { offset: 0x1A0B26, size: 0x8, addend: 0x0, symName: __ZN7UserDAOC2E10UserEntity, symObjAddr: 0x0, symBinAddr: 0xA3280, symSize: 0x10 }
  - { offset: 0x1A0B64, size: 0x8, addend: 0x0, symName: __ZN7UserDAOC1E10UserEntity, symObjAddr: 0x10, symBinAddr: 0xA3290, symSize: 0x10 }
  - { offset: 0x1A0BAC, size: 0x8, addend: 0x0, symName: __ZN7UserDAOC2ERKN6Pubnub12ChatUserDataE, symObjAddr: 0x20, symBinAddr: 0xA32A0, symSize: 0x10 }
  - { offset: 0x1A0BCB, size: 0x8, addend: 0x0, symName: __ZN7UserDAO21entity_from_user_dataERKN6Pubnub12ChatUserDataE, symObjAddr: 0x30, symBinAddr: 0xA32B0, symSize: 0x100 }
  - { offset: 0x1A0BE2, size: 0x8, addend: 0x0, symName: __ZN7UserDAOC1ERKN6Pubnub12ChatUserDataE, symObjAddr: 0x130, symBinAddr: 0xA33B0, symSize: 0x10 }
  - { offset: 0x1A0C1B, size: 0x8, addend: 0x0, symName: __ZNK7UserDAO12to_user_dataEv, symObjAddr: 0x140, symBinAddr: 0xA33C0, symSize: 0x90 }
  - { offset: 0x1A0C5B, size: 0x8, addend: 0x0, symName: __ZN6Pubnub12ChatUserDataC2Ev, symObjAddr: 0x350, symBinAddr: 0xA3480, symSize: 0x10C }
  - { offset: 0x1A0C80, size: 0x8, addend: 0x0, symName: __ZNK7UserDAO9to_entityEv, symObjAddr: 0x220, symBinAddr: 0xA3450, symSize: 0x20 }
  - { offset: 0x1A0CB3, size: 0x8, addend: 0x0, symName: __ZNK7UserDAO10get_entityEv, symObjAddr: 0x240, symBinAddr: 0xA3470, symSize: 0x10 }
  - { offset: 0x1A0CEA, size: 0x8, addend: 0x0, symName: __ZN10MessageDAOC2ERK13MessageEntity, symObjAddr: 0x0, symBinAddr: 0xA3590, symSize: 0x10 }
  - { offset: 0x1A0CFD, size: 0x8, addend: 0x0, symName: __ZN10MessageDAOC2ERK13MessageEntity, symObjAddr: 0x0, symBinAddr: 0xA3590, symSize: 0x10 }
  - { offset: 0x1A0D51, size: 0x8, addend: 0x0, symName: __ZN10MessageDAOC1ERK13MessageEntity, symObjAddr: 0x10, symBinAddr: 0xA35A0, symSize: 0x10 }
  - { offset: 0x1A0DB7, size: 0x8, addend: 0x0, symName: __ZN10MessageDAOC2ERKN6Pubnub15ChatMessageDataE, symObjAddr: 0x20, symBinAddr: 0xA35B0, symSize: 0x80 }
  - { offset: 0x1A0E64, size: 0x8, addend: 0x0, symName: __ZN6Pubnub15ChatMessageDataC2ERKS0_, symObjAddr: 0x640, symBinAddr: 0xA3990, symSize: 0xD0 }
  - { offset: 0x1A0E83, size: 0x8, addend: 0x0, symName: __ZN10MessageDAO24entity_from_message_dataEN6Pubnub15ChatMessageDataE, symObjAddr: 0xA0, symBinAddr: 0xA3630, symSize: 0x130 }
  - { offset: 0x1A1104, size: 0x8, addend: 0x0, symName: __ZNSt3__16vectorIN6Pubnub13MessageActionENS_9allocatorIS2_EEEC2IPS2_Li0EEET_S8_, symObjAddr: 0xBA0, symBinAddr: 0xA3B50, symSize: 0xD0 }
  - { offset: 0x1A1327, size: 0x8, addend: 0x0, symName: __ZN10MessageDAOC1ERKN6Pubnub15ChatMessageDataE, symObjAddr: 0x220, symBinAddr: 0xA3760, symSize: 0x10 }
  - { offset: 0x1A136A, size: 0x8, addend: 0x0, symName: __ZNK10MessageDAO15to_message_dataEv, symObjAddr: 0x230, symBinAddr: 0xA3770, symSize: 0x120 }
  - { offset: 0x1A1610, size: 0x8, addend: 0x0, symName: __ZN6Pubnub6VectorINS_13MessageActionEEaSEOKNSt3__16vectorIS1_NS3_9allocatorIS1_EEEE, symObjAddr: 0x350, symBinAddr: 0xA3890, symSize: 0xD0 }
  - { offset: 0x1A17AB, size: 0x8, addend: 0x0, symName: __ZNK10MessageDAO9to_entityEv, symObjAddr: 0x4A0, symBinAddr: 0xA3960, symSize: 0x20 }
  - { offset: 0x1A17DE, size: 0x8, addend: 0x0, symName: __ZNK10MessageDAO10get_entityEv, symObjAddr: 0x4C0, symBinAddr: 0xA3980, symSize: 0x10 }
  - { offset: 0x1A17F5, size: 0x8, addend: 0x0, symName: __ZN6Pubnub6VectorINS_13MessageActionEEC1ERKS2_, symObjAddr: 0x710, symBinAddr: 0xA3A60, symSize: 0xF0 }
  - { offset: 0x1A1BF9, size: 0x8, addend: 0x0, symName: __ZN13MembershipDAOC2ERKN6Pubnub18ChatMembershipDataE, symObjAddr: 0x0, symBinAddr: 0xA3C20, symSize: 0x10 }
  - { offset: 0x1A1C06, size: 0x8, addend: 0x0, symName: __ZN13MembershipDAOC2ERKN6Pubnub18ChatMembershipDataE, symObjAddr: 0x0, symBinAddr: 0xA3C20, symSize: 0x10 }
  - { offset: 0x1A1C25, size: 0x8, addend: 0x0, symName: __ZN13MembershipDAO27entity_from_membership_dataERKN6Pubnub18ChatMembershipDataE, symObjAddr: 0x10, symBinAddr: 0xA3C30, symSize: 0xC0 }
  - { offset: 0x1A1C7D, size: 0x8, addend: 0x0, symName: __ZN13MembershipDAOC1ERKN6Pubnub18ChatMembershipDataE, symObjAddr: 0xD0, symBinAddr: 0xA3CF0, symSize: 0x10 }
  - { offset: 0x1A1CBC, size: 0x8, addend: 0x0, symName: __ZN13MembershipDAOC2ERK16MembershipEntity, symObjAddr: 0xE0, symBinAddr: 0xA3D00, symSize: 0x70 }
  - { offset: 0x1A1CED, size: 0x8, addend: 0x0, symName: __ZN13MembershipDAOC1ERK16MembershipEntity, symObjAddr: 0x150, symBinAddr: 0xA3D70, symSize: 0x70 }
  - { offset: 0x1A1D25, size: 0x8, addend: 0x0, symName: __ZNK13MembershipDAO9to_entityEv, symObjAddr: 0x1C0, symBinAddr: 0xA3DE0, symSize: 0x80 }
  - { offset: 0x1A1D50, size: 0x8, addend: 0x0, symName: __ZNK13MembershipDAO10get_entityEv, symObjAddr: 0x240, symBinAddr: 0xA3E60, symSize: 0x10 }
  - { offset: 0x1A1D6D, size: 0x8, addend: 0x0, symName: __ZNK13MembershipDAO18to_membership_dataEv, symObjAddr: 0x250, symBinAddr: 0xA3E70, symSize: 0xC0 }
  - { offset: 0x1A1E1C, size: 0x8, addend: 0x0, symName: __ZN15MessageDraftDAOC2ERK18MessageDraftEntity, symObjAddr: 0x0, symBinAddr: 0xA3F30, symSize: 0x80 }
  - { offset: 0x1A202F, size: 0x8, addend: 0x0, symName: __ZN15MessageDraftDAOC1ERK18MessageDraftEntity, symObjAddr: 0x80, symBinAddr: 0xA3FB0, symSize: 0x80 }
  - { offset: 0x1A20DF, size: 0x8, addend: 0x0, symName: __ZNK15MessageDraftDAO10get_entityEv, symObjAddr: 0x100, symBinAddr: 0xA4030, symSize: 0x70 }
  - { offset: 0x1A2176, size: 0x8, addend: 0x0, symName: __ZN15MessageDraftDAO13update_entityERK18MessageDraftEntity, symObjAddr: 0x170, symBinAddr: 0xA40A0, symSize: 0x50 }
  - { offset: 0x1A21F7, size: 0x8, addend: 0x0, symName: __ZNSt3__16vectorI25MessageDraftMentionEntityNS_9allocatorIS1_EEE18__assign_with_sizeB8ne180100IPS1_S6_EEvT_T0_l, symObjAddr: 0x870, symBinAddr: 0xA4420, symSize: 0x340 }
  - { offset: 0x1A2A93, size: 0x8, addend: 0x0, symName: __ZN15MessageDraftDAO12add_callbackENSt3__18functionIFvN6Pubnub6VectorINS2_14MessageElementEEEEEE, symObjAddr: 0x1C0, symBinAddr: 0xA40F0, symSize: 0x70 }
  - { offset: 0x1A2B8B, size: 0x8, addend: 0x0, symName: __ZNSt3__16vectorINS_8functionIFvN6Pubnub6VectorINS2_14MessageElementEEEEEENS_9allocatorIS7_EEE21__push_back_slow_pathIRKS7_EEPS7_OT_, symObjAddr: 0xBB0, symBinAddr: 0xA4760, symSize: 0x210 }
  - { offset: 0x1A2F47, size: 0x8, addend: 0x0, symName: __ZN15MessageDraftDAO12add_callbackENSt3__18functionIFvN6Pubnub6VectorINS2_14MessageElementEEENS3_INS2_16SuggestedMentionEEEEEE, symObjAddr: 0x230, symBinAddr: 0xA4160, symSize: 0x70 }
  - { offset: 0x1A303F, size: 0x8, addend: 0x0, symName: __ZNSt3__16vectorINS_8functionIFvN6Pubnub6VectorINS2_14MessageElementEEENS3_INS2_16SuggestedMentionEEEEEENS_9allocatorIS9_EEE21__push_back_slow_pathIRKS9_EEPS9_OT_, symObjAddr: 0xE40, symBinAddr: 0xA49F0, symSize: 0x210 }
  - { offset: 0x1A342B, size: 0x8, addend: 0x0, symName: __ZN15MessageDraftDAO14call_callbacksEN6Pubnub6VectorINS0_14MessageElementEEENS1_INS0_16SuggestedMentionEEE, symObjAddr: 0x2A0, symBinAddr: 0xA41D0, symSize: 0x140 }
  - { offset: 0x1A37BA, size: 0x8, addend: 0x0, symName: __ZN6Pubnub6VectorINS_16SuggestedMentionEEC1ERKS2_, symObjAddr: 0x4E0, symBinAddr: 0xA4310, symSize: 0xF0 }
  - { offset: 0x1A3A41, size: 0x8, addend: 0x0, symName: __ZNK15MessageDraftDAO29should_search_for_suggestionsEv, symObjAddr: 0x5D0, symBinAddr: 0xA4400, symSize: 0x20 }
  - { offset: 0x1A3D55, size: 0x8, addend: 0x0, symName: __ZNKSt3__16vectorINS_8functionIFvN6Pubnub6VectorINS2_14MessageElementEEEEEENS_9allocatorIS7_EEE20__throw_length_errorB8ne180100Ev, symObjAddr: 0xE30, symBinAddr: 0xA49E0, symSize: 0x10 }
  - { offset: 0x1A3D6A, size: 0x8, addend: 0x0, symName: __ZNSt3__16vectorINS_8functionIFvN6Pubnub6VectorINS2_14MessageElementEEENS3_INS2_16SuggestedMentionEEEEEENS_9allocatorIS9_EEE21__push_back_slow_pathIRKS9_EEPS9_OT_, symObjAddr: 0xE40, symBinAddr: 0xA49F0, symSize: 0x210 }
  - { offset: 0x1A3D74, size: 0x8, addend: 0x0, symName: __ZNSt3__114__split_bufferINS_8functionIFvN6Pubnub6VectorINS2_14MessageElementEEEEEERNS_9allocatorIS7_EEED1Ev, symObjAddr: 0xDC0, symBinAddr: 0xA4970, symSize: 0x70 }
  - { offset: 0x1A3F59, size: 0x8, addend: 0x0, symName: __ZNKSt3__16vectorINS_8functionIFvN6Pubnub6VectorINS2_14MessageElementEEENS3_INS2_16SuggestedMentionEEEEEENS_9allocatorIS9_EEE20__throw_length_errorB8ne180100Ev, symObjAddr: 0x10C0, symBinAddr: 0xA4C00, symSize: 0x10 }
  - { offset: 0x1A408F, size: 0x8, addend: 0x0, symName: __ZN12SubscriptionC2EP19pubnub_subscription, symObjAddr: 0x0, symBinAddr: 0xA4C10, symSize: 0x20 }
  - { offset: 0x1A4155, size: 0x8, addend: 0x0, symName: __ZN12SubscriptionC1EP19pubnub_subscription, symObjAddr: 0x20, symBinAddr: 0xA4C30, symSize: 0x20 }
  - { offset: 0x1A422A, size: 0x8, addend: 0x0, symName: __ZN12SubscriptionD2Ev, symObjAddr: 0x40, symBinAddr: 0xA4C50, symSize: 0x30 }
  - { offset: 0x1A4256, size: 0x8, addend: 0x0, symName: __ZN12SubscriptionD1Ev, symObjAddr: 0x80, symBinAddr: 0xA4C80, symSize: 0x30 }
  - { offset: 0x1A428D, size: 0x8, addend: 0x0, symName: __ZN12Subscription5closeEv, symObjAddr: 0xB0, symBinAddr: 0xA4CB0, symSize: 0x140 }
  - { offset: 0x1A42FD, size: 0x8, addend: 0x0, symName: __ZL13error_messageRKN6Pubnub6StringES2_10pubnub_res, symObjAddr: 0x1F0, symBinAddr: 0xA4DF0, symSize: 0xC0 }
  - { offset: 0x1A436C, size: 0x8, addend: 0x0, symName: __ZN12Subscription20add_message_listenerE17CCoreCallbackData, symObjAddr: 0x2B0, symBinAddr: 0xA4EB0, symSize: 0x70 }
  - { offset: 0x1A438B, size: 0x8, addend: 0x0, symName: __ZN12Subscription12set_callbackE17CCoreCallbackData30pubnub_subscribe_listener_typeRKN6Pubnub6StringE, symObjAddr: 0x320, symBinAddr: 0xA4F20, symSize: 0x180 }
  - { offset: 0x1A442B, size: 0x8, addend: 0x0, symName: __ZN12Subscription27add_channel_update_listenerE17CCoreCallbackData, symObjAddr: 0x4A0, symBinAddr: 0xA50A0, symSize: 0x70 }
  - { offset: 0x1A444A, size: 0x8, addend: 0x0, symName: __ZN12Subscription24add_user_update_listenerE17CCoreCallbackData, symObjAddr: 0x510, symBinAddr: 0xA5110, symSize: 0x70 }
  - { offset: 0x1A446F, size: 0x8, addend: 0x0, symName: __ZN12Subscription18add_event_listenerE17CCoreCallbackDataN6Pubnub22pubnub_chat_event_typeE, symObjAddr: 0x580, symBinAddr: 0xA5180, symSize: 0x90 }
  - { offset: 0x1A44AF, size: 0x8, addend: 0x0, symName: __ZN12Subscription21add_presence_listenerE17CCoreCallbackData, symObjAddr: 0x610, symBinAddr: 0xA5210, symSize: 0x70 }
  - { offset: 0x1A44CE, size: 0x8, addend: 0x0, symName: __ZN12Subscription30add_membership_update_listenerE17CCoreCallbackData, symObjAddr: 0x680, symBinAddr: 0xA5280, symSize: 0x70 }
  - { offset: 0x1A44ED, size: 0x8, addend: 0x0, symName: __ZN12Subscription27add_message_update_listenerE17CCoreCallbackData, symObjAddr: 0x6F0, symBinAddr: 0xA52F0, symSize: 0x70 }
  - { offset: 0x1A450C, size: 0x8, addend: 0x0, symName: __ZN12Subscription34add_thread_message_update_listenerE17CCoreCallbackData, symObjAddr: 0x760, symBinAddr: 0xA5360, symSize: 0x70 }
  - { offset: 0x1A452B, size: 0x8, addend: 0x0, symName: __ZN15SubscriptionSetC2EP23pubnub_subscription_set, symObjAddr: 0x7D0, symBinAddr: 0xA53D0, symSize: 0x20 }
  - { offset: 0x1A45F1, size: 0x8, addend: 0x0, symName: __ZN15SubscriptionSetC1EP23pubnub_subscription_set, symObjAddr: 0x7F0, symBinAddr: 0xA53F0, symSize: 0x20 }
  - { offset: 0x1A46C6, size: 0x8, addend: 0x0, symName: __ZN15SubscriptionSetD2Ev, symObjAddr: 0x810, symBinAddr: 0xA5410, symSize: 0x30 }
  - { offset: 0x1A46F3, size: 0x8, addend: 0x0, symName: __ZN15SubscriptionSetD1Ev, symObjAddr: 0x840, symBinAddr: 0xA5440, symSize: 0x30 }
  - { offset: 0x1A471E, size: 0x8, addend: 0x0, symName: __ZN15SubscriptionSet5closeEv, symObjAddr: 0x870, symBinAddr: 0xA5470, symSize: 0x140 }
  - { offset: 0x1A477A, size: 0x8, addend: 0x0, symName: __ZN15SubscriptionSet27add_channel_update_listenerE17CCoreCallbackData, symObjAddr: 0x9B0, symBinAddr: 0xA55B0, symSize: 0x70 }
  - { offset: 0x1A4799, size: 0x8, addend: 0x0, symName: __ZN15SubscriptionSet12set_callbackE17CCoreCallbackData30pubnub_subscribe_listener_typeRKN6Pubnub6StringE, symObjAddr: 0xA20, symBinAddr: 0xA5620, symSize: 0x180 }
  - { offset: 0x1A482D, size: 0x8, addend: 0x0, symName: __ZN15SubscriptionSet30add_membership_update_listenerE17CCoreCallbackData, symObjAddr: 0xBA0, symBinAddr: 0xA57A0, symSize: 0x70 }
  - { offset: 0x1A484C, size: 0x8, addend: 0x0, symName: __ZN15SubscriptionSet27add_message_update_listenerE17CCoreCallbackData, symObjAddr: 0xC10, symBinAddr: 0xA5810, symSize: 0x70 }
  - { offset: 0x1A486B, size: 0x8, addend: 0x0, symName: __ZN15SubscriptionSet34add_thread_message_update_listenerE17CCoreCallbackData, symObjAddr: 0xC80, symBinAddr: 0xA5880, symSize: 0x70 }
  - { offset: 0x1A488A, size: 0x8, addend: 0x0, symName: __ZN15SubscriptionSet24add_user_update_listenerE17CCoreCallbackData, symObjAddr: 0xCF0, symBinAddr: 0xA58F0, symSize: 0x6B }
...
